ARM GAS  C:\Users\seblo\AppData\Local\Temp\ccJuvw9h.s 			page 1


   1              		.cpu cortex-m7
   2              		.eabi_attribute 27, 1
   3              		.eabi_attribute 28, 1
   4              		.eabi_attribute 20, 1
   5              		.eabi_attribute 21, 1
   6              		.eabi_attribute 23, 3
   7              		.eabi_attribute 24, 1
   8              		.eabi_attribute 25, 1
   9              		.eabi_attribute 26, 1
  10              		.eabi_attribute 30, 1
  11              		.eabi_attribute 34, 1
  12              		.eabi_attribute 18, 4
  13              		.file	"cmsis_os.c"
  14              		.text
  15              	.Ltext0:
  16              		.cfi_sections	.debug_frame
  17              		.section	.text.makeFreeRtosPriority,"ax",%progbits
  18              		.align	1
  19              		.arch armv7e-m
  20              		.syntax unified
  21              		.thumb
  22              		.thumb_func
  23              		.fpu fpv5-sp-d16
  25              	makeFreeRtosPriority:
  26              	.LVL0:
  27              	.LFB107:
  28              		.file 1 "Middlewares/Third_Party/FreeRTOS/Source/CMSIS_RTOS/cmsis_os.c"
   1:Middlewares/Third_Party/FreeRTOS/Source/CMSIS_RTOS/cmsis_os.c **** /* ----------------------------------------------------------------------
   2:Middlewares/Third_Party/FreeRTOS/Source/CMSIS_RTOS/cmsis_os.c ****  * $Date:        5. February 2013
   3:Middlewares/Third_Party/FreeRTOS/Source/CMSIS_RTOS/cmsis_os.c ****  * $Revision:    V1.02
   4:Middlewares/Third_Party/FreeRTOS/Source/CMSIS_RTOS/cmsis_os.c ****  *
   5:Middlewares/Third_Party/FreeRTOS/Source/CMSIS_RTOS/cmsis_os.c ****  * Project:      CMSIS-RTOS API
   6:Middlewares/Third_Party/FreeRTOS/Source/CMSIS_RTOS/cmsis_os.c ****  * Title:        cmsis_os.c
   7:Middlewares/Third_Party/FreeRTOS/Source/CMSIS_RTOS/cmsis_os.c ****  *
   8:Middlewares/Third_Party/FreeRTOS/Source/CMSIS_RTOS/cmsis_os.c ****  * Version 0.02
   9:Middlewares/Third_Party/FreeRTOS/Source/CMSIS_RTOS/cmsis_os.c ****  *    Initial Proposal Phase
  10:Middlewares/Third_Party/FreeRTOS/Source/CMSIS_RTOS/cmsis_os.c ****  * Version 0.03
  11:Middlewares/Third_Party/FreeRTOS/Source/CMSIS_RTOS/cmsis_os.c ****  *    osKernelStart added, optional feature: main started as thread
  12:Middlewares/Third_Party/FreeRTOS/Source/CMSIS_RTOS/cmsis_os.c ****  *    osSemaphores have standard behavior
  13:Middlewares/Third_Party/FreeRTOS/Source/CMSIS_RTOS/cmsis_os.c ****  *    osTimerCreate does not start the timer, added osTimerStart
  14:Middlewares/Third_Party/FreeRTOS/Source/CMSIS_RTOS/cmsis_os.c ****  *    osThreadPass is renamed to osThreadYield
  15:Middlewares/Third_Party/FreeRTOS/Source/CMSIS_RTOS/cmsis_os.c ****  * Version 1.01
  16:Middlewares/Third_Party/FreeRTOS/Source/CMSIS_RTOS/cmsis_os.c ****  *    Support for C++ interface
  17:Middlewares/Third_Party/FreeRTOS/Source/CMSIS_RTOS/cmsis_os.c ****  *     - const attribute removed from the osXxxxDef_t typedef's
  18:Middlewares/Third_Party/FreeRTOS/Source/CMSIS_RTOS/cmsis_os.c ****  *     - const attribute added to the osXxxxDef macros
  19:Middlewares/Third_Party/FreeRTOS/Source/CMSIS_RTOS/cmsis_os.c ****  *    Added: osTimerDelete, osMutexDelete, osSemaphoreDelete
  20:Middlewares/Third_Party/FreeRTOS/Source/CMSIS_RTOS/cmsis_os.c ****  *    Added: osKernelInitialize
  21:Middlewares/Third_Party/FreeRTOS/Source/CMSIS_RTOS/cmsis_os.c ****  * Version 1.02
  22:Middlewares/Third_Party/FreeRTOS/Source/CMSIS_RTOS/cmsis_os.c ****  *    Control functions for short timeouts in microsecond resolution:
  23:Middlewares/Third_Party/FreeRTOS/Source/CMSIS_RTOS/cmsis_os.c ****  *    Added: osKernelSysTick, osKernelSysTickFrequency, osKernelSysTickMicroSec
  24:Middlewares/Third_Party/FreeRTOS/Source/CMSIS_RTOS/cmsis_os.c ****  *    Removed: osSignalGet 
  25:Middlewares/Third_Party/FreeRTOS/Source/CMSIS_RTOS/cmsis_os.c ****  *    
  26:Middlewares/Third_Party/FreeRTOS/Source/CMSIS_RTOS/cmsis_os.c ****  *  
  27:Middlewares/Third_Party/FreeRTOS/Source/CMSIS_RTOS/cmsis_os.c ****  *----------------------------------------------------------------------------
  28:Middlewares/Third_Party/FreeRTOS/Source/CMSIS_RTOS/cmsis_os.c ****  *
  29:Middlewares/Third_Party/FreeRTOS/Source/CMSIS_RTOS/cmsis_os.c ****  * Portions Copyright © 2016 STMicroelectronics International N.V. All rights reserved.
  30:Middlewares/Third_Party/FreeRTOS/Source/CMSIS_RTOS/cmsis_os.c ****  * Portions Copyright (c) 2013 ARM LIMITED
ARM GAS  C:\Users\seblo\AppData\Local\Temp\ccJuvw9h.s 			page 2


  31:Middlewares/Third_Party/FreeRTOS/Source/CMSIS_RTOS/cmsis_os.c ****  * All rights reserved.
  32:Middlewares/Third_Party/FreeRTOS/Source/CMSIS_RTOS/cmsis_os.c ****  * Redistribution and use in source and binary forms, with or without
  33:Middlewares/Third_Party/FreeRTOS/Source/CMSIS_RTOS/cmsis_os.c ****  * modification, are permitted provided that the following conditions are met:
  34:Middlewares/Third_Party/FreeRTOS/Source/CMSIS_RTOS/cmsis_os.c ****  *  - Redistributions of source code must retain the above copyright
  35:Middlewares/Third_Party/FreeRTOS/Source/CMSIS_RTOS/cmsis_os.c ****  *    notice, this list of conditions and the following disclaimer.
  36:Middlewares/Third_Party/FreeRTOS/Source/CMSIS_RTOS/cmsis_os.c ****  *  - Redistributions in binary form must reproduce the above copyright
  37:Middlewares/Third_Party/FreeRTOS/Source/CMSIS_RTOS/cmsis_os.c ****  *    notice, this list of conditions and the following disclaimer in the
  38:Middlewares/Third_Party/FreeRTOS/Source/CMSIS_RTOS/cmsis_os.c ****  *    documentation and/or other materials provided with the distribution.
  39:Middlewares/Third_Party/FreeRTOS/Source/CMSIS_RTOS/cmsis_os.c ****  *  - Neither the name of ARM  nor the names of its contributors may be used
  40:Middlewares/Third_Party/FreeRTOS/Source/CMSIS_RTOS/cmsis_os.c ****  *    to endorse or promote products derived from this software without
  41:Middlewares/Third_Party/FreeRTOS/Source/CMSIS_RTOS/cmsis_os.c ****  *    specific prior written permission.
  42:Middlewares/Third_Party/FreeRTOS/Source/CMSIS_RTOS/cmsis_os.c ****  *
  43:Middlewares/Third_Party/FreeRTOS/Source/CMSIS_RTOS/cmsis_os.c ****  * THIS SOFTWARE IS PROVIDED BY THE COPYRIGHT HOLDERS AND CONTRIBUTORS "AS IS"
  44:Middlewares/Third_Party/FreeRTOS/Source/CMSIS_RTOS/cmsis_os.c ****  * AND ANY EXPRESS OR IMPLIED WARRANTIES, INCLUDING, BUT NOT LIMITED TO, THE
  45:Middlewares/Third_Party/FreeRTOS/Source/CMSIS_RTOS/cmsis_os.c ****  * IMPLIED WARRANTIES OF MERCHANTABILITY AND FITNESS FOR A PARTICULAR PURPOSE
  46:Middlewares/Third_Party/FreeRTOS/Source/CMSIS_RTOS/cmsis_os.c ****  * ARE DISCLAIMED. IN NO EVENT SHALL COPYRIGHT HOLDERS AND CONTRIBUTORS BE
  47:Middlewares/Third_Party/FreeRTOS/Source/CMSIS_RTOS/cmsis_os.c ****  * LIABLE FOR ANY DIRECT, INDIRECT, INCIDENTAL, SPECIAL, EXEMPLARY, OR
  48:Middlewares/Third_Party/FreeRTOS/Source/CMSIS_RTOS/cmsis_os.c ****  * CONSEQUENTIAL DAMAGES (INCLUDING, BUT NOT LIMITED TO, PROCUREMENT OF
  49:Middlewares/Third_Party/FreeRTOS/Source/CMSIS_RTOS/cmsis_os.c ****  * SUBSTITUTE GOODS OR SERVICES; LOSS OF USE, DATA, OR PROFITS; OR BUSINESS
  50:Middlewares/Third_Party/FreeRTOS/Source/CMSIS_RTOS/cmsis_os.c ****  * INTERRUPTION) HOWEVER CAUSED AND ON ANY THEORY OF LIABILITY, WHETHER IN
  51:Middlewares/Third_Party/FreeRTOS/Source/CMSIS_RTOS/cmsis_os.c ****  * CONTRACT, STRICT LIABILITY, OR TORT (INCLUDING NEGLIGENCE OR OTHERWISE)
  52:Middlewares/Third_Party/FreeRTOS/Source/CMSIS_RTOS/cmsis_os.c ****  * ARISING IN ANY WAY OUT OF THE USE OF THIS SOFTWARE, EVEN IF ADVISED OF THE
  53:Middlewares/Third_Party/FreeRTOS/Source/CMSIS_RTOS/cmsis_os.c ****  * POSSIBILITY OF SUCH DAMAGE.
  54:Middlewares/Third_Party/FreeRTOS/Source/CMSIS_RTOS/cmsis_os.c ****  *---------------------------------------------------------------------------*/
  55:Middlewares/Third_Party/FreeRTOS/Source/CMSIS_RTOS/cmsis_os.c **** 
  56:Middlewares/Third_Party/FreeRTOS/Source/CMSIS_RTOS/cmsis_os.c **** #include <string.h>
  57:Middlewares/Third_Party/FreeRTOS/Source/CMSIS_RTOS/cmsis_os.c **** #include "cmsis_os.h"
  58:Middlewares/Third_Party/FreeRTOS/Source/CMSIS_RTOS/cmsis_os.c **** 
  59:Middlewares/Third_Party/FreeRTOS/Source/CMSIS_RTOS/cmsis_os.c **** /*
  60:Middlewares/Third_Party/FreeRTOS/Source/CMSIS_RTOS/cmsis_os.c ****  * ARM Compiler 4/5
  61:Middlewares/Third_Party/FreeRTOS/Source/CMSIS_RTOS/cmsis_os.c ****  */
  62:Middlewares/Third_Party/FreeRTOS/Source/CMSIS_RTOS/cmsis_os.c **** #if   defined ( __CC_ARM )
  63:Middlewares/Third_Party/FreeRTOS/Source/CMSIS_RTOS/cmsis_os.c **** 
  64:Middlewares/Third_Party/FreeRTOS/Source/CMSIS_RTOS/cmsis_os.c ****   #define __ASM            __asm                                      
  65:Middlewares/Third_Party/FreeRTOS/Source/CMSIS_RTOS/cmsis_os.c ****   #define __INLINE         __inline                                     
  66:Middlewares/Third_Party/FreeRTOS/Source/CMSIS_RTOS/cmsis_os.c ****   #define __STATIC_INLINE  static __inline
  67:Middlewares/Third_Party/FreeRTOS/Source/CMSIS_RTOS/cmsis_os.c **** 
  68:Middlewares/Third_Party/FreeRTOS/Source/CMSIS_RTOS/cmsis_os.c ****   #include "cmsis_armcc.h"
  69:Middlewares/Third_Party/FreeRTOS/Source/CMSIS_RTOS/cmsis_os.c **** 
  70:Middlewares/Third_Party/FreeRTOS/Source/CMSIS_RTOS/cmsis_os.c **** /*
  71:Middlewares/Third_Party/FreeRTOS/Source/CMSIS_RTOS/cmsis_os.c ****  * GNU Compiler
  72:Middlewares/Third_Party/FreeRTOS/Source/CMSIS_RTOS/cmsis_os.c ****  */
  73:Middlewares/Third_Party/FreeRTOS/Source/CMSIS_RTOS/cmsis_os.c **** #elif defined ( __GNUC__ )
  74:Middlewares/Third_Party/FreeRTOS/Source/CMSIS_RTOS/cmsis_os.c **** 
  75:Middlewares/Third_Party/FreeRTOS/Source/CMSIS_RTOS/cmsis_os.c ****   #define __ASM            __asm                                      /*!< asm keyword for GNU Comp
  76:Middlewares/Third_Party/FreeRTOS/Source/CMSIS_RTOS/cmsis_os.c ****   #define __INLINE         inline                                     /*!< inline keyword for GNU C
  77:Middlewares/Third_Party/FreeRTOS/Source/CMSIS_RTOS/cmsis_os.c ****   #define __STATIC_INLINE  static inline
  78:Middlewares/Third_Party/FreeRTOS/Source/CMSIS_RTOS/cmsis_os.c **** 
  79:Middlewares/Third_Party/FreeRTOS/Source/CMSIS_RTOS/cmsis_os.c ****   #include "cmsis_gcc.h"
  80:Middlewares/Third_Party/FreeRTOS/Source/CMSIS_RTOS/cmsis_os.c **** 
  81:Middlewares/Third_Party/FreeRTOS/Source/CMSIS_RTOS/cmsis_os.c **** 
  82:Middlewares/Third_Party/FreeRTOS/Source/CMSIS_RTOS/cmsis_os.c **** /*
  83:Middlewares/Third_Party/FreeRTOS/Source/CMSIS_RTOS/cmsis_os.c ****  * IAR Compiler
  84:Middlewares/Third_Party/FreeRTOS/Source/CMSIS_RTOS/cmsis_os.c ****  */
  85:Middlewares/Third_Party/FreeRTOS/Source/CMSIS_RTOS/cmsis_os.c **** #elif defined ( __ICCARM__ )
  86:Middlewares/Third_Party/FreeRTOS/Source/CMSIS_RTOS/cmsis_os.c **** 
  87:Middlewares/Third_Party/FreeRTOS/Source/CMSIS_RTOS/cmsis_os.c ****   #ifndef   __ASM
ARM GAS  C:\Users\seblo\AppData\Local\Temp\ccJuvw9h.s 			page 3


  88:Middlewares/Third_Party/FreeRTOS/Source/CMSIS_RTOS/cmsis_os.c ****     #define __ASM                     __asm
  89:Middlewares/Third_Party/FreeRTOS/Source/CMSIS_RTOS/cmsis_os.c ****   #endif
  90:Middlewares/Third_Party/FreeRTOS/Source/CMSIS_RTOS/cmsis_os.c ****   #ifndef   __INLINE
  91:Middlewares/Third_Party/FreeRTOS/Source/CMSIS_RTOS/cmsis_os.c ****     #define __INLINE                  inline
  92:Middlewares/Third_Party/FreeRTOS/Source/CMSIS_RTOS/cmsis_os.c ****   #endif
  93:Middlewares/Third_Party/FreeRTOS/Source/CMSIS_RTOS/cmsis_os.c ****   #ifndef   __STATIC_INLINE
  94:Middlewares/Third_Party/FreeRTOS/Source/CMSIS_RTOS/cmsis_os.c ****     #define __STATIC_INLINE           static inline
  95:Middlewares/Third_Party/FreeRTOS/Source/CMSIS_RTOS/cmsis_os.c ****   #endif
  96:Middlewares/Third_Party/FreeRTOS/Source/CMSIS_RTOS/cmsis_os.c **** 
  97:Middlewares/Third_Party/FreeRTOS/Source/CMSIS_RTOS/cmsis_os.c ****   #include <cmsis_iar.h>
  98:Middlewares/Third_Party/FreeRTOS/Source/CMSIS_RTOS/cmsis_os.c **** #endif
  99:Middlewares/Third_Party/FreeRTOS/Source/CMSIS_RTOS/cmsis_os.c **** 
 100:Middlewares/Third_Party/FreeRTOS/Source/CMSIS_RTOS/cmsis_os.c **** extern void xPortSysTickHandler(void);
 101:Middlewares/Third_Party/FreeRTOS/Source/CMSIS_RTOS/cmsis_os.c **** 
 102:Middlewares/Third_Party/FreeRTOS/Source/CMSIS_RTOS/cmsis_os.c **** /* Convert from CMSIS type osPriority to FreeRTOS priority number */
 103:Middlewares/Third_Party/FreeRTOS/Source/CMSIS_RTOS/cmsis_os.c **** static unsigned portBASE_TYPE makeFreeRtosPriority (osPriority priority)
 104:Middlewares/Third_Party/FreeRTOS/Source/CMSIS_RTOS/cmsis_os.c **** {
  29              		.loc 1 104 1 view -0
  30              		.cfi_startproc
  31              		@ args = 0, pretend = 0, frame = 0
  32              		@ frame_needed = 0, uses_anonymous_args = 0
  33              		@ link register save eliminated.
 105:Middlewares/Third_Party/FreeRTOS/Source/CMSIS_RTOS/cmsis_os.c ****   unsigned portBASE_TYPE fpriority = tskIDLE_PRIORITY;
  34              		.loc 1 105 3 view .LVU1
 106:Middlewares/Third_Party/FreeRTOS/Source/CMSIS_RTOS/cmsis_os.c ****   
 107:Middlewares/Third_Party/FreeRTOS/Source/CMSIS_RTOS/cmsis_os.c ****   if (priority != osPriorityError) {
  35              		.loc 1 107 3 view .LVU2
  36              		.loc 1 107 6 is_stmt 0 view .LVU3
  37 0000 8428     		cmp	r0, #132
  38 0002 01D0     		beq	.L3
 108:Middlewares/Third_Party/FreeRTOS/Source/CMSIS_RTOS/cmsis_os.c ****     fpriority += (priority - osPriorityIdle);
  39              		.loc 1 108 5 is_stmt 1 view .LVU4
  40              		.loc 1 108 15 is_stmt 0 view .LVU5
  41 0004 0330     		adds	r0, r0, #3
  42              	.LVL1:
  43              		.loc 1 108 15 view .LVU6
  44 0006 7047     		bx	lr
  45              	.LVL2:
  46              	.L3:
 105:Middlewares/Third_Party/FreeRTOS/Source/CMSIS_RTOS/cmsis_os.c ****   unsigned portBASE_TYPE fpriority = tskIDLE_PRIORITY;
  47              		.loc 1 105 26 view .LVU7
  48 0008 0020     		movs	r0, #0
  49              	.LVL3:
 109:Middlewares/Third_Party/FreeRTOS/Source/CMSIS_RTOS/cmsis_os.c ****   }
 110:Middlewares/Third_Party/FreeRTOS/Source/CMSIS_RTOS/cmsis_os.c ****   
 111:Middlewares/Third_Party/FreeRTOS/Source/CMSIS_RTOS/cmsis_os.c ****   return fpriority;
  50              		.loc 1 111 3 is_stmt 1 view .LVU8
 112:Middlewares/Third_Party/FreeRTOS/Source/CMSIS_RTOS/cmsis_os.c **** }
  51              		.loc 1 112 1 is_stmt 0 view .LVU9
  52 000a 7047     		bx	lr
  53              		.cfi_endproc
  54              	.LFE107:
  56              		.section	.text.makeCmsisPriority,"ax",%progbits
  57              		.align	1
  58              		.syntax unified
  59              		.thumb
  60              		.thumb_func
ARM GAS  C:\Users\seblo\AppData\Local\Temp\ccJuvw9h.s 			page 4


  61              		.fpu fpv5-sp-d16
  63              	makeCmsisPriority:
  64              	.LVL4:
  65              	.LFB108:
 113:Middlewares/Third_Party/FreeRTOS/Source/CMSIS_RTOS/cmsis_os.c **** 
 114:Middlewares/Third_Party/FreeRTOS/Source/CMSIS_RTOS/cmsis_os.c **** #if (INCLUDE_uxTaskPriorityGet == 1)
 115:Middlewares/Third_Party/FreeRTOS/Source/CMSIS_RTOS/cmsis_os.c **** /* Convert from FreeRTOS priority number to CMSIS type osPriority */
 116:Middlewares/Third_Party/FreeRTOS/Source/CMSIS_RTOS/cmsis_os.c **** static osPriority makeCmsisPriority (unsigned portBASE_TYPE fpriority)
 117:Middlewares/Third_Party/FreeRTOS/Source/CMSIS_RTOS/cmsis_os.c **** {
  66              		.loc 1 117 1 is_stmt 1 view -0
  67              		.cfi_startproc
  68              		@ args = 0, pretend = 0, frame = 0
  69              		@ frame_needed = 0, uses_anonymous_args = 0
  70              		@ link register save eliminated.
 118:Middlewares/Third_Party/FreeRTOS/Source/CMSIS_RTOS/cmsis_os.c ****   osPriority priority = osPriorityError;
  71              		.loc 1 118 3 view .LVU11
 119:Middlewares/Third_Party/FreeRTOS/Source/CMSIS_RTOS/cmsis_os.c ****   
 120:Middlewares/Third_Party/FreeRTOS/Source/CMSIS_RTOS/cmsis_os.c ****   if ((fpriority - tskIDLE_PRIORITY) <= (osPriorityRealtime - osPriorityIdle)) {
  72              		.loc 1 120 3 view .LVU12
  73              		.loc 1 120 6 is_stmt 0 view .LVU13
  74 0000 0628     		cmp	r0, #6
  75 0002 02D8     		bhi	.L6
 121:Middlewares/Third_Party/FreeRTOS/Source/CMSIS_RTOS/cmsis_os.c ****     priority = (osPriority)((int)osPriorityIdle + (int)(fpriority - tskIDLE_PRIORITY));
  76              		.loc 1 121 5 is_stmt 1 view .LVU14
  77              		.loc 1 121 49 is_stmt 0 view .LVU15
  78 0004 0338     		subs	r0, r0, #3
  79              	.LVL5:
  80              		.loc 1 121 14 view .LVU16
  81 0006 00B2     		sxth	r0, r0
  82              	.LVL6:
  83              		.loc 1 121 14 view .LVU17
  84 0008 7047     		bx	lr
  85              	.LVL7:
  86              	.L6:
 118:Middlewares/Third_Party/FreeRTOS/Source/CMSIS_RTOS/cmsis_os.c ****   osPriority priority = osPriorityError;
  87              		.loc 1 118 14 view .LVU18
  88 000a 8420     		movs	r0, #132
  89              	.LVL8:
 122:Middlewares/Third_Party/FreeRTOS/Source/CMSIS_RTOS/cmsis_os.c ****   }
 123:Middlewares/Third_Party/FreeRTOS/Source/CMSIS_RTOS/cmsis_os.c ****   
 124:Middlewares/Third_Party/FreeRTOS/Source/CMSIS_RTOS/cmsis_os.c ****   return priority;
  90              		.loc 1 124 3 is_stmt 1 view .LVU19
 125:Middlewares/Third_Party/FreeRTOS/Source/CMSIS_RTOS/cmsis_os.c **** }
  91              		.loc 1 125 1 is_stmt 0 view .LVU20
  92 000c 7047     		bx	lr
  93              		.cfi_endproc
  94              	.LFE108:
  96              		.section	.text.inHandlerMode,"ax",%progbits
  97              		.align	1
  98              		.syntax unified
  99              		.thumb
 100              		.thumb_func
 101              		.fpu fpv5-sp-d16
 103              	inHandlerMode:
 104              	.LFB109:
 126:Middlewares/Third_Party/FreeRTOS/Source/CMSIS_RTOS/cmsis_os.c **** #endif
 127:Middlewares/Third_Party/FreeRTOS/Source/CMSIS_RTOS/cmsis_os.c **** 
ARM GAS  C:\Users\seblo\AppData\Local\Temp\ccJuvw9h.s 			page 5


 128:Middlewares/Third_Party/FreeRTOS/Source/CMSIS_RTOS/cmsis_os.c **** 
 129:Middlewares/Third_Party/FreeRTOS/Source/CMSIS_RTOS/cmsis_os.c **** /* Determine whether we are in thread mode or handler mode. */
 130:Middlewares/Third_Party/FreeRTOS/Source/CMSIS_RTOS/cmsis_os.c **** static int inHandlerMode (void)
 131:Middlewares/Third_Party/FreeRTOS/Source/CMSIS_RTOS/cmsis_os.c **** {
 105              		.loc 1 131 1 is_stmt 1 view -0
 106              		.cfi_startproc
 107              		@ args = 0, pretend = 0, frame = 0
 108              		@ frame_needed = 0, uses_anonymous_args = 0
 109              		@ link register save eliminated.
 132:Middlewares/Third_Party/FreeRTOS/Source/CMSIS_RTOS/cmsis_os.c ****   return __get_IPSR() != 0;
 110              		.loc 1 132 3 view .LVU22
 111              	.LBB8:
 112              	.LBI8:
 113              		.file 2 "Drivers/CMSIS/Include/cmsis_gcc.h"
   1:Drivers/CMSIS/Include/cmsis_gcc.h **** /**************************************************************************//**
   2:Drivers/CMSIS/Include/cmsis_gcc.h ****  * @file     cmsis_gcc.h
   3:Drivers/CMSIS/Include/cmsis_gcc.h ****  * @brief    CMSIS compiler GCC header file
   4:Drivers/CMSIS/Include/cmsis_gcc.h ****  * @version  V5.0.4
   5:Drivers/CMSIS/Include/cmsis_gcc.h ****  * @date     09. April 2018
   6:Drivers/CMSIS/Include/cmsis_gcc.h ****  ******************************************************************************/
   7:Drivers/CMSIS/Include/cmsis_gcc.h **** /*
   8:Drivers/CMSIS/Include/cmsis_gcc.h ****  * Copyright (c) 2009-2018 Arm Limited. All rights reserved.
   9:Drivers/CMSIS/Include/cmsis_gcc.h ****  *
  10:Drivers/CMSIS/Include/cmsis_gcc.h ****  * SPDX-License-Identifier: Apache-2.0
  11:Drivers/CMSIS/Include/cmsis_gcc.h ****  *
  12:Drivers/CMSIS/Include/cmsis_gcc.h ****  * Licensed under the Apache License, Version 2.0 (the License); you may
  13:Drivers/CMSIS/Include/cmsis_gcc.h ****  * not use this file except in compliance with the License.
  14:Drivers/CMSIS/Include/cmsis_gcc.h ****  * You may obtain a copy of the License at
  15:Drivers/CMSIS/Include/cmsis_gcc.h ****  *
  16:Drivers/CMSIS/Include/cmsis_gcc.h ****  * www.apache.org/licenses/LICENSE-2.0
  17:Drivers/CMSIS/Include/cmsis_gcc.h ****  *
  18:Drivers/CMSIS/Include/cmsis_gcc.h ****  * Unless required by applicable law or agreed to in writing, software
  19:Drivers/CMSIS/Include/cmsis_gcc.h ****  * distributed under the License is distributed on an AS IS BASIS, WITHOUT
  20:Drivers/CMSIS/Include/cmsis_gcc.h ****  * WARRANTIES OR CONDITIONS OF ANY KIND, either express or implied.
  21:Drivers/CMSIS/Include/cmsis_gcc.h ****  * See the License for the specific language governing permissions and
  22:Drivers/CMSIS/Include/cmsis_gcc.h ****  * limitations under the License.
  23:Drivers/CMSIS/Include/cmsis_gcc.h ****  */
  24:Drivers/CMSIS/Include/cmsis_gcc.h **** 
  25:Drivers/CMSIS/Include/cmsis_gcc.h **** #ifndef __CMSIS_GCC_H
  26:Drivers/CMSIS/Include/cmsis_gcc.h **** #define __CMSIS_GCC_H
  27:Drivers/CMSIS/Include/cmsis_gcc.h **** 
  28:Drivers/CMSIS/Include/cmsis_gcc.h **** /* ignore some GCC warnings */
  29:Drivers/CMSIS/Include/cmsis_gcc.h **** #pragma GCC diagnostic push
  30:Drivers/CMSIS/Include/cmsis_gcc.h **** #pragma GCC diagnostic ignored "-Wsign-conversion"
  31:Drivers/CMSIS/Include/cmsis_gcc.h **** #pragma GCC diagnostic ignored "-Wconversion"
  32:Drivers/CMSIS/Include/cmsis_gcc.h **** #pragma GCC diagnostic ignored "-Wunused-parameter"
  33:Drivers/CMSIS/Include/cmsis_gcc.h **** 
  34:Drivers/CMSIS/Include/cmsis_gcc.h **** /* Fallback for __has_builtin */
  35:Drivers/CMSIS/Include/cmsis_gcc.h **** #ifndef __has_builtin
  36:Drivers/CMSIS/Include/cmsis_gcc.h ****   #define __has_builtin(x) (0)
  37:Drivers/CMSIS/Include/cmsis_gcc.h **** #endif
  38:Drivers/CMSIS/Include/cmsis_gcc.h **** 
  39:Drivers/CMSIS/Include/cmsis_gcc.h **** /* CMSIS compiler specific defines */
  40:Drivers/CMSIS/Include/cmsis_gcc.h **** #ifndef   __ASM
  41:Drivers/CMSIS/Include/cmsis_gcc.h ****   #define __ASM                                  __asm
  42:Drivers/CMSIS/Include/cmsis_gcc.h **** #endif
  43:Drivers/CMSIS/Include/cmsis_gcc.h **** #ifndef   __INLINE
ARM GAS  C:\Users\seblo\AppData\Local\Temp\ccJuvw9h.s 			page 6


  44:Drivers/CMSIS/Include/cmsis_gcc.h ****   #define __INLINE                               inline
  45:Drivers/CMSIS/Include/cmsis_gcc.h **** #endif
  46:Drivers/CMSIS/Include/cmsis_gcc.h **** #ifndef   __STATIC_INLINE
  47:Drivers/CMSIS/Include/cmsis_gcc.h ****   #define __STATIC_INLINE                        static inline
  48:Drivers/CMSIS/Include/cmsis_gcc.h **** #endif
  49:Drivers/CMSIS/Include/cmsis_gcc.h **** #ifndef   __STATIC_FORCEINLINE                 
  50:Drivers/CMSIS/Include/cmsis_gcc.h ****   #define __STATIC_FORCEINLINE                   __attribute__((always_inline)) static inline
  51:Drivers/CMSIS/Include/cmsis_gcc.h **** #endif                                           
  52:Drivers/CMSIS/Include/cmsis_gcc.h **** #ifndef   __NO_RETURN
  53:Drivers/CMSIS/Include/cmsis_gcc.h ****   #define __NO_RETURN                            __attribute__((__noreturn__))
  54:Drivers/CMSIS/Include/cmsis_gcc.h **** #endif
  55:Drivers/CMSIS/Include/cmsis_gcc.h **** #ifndef   __USED
  56:Drivers/CMSIS/Include/cmsis_gcc.h ****   #define __USED                                 __attribute__((used))
  57:Drivers/CMSIS/Include/cmsis_gcc.h **** #endif
  58:Drivers/CMSIS/Include/cmsis_gcc.h **** #ifndef   __WEAK
  59:Drivers/CMSIS/Include/cmsis_gcc.h ****   #define __WEAK                                 __attribute__((weak))
  60:Drivers/CMSIS/Include/cmsis_gcc.h **** #endif
  61:Drivers/CMSIS/Include/cmsis_gcc.h **** #ifndef   __PACKED
  62:Drivers/CMSIS/Include/cmsis_gcc.h ****   #define __PACKED                               __attribute__((packed, aligned(1)))
  63:Drivers/CMSIS/Include/cmsis_gcc.h **** #endif
  64:Drivers/CMSIS/Include/cmsis_gcc.h **** #ifndef   __PACKED_STRUCT
  65:Drivers/CMSIS/Include/cmsis_gcc.h ****   #define __PACKED_STRUCT                        struct __attribute__((packed, aligned(1)))
  66:Drivers/CMSIS/Include/cmsis_gcc.h **** #endif
  67:Drivers/CMSIS/Include/cmsis_gcc.h **** #ifndef   __PACKED_UNION
  68:Drivers/CMSIS/Include/cmsis_gcc.h ****   #define __PACKED_UNION                         union __attribute__((packed, aligned(1)))
  69:Drivers/CMSIS/Include/cmsis_gcc.h **** #endif
  70:Drivers/CMSIS/Include/cmsis_gcc.h **** #ifndef   __UNALIGNED_UINT32        /* deprecated */
  71:Drivers/CMSIS/Include/cmsis_gcc.h ****   #pragma GCC diagnostic push
  72:Drivers/CMSIS/Include/cmsis_gcc.h ****   #pragma GCC diagnostic ignored "-Wpacked"
  73:Drivers/CMSIS/Include/cmsis_gcc.h ****   #pragma GCC diagnostic ignored "-Wattributes"
  74:Drivers/CMSIS/Include/cmsis_gcc.h ****   struct __attribute__((packed)) T_UINT32 { uint32_t v; };
  75:Drivers/CMSIS/Include/cmsis_gcc.h ****   #pragma GCC diagnostic pop
  76:Drivers/CMSIS/Include/cmsis_gcc.h ****   #define __UNALIGNED_UINT32(x)                  (((struct T_UINT32 *)(x))->v)
  77:Drivers/CMSIS/Include/cmsis_gcc.h **** #endif
  78:Drivers/CMSIS/Include/cmsis_gcc.h **** #ifndef   __UNALIGNED_UINT16_WRITE
  79:Drivers/CMSIS/Include/cmsis_gcc.h ****   #pragma GCC diagnostic push
  80:Drivers/CMSIS/Include/cmsis_gcc.h ****   #pragma GCC diagnostic ignored "-Wpacked"
  81:Drivers/CMSIS/Include/cmsis_gcc.h ****   #pragma GCC diagnostic ignored "-Wattributes"
  82:Drivers/CMSIS/Include/cmsis_gcc.h ****   __PACKED_STRUCT T_UINT16_WRITE { uint16_t v; };
  83:Drivers/CMSIS/Include/cmsis_gcc.h ****   #pragma GCC diagnostic pop
  84:Drivers/CMSIS/Include/cmsis_gcc.h ****   #define __UNALIGNED_UINT16_WRITE(addr, val)    (void)((((struct T_UINT16_WRITE *)(void *)(addr))-
  85:Drivers/CMSIS/Include/cmsis_gcc.h **** #endif
  86:Drivers/CMSIS/Include/cmsis_gcc.h **** #ifndef   __UNALIGNED_UINT16_READ
  87:Drivers/CMSIS/Include/cmsis_gcc.h ****   #pragma GCC diagnostic push
  88:Drivers/CMSIS/Include/cmsis_gcc.h ****   #pragma GCC diagnostic ignored "-Wpacked"
  89:Drivers/CMSIS/Include/cmsis_gcc.h ****   #pragma GCC diagnostic ignored "-Wattributes"
  90:Drivers/CMSIS/Include/cmsis_gcc.h ****   __PACKED_STRUCT T_UINT16_READ { uint16_t v; };
  91:Drivers/CMSIS/Include/cmsis_gcc.h ****   #pragma GCC diagnostic pop
  92:Drivers/CMSIS/Include/cmsis_gcc.h ****   #define __UNALIGNED_UINT16_READ(addr)          (((const struct T_UINT16_READ *)(const void *)(add
  93:Drivers/CMSIS/Include/cmsis_gcc.h **** #endif
  94:Drivers/CMSIS/Include/cmsis_gcc.h **** #ifndef   __UNALIGNED_UINT32_WRITE
  95:Drivers/CMSIS/Include/cmsis_gcc.h ****   #pragma GCC diagnostic push
  96:Drivers/CMSIS/Include/cmsis_gcc.h ****   #pragma GCC diagnostic ignored "-Wpacked"
  97:Drivers/CMSIS/Include/cmsis_gcc.h ****   #pragma GCC diagnostic ignored "-Wattributes"
  98:Drivers/CMSIS/Include/cmsis_gcc.h ****   __PACKED_STRUCT T_UINT32_WRITE { uint32_t v; };
  99:Drivers/CMSIS/Include/cmsis_gcc.h ****   #pragma GCC diagnostic pop
 100:Drivers/CMSIS/Include/cmsis_gcc.h ****   #define __UNALIGNED_UINT32_WRITE(addr, val)    (void)((((struct T_UINT32_WRITE *)(void *)(addr))-
ARM GAS  C:\Users\seblo\AppData\Local\Temp\ccJuvw9h.s 			page 7


 101:Drivers/CMSIS/Include/cmsis_gcc.h **** #endif
 102:Drivers/CMSIS/Include/cmsis_gcc.h **** #ifndef   __UNALIGNED_UINT32_READ
 103:Drivers/CMSIS/Include/cmsis_gcc.h ****   #pragma GCC diagnostic push
 104:Drivers/CMSIS/Include/cmsis_gcc.h ****   #pragma GCC diagnostic ignored "-Wpacked"
 105:Drivers/CMSIS/Include/cmsis_gcc.h ****   #pragma GCC diagnostic ignored "-Wattributes"
 106:Drivers/CMSIS/Include/cmsis_gcc.h ****   __PACKED_STRUCT T_UINT32_READ { uint32_t v; };
 107:Drivers/CMSIS/Include/cmsis_gcc.h ****   #pragma GCC diagnostic pop
 108:Drivers/CMSIS/Include/cmsis_gcc.h ****   #define __UNALIGNED_UINT32_READ(addr)          (((const struct T_UINT32_READ *)(const void *)(add
 109:Drivers/CMSIS/Include/cmsis_gcc.h **** #endif
 110:Drivers/CMSIS/Include/cmsis_gcc.h **** #ifndef   __ALIGNED
 111:Drivers/CMSIS/Include/cmsis_gcc.h ****   #define __ALIGNED(x)                           __attribute__((aligned(x)))
 112:Drivers/CMSIS/Include/cmsis_gcc.h **** #endif
 113:Drivers/CMSIS/Include/cmsis_gcc.h **** #ifndef   __RESTRICT
 114:Drivers/CMSIS/Include/cmsis_gcc.h ****   #define __RESTRICT                             __restrict
 115:Drivers/CMSIS/Include/cmsis_gcc.h **** #endif
 116:Drivers/CMSIS/Include/cmsis_gcc.h **** 
 117:Drivers/CMSIS/Include/cmsis_gcc.h **** 
 118:Drivers/CMSIS/Include/cmsis_gcc.h **** /* ###########################  Core Function Access  ########################### */
 119:Drivers/CMSIS/Include/cmsis_gcc.h **** /** \ingroup  CMSIS_Core_FunctionInterface
 120:Drivers/CMSIS/Include/cmsis_gcc.h ****     \defgroup CMSIS_Core_RegAccFunctions CMSIS Core Register Access Functions
 121:Drivers/CMSIS/Include/cmsis_gcc.h ****   @{
 122:Drivers/CMSIS/Include/cmsis_gcc.h ****  */
 123:Drivers/CMSIS/Include/cmsis_gcc.h **** 
 124:Drivers/CMSIS/Include/cmsis_gcc.h **** /**
 125:Drivers/CMSIS/Include/cmsis_gcc.h ****   \brief   Enable IRQ Interrupts
 126:Drivers/CMSIS/Include/cmsis_gcc.h ****   \details Enables IRQ interrupts by clearing the I-bit in the CPSR.
 127:Drivers/CMSIS/Include/cmsis_gcc.h ****            Can only be executed in Privileged modes.
 128:Drivers/CMSIS/Include/cmsis_gcc.h ****  */
 129:Drivers/CMSIS/Include/cmsis_gcc.h **** __STATIC_FORCEINLINE void __enable_irq(void)
 130:Drivers/CMSIS/Include/cmsis_gcc.h **** {
 131:Drivers/CMSIS/Include/cmsis_gcc.h ****   __ASM volatile ("cpsie i" : : : "memory");
 132:Drivers/CMSIS/Include/cmsis_gcc.h **** }
 133:Drivers/CMSIS/Include/cmsis_gcc.h **** 
 134:Drivers/CMSIS/Include/cmsis_gcc.h **** 
 135:Drivers/CMSIS/Include/cmsis_gcc.h **** /**
 136:Drivers/CMSIS/Include/cmsis_gcc.h ****   \brief   Disable IRQ Interrupts
 137:Drivers/CMSIS/Include/cmsis_gcc.h ****   \details Disables IRQ interrupts by setting the I-bit in the CPSR.
 138:Drivers/CMSIS/Include/cmsis_gcc.h ****            Can only be executed in Privileged modes.
 139:Drivers/CMSIS/Include/cmsis_gcc.h ****  */
 140:Drivers/CMSIS/Include/cmsis_gcc.h **** __STATIC_FORCEINLINE void __disable_irq(void)
 141:Drivers/CMSIS/Include/cmsis_gcc.h **** {
 142:Drivers/CMSIS/Include/cmsis_gcc.h ****   __ASM volatile ("cpsid i" : : : "memory");
 143:Drivers/CMSIS/Include/cmsis_gcc.h **** }
 144:Drivers/CMSIS/Include/cmsis_gcc.h **** 
 145:Drivers/CMSIS/Include/cmsis_gcc.h **** 
 146:Drivers/CMSIS/Include/cmsis_gcc.h **** /**
 147:Drivers/CMSIS/Include/cmsis_gcc.h ****   \brief   Get Control Register
 148:Drivers/CMSIS/Include/cmsis_gcc.h ****   \details Returns the content of the Control Register.
 149:Drivers/CMSIS/Include/cmsis_gcc.h ****   \return               Control Register value
 150:Drivers/CMSIS/Include/cmsis_gcc.h ****  */
 151:Drivers/CMSIS/Include/cmsis_gcc.h **** __STATIC_FORCEINLINE uint32_t __get_CONTROL(void)
 152:Drivers/CMSIS/Include/cmsis_gcc.h **** {
 153:Drivers/CMSIS/Include/cmsis_gcc.h ****   uint32_t result;
 154:Drivers/CMSIS/Include/cmsis_gcc.h **** 
 155:Drivers/CMSIS/Include/cmsis_gcc.h ****   __ASM volatile ("MRS %0, control" : "=r" (result) );
 156:Drivers/CMSIS/Include/cmsis_gcc.h ****   return(result);
 157:Drivers/CMSIS/Include/cmsis_gcc.h **** }
ARM GAS  C:\Users\seblo\AppData\Local\Temp\ccJuvw9h.s 			page 8


 158:Drivers/CMSIS/Include/cmsis_gcc.h **** 
 159:Drivers/CMSIS/Include/cmsis_gcc.h **** 
 160:Drivers/CMSIS/Include/cmsis_gcc.h **** #if (defined (__ARM_FEATURE_CMSE ) && (__ARM_FEATURE_CMSE == 3))
 161:Drivers/CMSIS/Include/cmsis_gcc.h **** /**
 162:Drivers/CMSIS/Include/cmsis_gcc.h ****   \brief   Get Control Register (non-secure)
 163:Drivers/CMSIS/Include/cmsis_gcc.h ****   \details Returns the content of the non-secure Control Register when in secure mode.
 164:Drivers/CMSIS/Include/cmsis_gcc.h ****   \return               non-secure Control Register value
 165:Drivers/CMSIS/Include/cmsis_gcc.h ****  */
 166:Drivers/CMSIS/Include/cmsis_gcc.h **** __STATIC_FORCEINLINE uint32_t __TZ_get_CONTROL_NS(void)
 167:Drivers/CMSIS/Include/cmsis_gcc.h **** {
 168:Drivers/CMSIS/Include/cmsis_gcc.h ****   uint32_t result;
 169:Drivers/CMSIS/Include/cmsis_gcc.h **** 
 170:Drivers/CMSIS/Include/cmsis_gcc.h ****   __ASM volatile ("MRS %0, control_ns" : "=r" (result) );
 171:Drivers/CMSIS/Include/cmsis_gcc.h ****   return(result);
 172:Drivers/CMSIS/Include/cmsis_gcc.h **** }
 173:Drivers/CMSIS/Include/cmsis_gcc.h **** #endif
 174:Drivers/CMSIS/Include/cmsis_gcc.h **** 
 175:Drivers/CMSIS/Include/cmsis_gcc.h **** 
 176:Drivers/CMSIS/Include/cmsis_gcc.h **** /**
 177:Drivers/CMSIS/Include/cmsis_gcc.h ****   \brief   Set Control Register
 178:Drivers/CMSIS/Include/cmsis_gcc.h ****   \details Writes the given value to the Control Register.
 179:Drivers/CMSIS/Include/cmsis_gcc.h ****   \param [in]    control  Control Register value to set
 180:Drivers/CMSIS/Include/cmsis_gcc.h ****  */
 181:Drivers/CMSIS/Include/cmsis_gcc.h **** __STATIC_FORCEINLINE void __set_CONTROL(uint32_t control)
 182:Drivers/CMSIS/Include/cmsis_gcc.h **** {
 183:Drivers/CMSIS/Include/cmsis_gcc.h ****   __ASM volatile ("MSR control, %0" : : "r" (control) : "memory");
 184:Drivers/CMSIS/Include/cmsis_gcc.h **** }
 185:Drivers/CMSIS/Include/cmsis_gcc.h **** 
 186:Drivers/CMSIS/Include/cmsis_gcc.h **** 
 187:Drivers/CMSIS/Include/cmsis_gcc.h **** #if (defined (__ARM_FEATURE_CMSE ) && (__ARM_FEATURE_CMSE == 3))
 188:Drivers/CMSIS/Include/cmsis_gcc.h **** /**
 189:Drivers/CMSIS/Include/cmsis_gcc.h ****   \brief   Set Control Register (non-secure)
 190:Drivers/CMSIS/Include/cmsis_gcc.h ****   \details Writes the given value to the non-secure Control Register when in secure state.
 191:Drivers/CMSIS/Include/cmsis_gcc.h ****   \param [in]    control  Control Register value to set
 192:Drivers/CMSIS/Include/cmsis_gcc.h ****  */
 193:Drivers/CMSIS/Include/cmsis_gcc.h **** __STATIC_FORCEINLINE void __TZ_set_CONTROL_NS(uint32_t control)
 194:Drivers/CMSIS/Include/cmsis_gcc.h **** {
 195:Drivers/CMSIS/Include/cmsis_gcc.h ****   __ASM volatile ("MSR control_ns, %0" : : "r" (control) : "memory");
 196:Drivers/CMSIS/Include/cmsis_gcc.h **** }
 197:Drivers/CMSIS/Include/cmsis_gcc.h **** #endif
 198:Drivers/CMSIS/Include/cmsis_gcc.h **** 
 199:Drivers/CMSIS/Include/cmsis_gcc.h **** 
 200:Drivers/CMSIS/Include/cmsis_gcc.h **** /**
 201:Drivers/CMSIS/Include/cmsis_gcc.h ****   \brief   Get IPSR Register
 202:Drivers/CMSIS/Include/cmsis_gcc.h ****   \details Returns the content of the IPSR Register.
 203:Drivers/CMSIS/Include/cmsis_gcc.h ****   \return               IPSR Register value
 204:Drivers/CMSIS/Include/cmsis_gcc.h ****  */
 205:Drivers/CMSIS/Include/cmsis_gcc.h **** __STATIC_FORCEINLINE uint32_t __get_IPSR(void)
 114              		.loc 2 205 31 view .LVU23
 115              	.LBB9:
 206:Drivers/CMSIS/Include/cmsis_gcc.h **** {
 207:Drivers/CMSIS/Include/cmsis_gcc.h ****   uint32_t result;
 116              		.loc 2 207 3 view .LVU24
 208:Drivers/CMSIS/Include/cmsis_gcc.h **** 
 209:Drivers/CMSIS/Include/cmsis_gcc.h ****   __ASM volatile ("MRS %0, ipsr" : "=r" (result) );
 117              		.loc 2 209 3 view .LVU25
 118              		.syntax unified
ARM GAS  C:\Users\seblo\AppData\Local\Temp\ccJuvw9h.s 			page 9


 119              	@ 209 "Drivers/CMSIS/Include/cmsis_gcc.h" 1
 120 0000 EFF30580 		MRS r0, ipsr
 121              	@ 0 "" 2
 122              	.LVL9:
 210:Drivers/CMSIS/Include/cmsis_gcc.h ****   return(result);
 123              		.loc 2 210 3 view .LVU26
 124              		.loc 2 210 3 is_stmt 0 view .LVU27
 125              		.thumb
 126              		.syntax unified
 127              	.LBE9:
 128              	.LBE8:
 133:Middlewares/Third_Party/FreeRTOS/Source/CMSIS_RTOS/cmsis_os.c **** }
 129              		.loc 1 133 1 view .LVU28
 130 0004 0038     		subs	r0, r0, #0
 131 0006 18BF     		it	ne
 132 0008 0120     		movne	r0, #1
 133 000a 7047     		bx	lr
 134              		.cfi_endproc
 135              	.LFE109:
 137              		.section	.text.osKernelStart,"ax",%progbits
 138              		.align	1
 139              		.global	osKernelStart
 140              		.syntax unified
 141              		.thumb
 142              		.thumb_func
 143              		.fpu fpv5-sp-d16
 145              	osKernelStart:
 146              	.LFB110:
 134:Middlewares/Third_Party/FreeRTOS/Source/CMSIS_RTOS/cmsis_os.c **** 
 135:Middlewares/Third_Party/FreeRTOS/Source/CMSIS_RTOS/cmsis_os.c **** /*********************** Kernel Control Functions *****************************/
 136:Middlewares/Third_Party/FreeRTOS/Source/CMSIS_RTOS/cmsis_os.c **** /**
 137:Middlewares/Third_Party/FreeRTOS/Source/CMSIS_RTOS/cmsis_os.c **** * @brief  Initialize the RTOS Kernel for creating objects.
 138:Middlewares/Third_Party/FreeRTOS/Source/CMSIS_RTOS/cmsis_os.c **** * @retval status code that indicates the execution status of the function.
 139:Middlewares/Third_Party/FreeRTOS/Source/CMSIS_RTOS/cmsis_os.c **** * @note   MUST REMAIN UNCHANGED: \b osKernelInitialize shall be consistent in every CMSIS-RTOS.
 140:Middlewares/Third_Party/FreeRTOS/Source/CMSIS_RTOS/cmsis_os.c **** */
 141:Middlewares/Third_Party/FreeRTOS/Source/CMSIS_RTOS/cmsis_os.c **** osStatus osKernelInitialize (void);
 142:Middlewares/Third_Party/FreeRTOS/Source/CMSIS_RTOS/cmsis_os.c **** 
 143:Middlewares/Third_Party/FreeRTOS/Source/CMSIS_RTOS/cmsis_os.c **** /**
 144:Middlewares/Third_Party/FreeRTOS/Source/CMSIS_RTOS/cmsis_os.c **** * @brief  Start the RTOS Kernel with executing the specified thread.
 145:Middlewares/Third_Party/FreeRTOS/Source/CMSIS_RTOS/cmsis_os.c **** * @param  thread_def    thread definition referenced with \ref osThread.
 146:Middlewares/Third_Party/FreeRTOS/Source/CMSIS_RTOS/cmsis_os.c **** * @param  argument      pointer that is passed to the thread function as start argument.
 147:Middlewares/Third_Party/FreeRTOS/Source/CMSIS_RTOS/cmsis_os.c **** * @retval status code that indicates the execution status of the function
 148:Middlewares/Third_Party/FreeRTOS/Source/CMSIS_RTOS/cmsis_os.c **** * @note   MUST REMAIN UNCHANGED: \b osKernelStart shall be consistent in every CMSIS-RTOS.
 149:Middlewares/Third_Party/FreeRTOS/Source/CMSIS_RTOS/cmsis_os.c **** */
 150:Middlewares/Third_Party/FreeRTOS/Source/CMSIS_RTOS/cmsis_os.c **** osStatus osKernelStart (void)
 151:Middlewares/Third_Party/FreeRTOS/Source/CMSIS_RTOS/cmsis_os.c **** {
 147              		.loc 1 151 1 is_stmt 1 view -0
 148              		.cfi_startproc
 149              		@ args = 0, pretend = 0, frame = 0
 150              		@ frame_needed = 0, uses_anonymous_args = 0
 151 0000 08B5     		push	{r3, lr}
 152              	.LCFI0:
 153              		.cfi_def_cfa_offset 8
 154              		.cfi_offset 3, -8
 155              		.cfi_offset 14, -4
 152:Middlewares/Third_Party/FreeRTOS/Source/CMSIS_RTOS/cmsis_os.c ****   vTaskStartScheduler();
 156              		.loc 1 152 3 view .LVU30
ARM GAS  C:\Users\seblo\AppData\Local\Temp\ccJuvw9h.s 			page 10


 157 0002 FFF7FEFF 		bl	vTaskStartScheduler
 158              	.LVL10:
 153:Middlewares/Third_Party/FreeRTOS/Source/CMSIS_RTOS/cmsis_os.c ****   
 154:Middlewares/Third_Party/FreeRTOS/Source/CMSIS_RTOS/cmsis_os.c ****   return osOK;
 159              		.loc 1 154 3 view .LVU31
 155:Middlewares/Third_Party/FreeRTOS/Source/CMSIS_RTOS/cmsis_os.c **** }
 160              		.loc 1 155 1 is_stmt 0 view .LVU32
 161 0006 0020     		movs	r0, #0
 162 0008 08BD     		pop	{r3, pc}
 163              		.cfi_endproc
 164              	.LFE110:
 166              		.section	.text.osKernelRunning,"ax",%progbits
 167              		.align	1
 168              		.global	osKernelRunning
 169              		.syntax unified
 170              		.thumb
 171              		.thumb_func
 172              		.fpu fpv5-sp-d16
 174              	osKernelRunning:
 175              	.LFB111:
 156:Middlewares/Third_Party/FreeRTOS/Source/CMSIS_RTOS/cmsis_os.c **** 
 157:Middlewares/Third_Party/FreeRTOS/Source/CMSIS_RTOS/cmsis_os.c **** /**
 158:Middlewares/Third_Party/FreeRTOS/Source/CMSIS_RTOS/cmsis_os.c **** * @brief  Check if the RTOS kernel is already started
 159:Middlewares/Third_Party/FreeRTOS/Source/CMSIS_RTOS/cmsis_os.c **** * @param  None
 160:Middlewares/Third_Party/FreeRTOS/Source/CMSIS_RTOS/cmsis_os.c **** * @retval (0) RTOS is not started
 161:Middlewares/Third_Party/FreeRTOS/Source/CMSIS_RTOS/cmsis_os.c **** *         (1) RTOS is started
 162:Middlewares/Third_Party/FreeRTOS/Source/CMSIS_RTOS/cmsis_os.c **** *         (-1) if this feature is disabled in FreeRTOSConfig.h 
 163:Middlewares/Third_Party/FreeRTOS/Source/CMSIS_RTOS/cmsis_os.c **** * @note  MUST REMAIN UNCHANGED: \b osKernelRunning shall be consistent in every CMSIS-RTOS.
 164:Middlewares/Third_Party/FreeRTOS/Source/CMSIS_RTOS/cmsis_os.c **** */
 165:Middlewares/Third_Party/FreeRTOS/Source/CMSIS_RTOS/cmsis_os.c **** int32_t osKernelRunning(void)
 166:Middlewares/Third_Party/FreeRTOS/Source/CMSIS_RTOS/cmsis_os.c **** {
 176              		.loc 1 166 1 is_stmt 1 view -0
 177              		.cfi_startproc
 178              		@ args = 0, pretend = 0, frame = 0
 179              		@ frame_needed = 0, uses_anonymous_args = 0
 180 0000 08B5     		push	{r3, lr}
 181              	.LCFI1:
 182              		.cfi_def_cfa_offset 8
 183              		.cfi_offset 3, -8
 184              		.cfi_offset 14, -4
 167:Middlewares/Third_Party/FreeRTOS/Source/CMSIS_RTOS/cmsis_os.c **** #if ( ( INCLUDE_xTaskGetSchedulerState == 1 ) || ( configUSE_TIMERS == 1 ) )
 168:Middlewares/Third_Party/FreeRTOS/Source/CMSIS_RTOS/cmsis_os.c ****   if (xTaskGetSchedulerState() == taskSCHEDULER_NOT_STARTED)
 185              		.loc 1 168 3 view .LVU34
 186              		.loc 1 168 7 is_stmt 0 view .LVU35
 187 0002 FFF7FEFF 		bl	xTaskGetSchedulerState
 188              	.LVL11:
 189              		.loc 1 168 6 view .LVU36
 190 0006 0128     		cmp	r0, #1
 191 0008 01D0     		beq	.L14
 169:Middlewares/Third_Party/FreeRTOS/Source/CMSIS_RTOS/cmsis_os.c ****     return 0;
 170:Middlewares/Third_Party/FreeRTOS/Source/CMSIS_RTOS/cmsis_os.c ****   else
 171:Middlewares/Third_Party/FreeRTOS/Source/CMSIS_RTOS/cmsis_os.c ****     return 1;
 192              		.loc 1 171 12 view .LVU37
 193 000a 0120     		movs	r0, #1
 194              	.L10:
 172:Middlewares/Third_Party/FreeRTOS/Source/CMSIS_RTOS/cmsis_os.c **** #else
 173:Middlewares/Third_Party/FreeRTOS/Source/CMSIS_RTOS/cmsis_os.c **** 	return (-1);
ARM GAS  C:\Users\seblo\AppData\Local\Temp\ccJuvw9h.s 			page 11


 174:Middlewares/Third_Party/FreeRTOS/Source/CMSIS_RTOS/cmsis_os.c **** #endif	
 175:Middlewares/Third_Party/FreeRTOS/Source/CMSIS_RTOS/cmsis_os.c **** }
 195              		.loc 1 175 1 view .LVU38
 196 000c 08BD     		pop	{r3, pc}
 197              	.L14:
 169:Middlewares/Third_Party/FreeRTOS/Source/CMSIS_RTOS/cmsis_os.c ****     return 0;
 198              		.loc 1 169 12 view .LVU39
 199 000e 0020     		movs	r0, #0
 200 0010 FCE7     		b	.L10
 201              		.cfi_endproc
 202              	.LFE111:
 204              		.section	.text.osKernelSysTick,"ax",%progbits
 205              		.align	1
 206              		.global	osKernelSysTick
 207              		.syntax unified
 208              		.thumb
 209              		.thumb_func
 210              		.fpu fpv5-sp-d16
 212              	osKernelSysTick:
 213              	.LFB112:
 176:Middlewares/Third_Party/FreeRTOS/Source/CMSIS_RTOS/cmsis_os.c **** 
 177:Middlewares/Third_Party/FreeRTOS/Source/CMSIS_RTOS/cmsis_os.c **** #if (defined (osFeature_SysTick)  &&  (osFeature_SysTick != 0))     // System Timer available
 178:Middlewares/Third_Party/FreeRTOS/Source/CMSIS_RTOS/cmsis_os.c **** /**
 179:Middlewares/Third_Party/FreeRTOS/Source/CMSIS_RTOS/cmsis_os.c **** * @brief  Get the value of the Kernel SysTick timer
 180:Middlewares/Third_Party/FreeRTOS/Source/CMSIS_RTOS/cmsis_os.c **** * @param  None
 181:Middlewares/Third_Party/FreeRTOS/Source/CMSIS_RTOS/cmsis_os.c **** * @retval None
 182:Middlewares/Third_Party/FreeRTOS/Source/CMSIS_RTOS/cmsis_os.c **** * @note   MUST REMAIN UNCHANGED: \b osKernelSysTick shall be consistent in every CMSIS-RTOS.
 183:Middlewares/Third_Party/FreeRTOS/Source/CMSIS_RTOS/cmsis_os.c **** */
 184:Middlewares/Third_Party/FreeRTOS/Source/CMSIS_RTOS/cmsis_os.c **** uint32_t osKernelSysTick(void)
 185:Middlewares/Third_Party/FreeRTOS/Source/CMSIS_RTOS/cmsis_os.c **** {
 214              		.loc 1 185 1 is_stmt 1 view -0
 215              		.cfi_startproc
 216              		@ args = 0, pretend = 0, frame = 0
 217              		@ frame_needed = 0, uses_anonymous_args = 0
 218 0000 08B5     		push	{r3, lr}
 219              	.LCFI2:
 220              		.cfi_def_cfa_offset 8
 221              		.cfi_offset 3, -8
 222              		.cfi_offset 14, -4
 186:Middlewares/Third_Party/FreeRTOS/Source/CMSIS_RTOS/cmsis_os.c ****   if (inHandlerMode()) {
 223              		.loc 1 186 3 view .LVU41
 224              		.loc 1 186 7 is_stmt 0 view .LVU42
 225 0002 FFF7FEFF 		bl	inHandlerMode
 226              	.LVL12:
 227              		.loc 1 186 6 view .LVU43
 228 0006 10B1     		cbz	r0, .L16
 187:Middlewares/Third_Party/FreeRTOS/Source/CMSIS_RTOS/cmsis_os.c ****     return xTaskGetTickCountFromISR();
 229              		.loc 1 187 5 is_stmt 1 view .LVU44
 230              		.loc 1 187 12 is_stmt 0 view .LVU45
 231 0008 FFF7FEFF 		bl	xTaskGetTickCountFromISR
 232              	.LVL13:
 233              	.L15:
 188:Middlewares/Third_Party/FreeRTOS/Source/CMSIS_RTOS/cmsis_os.c ****   }
 189:Middlewares/Third_Party/FreeRTOS/Source/CMSIS_RTOS/cmsis_os.c ****   else {
 190:Middlewares/Third_Party/FreeRTOS/Source/CMSIS_RTOS/cmsis_os.c ****     return xTaskGetTickCount();
 191:Middlewares/Third_Party/FreeRTOS/Source/CMSIS_RTOS/cmsis_os.c ****   }
 192:Middlewares/Third_Party/FreeRTOS/Source/CMSIS_RTOS/cmsis_os.c **** }
ARM GAS  C:\Users\seblo\AppData\Local\Temp\ccJuvw9h.s 			page 12


 234              		.loc 1 192 1 view .LVU46
 235 000c 08BD     		pop	{r3, pc}
 236              	.L16:
 190:Middlewares/Third_Party/FreeRTOS/Source/CMSIS_RTOS/cmsis_os.c ****   }
 237              		.loc 1 190 5 is_stmt 1 view .LVU47
 190:Middlewares/Third_Party/FreeRTOS/Source/CMSIS_RTOS/cmsis_os.c ****   }
 238              		.loc 1 190 12 is_stmt 0 view .LVU48
 239 000e FFF7FEFF 		bl	xTaskGetTickCount
 240              	.LVL14:
 241 0012 FBE7     		b	.L15
 242              		.cfi_endproc
 243              	.LFE112:
 245              		.section	.text.osThreadCreate,"ax",%progbits
 246              		.align	1
 247              		.global	osThreadCreate
 248              		.syntax unified
 249              		.thumb
 250              		.thumb_func
 251              		.fpu fpv5-sp-d16
 253              	osThreadCreate:
 254              	.LVL15:
 255              	.LFB113:
 193:Middlewares/Third_Party/FreeRTOS/Source/CMSIS_RTOS/cmsis_os.c **** #endif    // System Timer available
 194:Middlewares/Third_Party/FreeRTOS/Source/CMSIS_RTOS/cmsis_os.c **** /*********************** Thread Management *****************************/
 195:Middlewares/Third_Party/FreeRTOS/Source/CMSIS_RTOS/cmsis_os.c **** /**
 196:Middlewares/Third_Party/FreeRTOS/Source/CMSIS_RTOS/cmsis_os.c **** * @brief  Create a thread and add it to Active Threads and set it to state READY.
 197:Middlewares/Third_Party/FreeRTOS/Source/CMSIS_RTOS/cmsis_os.c **** * @param  thread_def    thread definition referenced with \ref osThread.
 198:Middlewares/Third_Party/FreeRTOS/Source/CMSIS_RTOS/cmsis_os.c **** * @param  argument      pointer that is passed to the thread function as start argument.
 199:Middlewares/Third_Party/FreeRTOS/Source/CMSIS_RTOS/cmsis_os.c **** * @retval thread ID for reference by other functions or NULL in case of error.
 200:Middlewares/Third_Party/FreeRTOS/Source/CMSIS_RTOS/cmsis_os.c **** * @note   MUST REMAIN UNCHANGED: \b osThreadCreate shall be consistent in every CMSIS-RTOS.
 201:Middlewares/Third_Party/FreeRTOS/Source/CMSIS_RTOS/cmsis_os.c **** */
 202:Middlewares/Third_Party/FreeRTOS/Source/CMSIS_RTOS/cmsis_os.c **** osThreadId osThreadCreate (const osThreadDef_t *thread_def, void *argument)
 203:Middlewares/Third_Party/FreeRTOS/Source/CMSIS_RTOS/cmsis_os.c **** {
 256              		.loc 1 203 1 is_stmt 1 view -0
 257              		.cfi_startproc
 258              		@ args = 0, pretend = 0, frame = 8
 259              		@ frame_needed = 0, uses_anonymous_args = 0
 260              		.loc 1 203 1 is_stmt 0 view .LVU50
 261 0000 2DE9F043 		push	{r4, r5, r6, r7, r8, r9, lr}
 262              	.LCFI3:
 263              		.cfi_def_cfa_offset 28
 264              		.cfi_offset 4, -28
 265              		.cfi_offset 5, -24
 266              		.cfi_offset 6, -20
 267              		.cfi_offset 7, -16
 268              		.cfi_offset 8, -12
 269              		.cfi_offset 9, -8
 270              		.cfi_offset 14, -4
 271 0004 87B0     		sub	sp, sp, #28
 272              	.LCFI4:
 273              		.cfi_def_cfa_offset 56
 274 0006 0446     		mov	r4, r0
 275 0008 0F46     		mov	r7, r1
 204:Middlewares/Third_Party/FreeRTOS/Source/CMSIS_RTOS/cmsis_os.c ****   TaskHandle_t handle;
 276              		.loc 1 204 3 is_stmt 1 view .LVU51
 205:Middlewares/Third_Party/FreeRTOS/Source/CMSIS_RTOS/cmsis_os.c ****   
 206:Middlewares/Third_Party/FreeRTOS/Source/CMSIS_RTOS/cmsis_os.c **** #if( configSUPPORT_STATIC_ALLOCATION == 1 ) &&  ( configSUPPORT_DYNAMIC_ALLOCATION == 1 )
ARM GAS  C:\Users\seblo\AppData\Local\Temp\ccJuvw9h.s 			page 13


 207:Middlewares/Third_Party/FreeRTOS/Source/CMSIS_RTOS/cmsis_os.c ****   if((thread_def->buffer != NULL) && (thread_def->controlblock != NULL)) {
 277              		.loc 1 207 3 view .LVU52
 278              		.loc 1 207 17 is_stmt 0 view .LVU53
 279 000a 4569     		ldr	r5, [r0, #20]
 280              		.loc 1 207 5 view .LVU54
 281 000c BDB1     		cbz	r5, .L20
 282              		.loc 1 207 49 discriminator 1 view .LVU55
 283 000e 8669     		ldr	r6, [r0, #24]
 284              		.loc 1 207 35 discriminator 1 view .LVU56
 285 0010 AEB1     		cbz	r6, .L20
 208:Middlewares/Third_Party/FreeRTOS/Source/CMSIS_RTOS/cmsis_os.c ****     handle = xTaskCreateStatic((TaskFunction_t)thread_def->pthread,(const portCHAR *)thread_def->na
 286              		.loc 1 208 5 is_stmt 1 view .LVU57
 287              		.loc 1 208 58 is_stmt 0 view .LVU58
 288 0012 D0F80480 		ldr	r8, [r0, #4]
 289              		.loc 1 208 96 view .LVU59
 290 0016 D0F80090 		ldr	r9, [r0]
 291              		.loc 1 208 14 view .LVU60
 292 001a B0F90800 		ldrsh	r0, [r0, #8]
 293              	.LVL16:
 294              		.loc 1 208 14 view .LVU61
 295 001e FFF7FEFF 		bl	makeFreeRtosPriority
 296              	.LVL17:
 297              		.loc 1 208 14 view .LVU62
 298 0022 0296     		str	r6, [sp, #8]
 299 0024 0195     		str	r5, [sp, #4]
 300 0026 0090     		str	r0, [sp]
 301 0028 3B46     		mov	r3, r7
 302 002a 2269     		ldr	r2, [r4, #16]
 303 002c 4946     		mov	r1, r9
 304 002e 4046     		mov	r0, r8
 305 0030 FFF7FEFF 		bl	xTaskCreateStatic
 306              	.LVL18:
 307              		.loc 1 208 12 view .LVU63
 308 0034 0590     		str	r0, [sp, #20]
 309              	.L21:
 209:Middlewares/Third_Party/FreeRTOS/Source/CMSIS_RTOS/cmsis_os.c ****               thread_def->stacksize, argument, makeFreeRtosPriority(thread_def->tpriority),
 210:Middlewares/Third_Party/FreeRTOS/Source/CMSIS_RTOS/cmsis_os.c ****               thread_def->buffer, thread_def->controlblock);
 211:Middlewares/Third_Party/FreeRTOS/Source/CMSIS_RTOS/cmsis_os.c ****   }
 212:Middlewares/Third_Party/FreeRTOS/Source/CMSIS_RTOS/cmsis_os.c ****   else {
 213:Middlewares/Third_Party/FreeRTOS/Source/CMSIS_RTOS/cmsis_os.c ****     if (xTaskCreate((TaskFunction_t)thread_def->pthread,(const portCHAR *)thread_def->name,
 214:Middlewares/Third_Party/FreeRTOS/Source/CMSIS_RTOS/cmsis_os.c ****               thread_def->stacksize, argument, makeFreeRtosPriority(thread_def->tpriority),
 215:Middlewares/Third_Party/FreeRTOS/Source/CMSIS_RTOS/cmsis_os.c ****               &handle) != pdPASS)  {
 216:Middlewares/Third_Party/FreeRTOS/Source/CMSIS_RTOS/cmsis_os.c ****       return NULL;
 217:Middlewares/Third_Party/FreeRTOS/Source/CMSIS_RTOS/cmsis_os.c ****     } 
 218:Middlewares/Third_Party/FreeRTOS/Source/CMSIS_RTOS/cmsis_os.c ****   }
 219:Middlewares/Third_Party/FreeRTOS/Source/CMSIS_RTOS/cmsis_os.c **** #elif( configSUPPORT_STATIC_ALLOCATION == 1 )
 220:Middlewares/Third_Party/FreeRTOS/Source/CMSIS_RTOS/cmsis_os.c **** 
 221:Middlewares/Third_Party/FreeRTOS/Source/CMSIS_RTOS/cmsis_os.c ****     handle = xTaskCreateStatic((TaskFunction_t)thread_def->pthread,(const portCHAR *)thread_def->na
 222:Middlewares/Third_Party/FreeRTOS/Source/CMSIS_RTOS/cmsis_os.c ****               thread_def->stacksize, argument, makeFreeRtosPriority(thread_def->tpriority),
 223:Middlewares/Third_Party/FreeRTOS/Source/CMSIS_RTOS/cmsis_os.c ****               thread_def->buffer, thread_def->controlblock);
 224:Middlewares/Third_Party/FreeRTOS/Source/CMSIS_RTOS/cmsis_os.c **** #else
 225:Middlewares/Third_Party/FreeRTOS/Source/CMSIS_RTOS/cmsis_os.c ****   if (xTaskCreate((TaskFunction_t)thread_def->pthread,(const portCHAR *)thread_def->name,
 226:Middlewares/Third_Party/FreeRTOS/Source/CMSIS_RTOS/cmsis_os.c ****                    thread_def->stacksize, argument, makeFreeRtosPriority(thread_def->tpriority),
 227:Middlewares/Third_Party/FreeRTOS/Source/CMSIS_RTOS/cmsis_os.c ****                    &handle) != pdPASS)  {
 228:Middlewares/Third_Party/FreeRTOS/Source/CMSIS_RTOS/cmsis_os.c ****     return NULL;
 229:Middlewares/Third_Party/FreeRTOS/Source/CMSIS_RTOS/cmsis_os.c ****   }     
 230:Middlewares/Third_Party/FreeRTOS/Source/CMSIS_RTOS/cmsis_os.c **** #endif
ARM GAS  C:\Users\seblo\AppData\Local\Temp\ccJuvw9h.s 			page 14


 231:Middlewares/Third_Party/FreeRTOS/Source/CMSIS_RTOS/cmsis_os.c ****   
 232:Middlewares/Third_Party/FreeRTOS/Source/CMSIS_RTOS/cmsis_os.c ****   return handle;
 310              		.loc 1 232 3 is_stmt 1 view .LVU64
 311              		.loc 1 232 10 is_stmt 0 view .LVU65
 312 0036 0598     		ldr	r0, [sp, #20]
 313              	.L19:
 233:Middlewares/Third_Party/FreeRTOS/Source/CMSIS_RTOS/cmsis_os.c **** }
 314              		.loc 1 233 1 view .LVU66
 315 0038 07B0     		add	sp, sp, #28
 316              	.LCFI5:
 317              		.cfi_remember_state
 318              		.cfi_def_cfa_offset 28
 319              		@ sp needed
 320 003a BDE8F083 		pop	{r4, r5, r6, r7, r8, r9, pc}
 321              	.LVL19:
 322              	.L20:
 323              	.LCFI6:
 324              		.cfi_restore_state
 213:Middlewares/Third_Party/FreeRTOS/Source/CMSIS_RTOS/cmsis_os.c ****               thread_def->stacksize, argument, makeFreeRtosPriority(thread_def->tpriority),
 325              		.loc 1 213 5 is_stmt 1 view .LVU67
 213:Middlewares/Third_Party/FreeRTOS/Source/CMSIS_RTOS/cmsis_os.c ****               thread_def->stacksize, argument, makeFreeRtosPriority(thread_def->tpriority),
 326              		.loc 1 213 47 is_stmt 0 view .LVU68
 327 003e 6568     		ldr	r5, [r4, #4]
 213:Middlewares/Third_Party/FreeRTOS/Source/CMSIS_RTOS/cmsis_os.c ****               thread_def->stacksize, argument, makeFreeRtosPriority(thread_def->tpriority),
 328              		.loc 1 213 85 view .LVU69
 329 0040 2668     		ldr	r6, [r4]
 214:Middlewares/Third_Party/FreeRTOS/Source/CMSIS_RTOS/cmsis_os.c ****               &handle) != pdPASS)  {
 330              		.loc 1 214 25 view .LVU70
 331 0042 D4F81080 		ldr	r8, [r4, #16]
 213:Middlewares/Third_Party/FreeRTOS/Source/CMSIS_RTOS/cmsis_os.c ****               thread_def->stacksize, argument, makeFreeRtosPriority(thread_def->tpriority),
 332              		.loc 1 213 9 view .LVU71
 333 0046 B4F90800 		ldrsh	r0, [r4, #8]
 334              	.LVL20:
 213:Middlewares/Third_Party/FreeRTOS/Source/CMSIS_RTOS/cmsis_os.c ****               thread_def->stacksize, argument, makeFreeRtosPriority(thread_def->tpriority),
 335              		.loc 1 213 9 view .LVU72
 336 004a FFF7FEFF 		bl	makeFreeRtosPriority
 337              	.LVL21:
 213:Middlewares/Third_Party/FreeRTOS/Source/CMSIS_RTOS/cmsis_os.c ****               thread_def->stacksize, argument, makeFreeRtosPriority(thread_def->tpriority),
 338              		.loc 1 213 9 view .LVU73
 339 004e 05AB     		add	r3, sp, #20
 340 0050 0193     		str	r3, [sp, #4]
 341 0052 0090     		str	r0, [sp]
 342 0054 3B46     		mov	r3, r7
 343 0056 1FFA88F2 		uxth	r2, r8
 344 005a 3146     		mov	r1, r6
 345 005c 2846     		mov	r0, r5
 346 005e FFF7FEFF 		bl	xTaskCreate
 347              	.LVL22:
 213:Middlewares/Third_Party/FreeRTOS/Source/CMSIS_RTOS/cmsis_os.c ****               thread_def->stacksize, argument, makeFreeRtosPriority(thread_def->tpriority),
 348              		.loc 1 213 8 view .LVU74
 349 0062 0128     		cmp	r0, #1
 350 0064 E7D0     		beq	.L21
 216:Middlewares/Third_Party/FreeRTOS/Source/CMSIS_RTOS/cmsis_os.c ****     } 
 351              		.loc 1 216 14 view .LVU75
 352 0066 0020     		movs	r0, #0
 353 0068 E6E7     		b	.L19
 354              		.cfi_endproc
ARM GAS  C:\Users\seblo\AppData\Local\Temp\ccJuvw9h.s 			page 15


 355              	.LFE113:
 357              		.section	.text.osThreadGetId,"ax",%progbits
 358              		.align	1
 359              		.global	osThreadGetId
 360              		.syntax unified
 361              		.thumb
 362              		.thumb_func
 363              		.fpu fpv5-sp-d16
 365              	osThreadGetId:
 366              	.LFB114:
 234:Middlewares/Third_Party/FreeRTOS/Source/CMSIS_RTOS/cmsis_os.c **** 
 235:Middlewares/Third_Party/FreeRTOS/Source/CMSIS_RTOS/cmsis_os.c **** /**
 236:Middlewares/Third_Party/FreeRTOS/Source/CMSIS_RTOS/cmsis_os.c **** * @brief  Return the thread ID of the current running thread.
 237:Middlewares/Third_Party/FreeRTOS/Source/CMSIS_RTOS/cmsis_os.c **** * @retval thread ID for reference by other functions or NULL in case of error.
 238:Middlewares/Third_Party/FreeRTOS/Source/CMSIS_RTOS/cmsis_os.c **** * @note   MUST REMAIN UNCHANGED: \b osThreadGetId shall be consistent in every CMSIS-RTOS.
 239:Middlewares/Third_Party/FreeRTOS/Source/CMSIS_RTOS/cmsis_os.c **** */
 240:Middlewares/Third_Party/FreeRTOS/Source/CMSIS_RTOS/cmsis_os.c **** osThreadId osThreadGetId (void)
 241:Middlewares/Third_Party/FreeRTOS/Source/CMSIS_RTOS/cmsis_os.c **** {
 367              		.loc 1 241 1 is_stmt 1 view -0
 368              		.cfi_startproc
 369              		@ args = 0, pretend = 0, frame = 0
 370              		@ frame_needed = 0, uses_anonymous_args = 0
 371 0000 08B5     		push	{r3, lr}
 372              	.LCFI7:
 373              		.cfi_def_cfa_offset 8
 374              		.cfi_offset 3, -8
 375              		.cfi_offset 14, -4
 242:Middlewares/Third_Party/FreeRTOS/Source/CMSIS_RTOS/cmsis_os.c **** #if ( ( INCLUDE_xTaskGetCurrentTaskHandle == 1 ) || ( configUSE_MUTEXES == 1 ) )
 243:Middlewares/Third_Party/FreeRTOS/Source/CMSIS_RTOS/cmsis_os.c ****   return xTaskGetCurrentTaskHandle();
 376              		.loc 1 243 3 view .LVU77
 377              		.loc 1 243 10 is_stmt 0 view .LVU78
 378 0002 FFF7FEFF 		bl	xTaskGetCurrentTaskHandle
 379              	.LVL23:
 244:Middlewares/Third_Party/FreeRTOS/Source/CMSIS_RTOS/cmsis_os.c **** #else
 245:Middlewares/Third_Party/FreeRTOS/Source/CMSIS_RTOS/cmsis_os.c **** 	return NULL;
 246:Middlewares/Third_Party/FreeRTOS/Source/CMSIS_RTOS/cmsis_os.c **** #endif
 247:Middlewares/Third_Party/FreeRTOS/Source/CMSIS_RTOS/cmsis_os.c **** }
 380              		.loc 1 247 1 view .LVU79
 381 0006 08BD     		pop	{r3, pc}
 382              		.cfi_endproc
 383              	.LFE114:
 385              		.section	.text.osThreadTerminate,"ax",%progbits
 386              		.align	1
 387              		.global	osThreadTerminate
 388              		.syntax unified
 389              		.thumb
 390              		.thumb_func
 391              		.fpu fpv5-sp-d16
 393              	osThreadTerminate:
 394              	.LVL24:
 395              	.LFB115:
 248:Middlewares/Third_Party/FreeRTOS/Source/CMSIS_RTOS/cmsis_os.c **** 
 249:Middlewares/Third_Party/FreeRTOS/Source/CMSIS_RTOS/cmsis_os.c **** /**
 250:Middlewares/Third_Party/FreeRTOS/Source/CMSIS_RTOS/cmsis_os.c **** * @brief  Terminate execution of a thread and remove it from Active Threads.
 251:Middlewares/Third_Party/FreeRTOS/Source/CMSIS_RTOS/cmsis_os.c **** * @param   thread_id   thread ID obtained by \ref osThreadCreate or \ref osThreadGetId.
 252:Middlewares/Third_Party/FreeRTOS/Source/CMSIS_RTOS/cmsis_os.c **** * @retval  status code that indicates the execution status of the function.
 253:Middlewares/Third_Party/FreeRTOS/Source/CMSIS_RTOS/cmsis_os.c **** * @note   MUST REMAIN UNCHANGED: \b osThreadTerminate shall be consistent in every CMSIS-RTOS.
ARM GAS  C:\Users\seblo\AppData\Local\Temp\ccJuvw9h.s 			page 16


 254:Middlewares/Third_Party/FreeRTOS/Source/CMSIS_RTOS/cmsis_os.c **** */
 255:Middlewares/Third_Party/FreeRTOS/Source/CMSIS_RTOS/cmsis_os.c **** osStatus osThreadTerminate (osThreadId thread_id)
 256:Middlewares/Third_Party/FreeRTOS/Source/CMSIS_RTOS/cmsis_os.c **** {
 396              		.loc 1 256 1 is_stmt 1 view -0
 397              		.cfi_startproc
 398              		@ args = 0, pretend = 0, frame = 0
 399              		@ frame_needed = 0, uses_anonymous_args = 0
 400              		.loc 1 256 1 is_stmt 0 view .LVU81
 401 0000 08B5     		push	{r3, lr}
 402              	.LCFI8:
 403              		.cfi_def_cfa_offset 8
 404              		.cfi_offset 3, -8
 405              		.cfi_offset 14, -4
 257:Middlewares/Third_Party/FreeRTOS/Source/CMSIS_RTOS/cmsis_os.c **** #if (INCLUDE_vTaskDelete == 1)
 258:Middlewares/Third_Party/FreeRTOS/Source/CMSIS_RTOS/cmsis_os.c ****   vTaskDelete(thread_id);
 406              		.loc 1 258 3 is_stmt 1 view .LVU82
 407 0002 FFF7FEFF 		bl	vTaskDelete
 408              	.LVL25:
 259:Middlewares/Third_Party/FreeRTOS/Source/CMSIS_RTOS/cmsis_os.c ****   return osOK;
 409              		.loc 1 259 3 view .LVU83
 260:Middlewares/Third_Party/FreeRTOS/Source/CMSIS_RTOS/cmsis_os.c **** #else
 261:Middlewares/Third_Party/FreeRTOS/Source/CMSIS_RTOS/cmsis_os.c ****   return osErrorOS;
 262:Middlewares/Third_Party/FreeRTOS/Source/CMSIS_RTOS/cmsis_os.c **** #endif
 263:Middlewares/Third_Party/FreeRTOS/Source/CMSIS_RTOS/cmsis_os.c **** }
 410              		.loc 1 263 1 is_stmt 0 view .LVU84
 411 0006 0020     		movs	r0, #0
 412 0008 08BD     		pop	{r3, pc}
 413              		.cfi_endproc
 414              	.LFE115:
 416              		.section	.text.osThreadYield,"ax",%progbits
 417              		.align	1
 418              		.global	osThreadYield
 419              		.syntax unified
 420              		.thumb
 421              		.thumb_func
 422              		.fpu fpv5-sp-d16
 424              	osThreadYield:
 425              	.LFB116:
 264:Middlewares/Third_Party/FreeRTOS/Source/CMSIS_RTOS/cmsis_os.c **** 
 265:Middlewares/Third_Party/FreeRTOS/Source/CMSIS_RTOS/cmsis_os.c **** /**
 266:Middlewares/Third_Party/FreeRTOS/Source/CMSIS_RTOS/cmsis_os.c **** * @brief  Pass control to next thread that is in state \b READY.
 267:Middlewares/Third_Party/FreeRTOS/Source/CMSIS_RTOS/cmsis_os.c **** * @retval status code that indicates the execution status of the function.
 268:Middlewares/Third_Party/FreeRTOS/Source/CMSIS_RTOS/cmsis_os.c **** * @note   MUST REMAIN UNCHANGED: \b osThreadYield shall be consistent in every CMSIS-RTOS.
 269:Middlewares/Third_Party/FreeRTOS/Source/CMSIS_RTOS/cmsis_os.c **** */
 270:Middlewares/Third_Party/FreeRTOS/Source/CMSIS_RTOS/cmsis_os.c **** osStatus osThreadYield (void)
 271:Middlewares/Third_Party/FreeRTOS/Source/CMSIS_RTOS/cmsis_os.c **** {
 426              		.loc 1 271 1 is_stmt 1 view -0
 427              		.cfi_startproc
 428              		@ args = 0, pretend = 0, frame = 0
 429              		@ frame_needed = 0, uses_anonymous_args = 0
 430              		@ link register save eliminated.
 272:Middlewares/Third_Party/FreeRTOS/Source/CMSIS_RTOS/cmsis_os.c ****   taskYIELD();
 431              		.loc 1 272 3 view .LVU86
 432 0000 4FF0E023 		mov	r3, #-536813568
 433 0004 4FF08052 		mov	r2, #268435456
 434 0008 C3F8042D 		str	r2, [r3, #3332]
 435              		.loc 1 272 3 view .LVU87
ARM GAS  C:\Users\seblo\AppData\Local\Temp\ccJuvw9h.s 			page 17


 436              		.syntax unified
 437              	@ 272 "Middlewares/Third_Party/FreeRTOS/Source/CMSIS_RTOS/cmsis_os.c" 1
 438 000c BFF34F8F 		dsb
 439              	@ 0 "" 2
 440              		.loc 1 272 3 view .LVU88
 441              	@ 272 "Middlewares/Third_Party/FreeRTOS/Source/CMSIS_RTOS/cmsis_os.c" 1
 442 0010 BFF36F8F 		isb
 443              	@ 0 "" 2
 444              		.loc 1 272 14 view .LVU89
 273:Middlewares/Third_Party/FreeRTOS/Source/CMSIS_RTOS/cmsis_os.c ****   
 274:Middlewares/Third_Party/FreeRTOS/Source/CMSIS_RTOS/cmsis_os.c ****   return osOK;
 445              		.loc 1 274 3 view .LVU90
 275:Middlewares/Third_Party/FreeRTOS/Source/CMSIS_RTOS/cmsis_os.c **** }
 446              		.loc 1 275 1 is_stmt 0 view .LVU91
 447              		.thumb
 448              		.syntax unified
 449 0014 0020     		movs	r0, #0
 450 0016 7047     		bx	lr
 451              		.cfi_endproc
 452              	.LFE116:
 454              		.section	.text.osThreadSetPriority,"ax",%progbits
 455              		.align	1
 456              		.global	osThreadSetPriority
 457              		.syntax unified
 458              		.thumb
 459              		.thumb_func
 460              		.fpu fpv5-sp-d16
 462              	osThreadSetPriority:
 463              	.LVL26:
 464              	.LFB117:
 276:Middlewares/Third_Party/FreeRTOS/Source/CMSIS_RTOS/cmsis_os.c **** 
 277:Middlewares/Third_Party/FreeRTOS/Source/CMSIS_RTOS/cmsis_os.c **** /**
 278:Middlewares/Third_Party/FreeRTOS/Source/CMSIS_RTOS/cmsis_os.c **** * @brief   Change priority of an active thread.
 279:Middlewares/Third_Party/FreeRTOS/Source/CMSIS_RTOS/cmsis_os.c **** * @param   thread_id     thread ID obtained by \ref osThreadCreate or \ref osThreadGetId.
 280:Middlewares/Third_Party/FreeRTOS/Source/CMSIS_RTOS/cmsis_os.c **** * @param   priority      new priority value for the thread function.
 281:Middlewares/Third_Party/FreeRTOS/Source/CMSIS_RTOS/cmsis_os.c **** * @retval  status code that indicates the execution status of the function.
 282:Middlewares/Third_Party/FreeRTOS/Source/CMSIS_RTOS/cmsis_os.c **** * @note   MUST REMAIN UNCHANGED: \b osThreadSetPriority shall be consistent in every CMSIS-RTOS.
 283:Middlewares/Third_Party/FreeRTOS/Source/CMSIS_RTOS/cmsis_os.c **** */
 284:Middlewares/Third_Party/FreeRTOS/Source/CMSIS_RTOS/cmsis_os.c **** osStatus osThreadSetPriority (osThreadId thread_id, osPriority priority)
 285:Middlewares/Third_Party/FreeRTOS/Source/CMSIS_RTOS/cmsis_os.c **** {
 465              		.loc 1 285 1 is_stmt 1 view -0
 466              		.cfi_startproc
 467              		@ args = 0, pretend = 0, frame = 0
 468              		@ frame_needed = 0, uses_anonymous_args = 0
 469              		.loc 1 285 1 is_stmt 0 view .LVU93
 470 0000 10B5     		push	{r4, lr}
 471              	.LCFI9:
 472              		.cfi_def_cfa_offset 8
 473              		.cfi_offset 4, -8
 474              		.cfi_offset 14, -4
 475 0002 0446     		mov	r4, r0
 286:Middlewares/Third_Party/FreeRTOS/Source/CMSIS_RTOS/cmsis_os.c **** #if (INCLUDE_vTaskPrioritySet == 1)
 287:Middlewares/Third_Party/FreeRTOS/Source/CMSIS_RTOS/cmsis_os.c ****   vTaskPrioritySet(thread_id, makeFreeRtosPriority(priority));
 476              		.loc 1 287 3 is_stmt 1 view .LVU94
 477 0004 0846     		mov	r0, r1
 478              	.LVL27:
 479              		.loc 1 287 3 is_stmt 0 view .LVU95
ARM GAS  C:\Users\seblo\AppData\Local\Temp\ccJuvw9h.s 			page 18


 480 0006 FFF7FEFF 		bl	makeFreeRtosPriority
 481              	.LVL28:
 482              		.loc 1 287 3 view .LVU96
 483 000a 0146     		mov	r1, r0
 484 000c 2046     		mov	r0, r4
 485 000e FFF7FEFF 		bl	vTaskPrioritySet
 486              	.LVL29:
 288:Middlewares/Third_Party/FreeRTOS/Source/CMSIS_RTOS/cmsis_os.c ****   return osOK;
 487              		.loc 1 288 3 is_stmt 1 view .LVU97
 289:Middlewares/Third_Party/FreeRTOS/Source/CMSIS_RTOS/cmsis_os.c **** #else
 290:Middlewares/Third_Party/FreeRTOS/Source/CMSIS_RTOS/cmsis_os.c ****   return osErrorOS;
 291:Middlewares/Third_Party/FreeRTOS/Source/CMSIS_RTOS/cmsis_os.c **** #endif
 292:Middlewares/Third_Party/FreeRTOS/Source/CMSIS_RTOS/cmsis_os.c **** }
 488              		.loc 1 292 1 is_stmt 0 view .LVU98
 489 0012 0020     		movs	r0, #0
 490 0014 10BD     		pop	{r4, pc}
 491              		.loc 1 292 1 view .LVU99
 492              		.cfi_endproc
 493              	.LFE117:
 495              		.section	.text.osThreadGetPriority,"ax",%progbits
 496              		.align	1
 497              		.global	osThreadGetPriority
 498              		.syntax unified
 499              		.thumb
 500              		.thumb_func
 501              		.fpu fpv5-sp-d16
 503              	osThreadGetPriority:
 504              	.LVL30:
 505              	.LFB118:
 293:Middlewares/Third_Party/FreeRTOS/Source/CMSIS_RTOS/cmsis_os.c **** 
 294:Middlewares/Third_Party/FreeRTOS/Source/CMSIS_RTOS/cmsis_os.c **** /**
 295:Middlewares/Third_Party/FreeRTOS/Source/CMSIS_RTOS/cmsis_os.c **** * @brief   Get current priority of an active thread.
 296:Middlewares/Third_Party/FreeRTOS/Source/CMSIS_RTOS/cmsis_os.c **** * @param   thread_id     thread ID obtained by \ref osThreadCreate or \ref osThreadGetId.
 297:Middlewares/Third_Party/FreeRTOS/Source/CMSIS_RTOS/cmsis_os.c **** * @retval  current priority value of the thread function.
 298:Middlewares/Third_Party/FreeRTOS/Source/CMSIS_RTOS/cmsis_os.c **** * @note   MUST REMAIN UNCHANGED: \b osThreadGetPriority shall be consistent in every CMSIS-RTOS.
 299:Middlewares/Third_Party/FreeRTOS/Source/CMSIS_RTOS/cmsis_os.c **** */
 300:Middlewares/Third_Party/FreeRTOS/Source/CMSIS_RTOS/cmsis_os.c **** osPriority osThreadGetPriority (osThreadId thread_id)
 301:Middlewares/Third_Party/FreeRTOS/Source/CMSIS_RTOS/cmsis_os.c **** {
 506              		.loc 1 301 1 is_stmt 1 view -0
 507              		.cfi_startproc
 508              		@ args = 0, pretend = 0, frame = 0
 509              		@ frame_needed = 0, uses_anonymous_args = 0
 510              		.loc 1 301 1 is_stmt 0 view .LVU101
 511 0000 10B5     		push	{r4, lr}
 512              	.LCFI10:
 513              		.cfi_def_cfa_offset 8
 514              		.cfi_offset 4, -8
 515              		.cfi_offset 14, -4
 516 0002 0446     		mov	r4, r0
 302:Middlewares/Third_Party/FreeRTOS/Source/CMSIS_RTOS/cmsis_os.c **** #if (INCLUDE_uxTaskPriorityGet == 1)
 303:Middlewares/Third_Party/FreeRTOS/Source/CMSIS_RTOS/cmsis_os.c ****   if (inHandlerMode())
 517              		.loc 1 303 3 is_stmt 1 view .LVU102
 518              		.loc 1 303 7 is_stmt 0 view .LVU103
 519 0004 FFF7FEFF 		bl	inHandlerMode
 520              	.LVL31:
 521              		.loc 1 303 6 view .LVU104
 522 0008 28B1     		cbz	r0, .L33
ARM GAS  C:\Users\seblo\AppData\Local\Temp\ccJuvw9h.s 			page 19


 304:Middlewares/Third_Party/FreeRTOS/Source/CMSIS_RTOS/cmsis_os.c ****   {
 305:Middlewares/Third_Party/FreeRTOS/Source/CMSIS_RTOS/cmsis_os.c ****     return makeCmsisPriority(uxTaskPriorityGetFromISR(thread_id));  
 523              		.loc 1 305 5 is_stmt 1 view .LVU105
 524              		.loc 1 305 12 is_stmt 0 view .LVU106
 525 000a 2046     		mov	r0, r4
 526 000c FFF7FEFF 		bl	uxTaskPriorityGetFromISR
 527              	.LVL32:
 528 0010 FFF7FEFF 		bl	makeCmsisPriority
 529              	.LVL33:
 530              	.L34:
 306:Middlewares/Third_Party/FreeRTOS/Source/CMSIS_RTOS/cmsis_os.c ****   }
 307:Middlewares/Third_Party/FreeRTOS/Source/CMSIS_RTOS/cmsis_os.c ****   else
 308:Middlewares/Third_Party/FreeRTOS/Source/CMSIS_RTOS/cmsis_os.c ****   {  
 309:Middlewares/Third_Party/FreeRTOS/Source/CMSIS_RTOS/cmsis_os.c ****     return makeCmsisPriority(uxTaskPriorityGet(thread_id));
 310:Middlewares/Third_Party/FreeRTOS/Source/CMSIS_RTOS/cmsis_os.c ****   }
 311:Middlewares/Third_Party/FreeRTOS/Source/CMSIS_RTOS/cmsis_os.c **** #else
 312:Middlewares/Third_Party/FreeRTOS/Source/CMSIS_RTOS/cmsis_os.c ****   return osPriorityError;
 313:Middlewares/Third_Party/FreeRTOS/Source/CMSIS_RTOS/cmsis_os.c **** #endif
 314:Middlewares/Third_Party/FreeRTOS/Source/CMSIS_RTOS/cmsis_os.c **** }
 531              		.loc 1 314 1 view .LVU107
 532 0014 10BD     		pop	{r4, pc}
 533              	.LVL34:
 534              	.L33:
 309:Middlewares/Third_Party/FreeRTOS/Source/CMSIS_RTOS/cmsis_os.c ****   }
 535              		.loc 1 309 5 is_stmt 1 view .LVU108
 309:Middlewares/Third_Party/FreeRTOS/Source/CMSIS_RTOS/cmsis_os.c ****   }
 536              		.loc 1 309 12 is_stmt 0 view .LVU109
 537 0016 2046     		mov	r0, r4
 538 0018 FFF7FEFF 		bl	uxTaskPriorityGet
 539              	.LVL35:
 540 001c FFF7FEFF 		bl	makeCmsisPriority
 541              	.LVL36:
 542 0020 F8E7     		b	.L34
 543              		.cfi_endproc
 544              	.LFE118:
 546              		.section	.text.osDelay,"ax",%progbits
 547              		.align	1
 548              		.global	osDelay
 549              		.syntax unified
 550              		.thumb
 551              		.thumb_func
 552              		.fpu fpv5-sp-d16
 554              	osDelay:
 555              	.LVL37:
 556              	.LFB119:
 315:Middlewares/Third_Party/FreeRTOS/Source/CMSIS_RTOS/cmsis_os.c **** 
 316:Middlewares/Third_Party/FreeRTOS/Source/CMSIS_RTOS/cmsis_os.c **** /*********************** Generic Wait Functions *******************************/
 317:Middlewares/Third_Party/FreeRTOS/Source/CMSIS_RTOS/cmsis_os.c **** /**
 318:Middlewares/Third_Party/FreeRTOS/Source/CMSIS_RTOS/cmsis_os.c **** * @brief   Wait for Timeout (Time Delay)
 319:Middlewares/Third_Party/FreeRTOS/Source/CMSIS_RTOS/cmsis_os.c **** * @param   millisec      time delay value
 320:Middlewares/Third_Party/FreeRTOS/Source/CMSIS_RTOS/cmsis_os.c **** * @retval  status code that indicates the execution status of the function.
 321:Middlewares/Third_Party/FreeRTOS/Source/CMSIS_RTOS/cmsis_os.c **** */
 322:Middlewares/Third_Party/FreeRTOS/Source/CMSIS_RTOS/cmsis_os.c **** osStatus osDelay (uint32_t millisec)
 323:Middlewares/Third_Party/FreeRTOS/Source/CMSIS_RTOS/cmsis_os.c **** {
 557              		.loc 1 323 1 is_stmt 1 view -0
 558              		.cfi_startproc
 559              		@ args = 0, pretend = 0, frame = 0
ARM GAS  C:\Users\seblo\AppData\Local\Temp\ccJuvw9h.s 			page 20


 560              		@ frame_needed = 0, uses_anonymous_args = 0
 561              		.loc 1 323 1 is_stmt 0 view .LVU111
 562 0000 08B5     		push	{r3, lr}
 563              	.LCFI11:
 564              		.cfi_def_cfa_offset 8
 565              		.cfi_offset 3, -8
 566              		.cfi_offset 14, -4
 324:Middlewares/Third_Party/FreeRTOS/Source/CMSIS_RTOS/cmsis_os.c **** #if INCLUDE_vTaskDelay
 325:Middlewares/Third_Party/FreeRTOS/Source/CMSIS_RTOS/cmsis_os.c ****   TickType_t ticks = millisec / portTICK_PERIOD_MS;
 567              		.loc 1 325 3 is_stmt 1 view .LVU112
 568              	.LVL38:
 326:Middlewares/Third_Party/FreeRTOS/Source/CMSIS_RTOS/cmsis_os.c ****   
 327:Middlewares/Third_Party/FreeRTOS/Source/CMSIS_RTOS/cmsis_os.c ****   vTaskDelay(ticks ? ticks : 1);          /* Minimum delay = 1 tick */
 569              		.loc 1 327 3 view .LVU113
 570 0002 00B9     		cbnz	r0, .L37
 571 0004 0120     		movs	r0, #1
 572              	.LVL39:
 573              	.L37:
 574              		.loc 1 327 3 is_stmt 0 discriminator 4 view .LVU114
 575 0006 FFF7FEFF 		bl	vTaskDelay
 576              	.LVL40:
 328:Middlewares/Third_Party/FreeRTOS/Source/CMSIS_RTOS/cmsis_os.c ****   
 329:Middlewares/Third_Party/FreeRTOS/Source/CMSIS_RTOS/cmsis_os.c ****   return osOK;
 577              		.loc 1 329 3 is_stmt 1 discriminator 4 view .LVU115
 330:Middlewares/Third_Party/FreeRTOS/Source/CMSIS_RTOS/cmsis_os.c **** #else
 331:Middlewares/Third_Party/FreeRTOS/Source/CMSIS_RTOS/cmsis_os.c ****   (void) millisec;
 332:Middlewares/Third_Party/FreeRTOS/Source/CMSIS_RTOS/cmsis_os.c ****   
 333:Middlewares/Third_Party/FreeRTOS/Source/CMSIS_RTOS/cmsis_os.c ****   return osErrorResource;
 334:Middlewares/Third_Party/FreeRTOS/Source/CMSIS_RTOS/cmsis_os.c **** #endif
 335:Middlewares/Third_Party/FreeRTOS/Source/CMSIS_RTOS/cmsis_os.c **** }
 578              		.loc 1 335 1 is_stmt 0 discriminator 4 view .LVU116
 579 000a 0020     		movs	r0, #0
 580 000c 08BD     		pop	{r3, pc}
 581              		.cfi_endproc
 582              	.LFE119:
 584              		.section	.text.osTimerCreate,"ax",%progbits
 585              		.align	1
 586              		.global	osTimerCreate
 587              		.syntax unified
 588              		.thumb
 589              		.thumb_func
 590              		.fpu fpv5-sp-d16
 592              	osTimerCreate:
 593              	.LVL41:
 594              	.LFB120:
 336:Middlewares/Third_Party/FreeRTOS/Source/CMSIS_RTOS/cmsis_os.c **** 
 337:Middlewares/Third_Party/FreeRTOS/Source/CMSIS_RTOS/cmsis_os.c **** #if (defined (osFeature_Wait)  &&  (osFeature_Wait != 0)) /* Generic Wait available */
 338:Middlewares/Third_Party/FreeRTOS/Source/CMSIS_RTOS/cmsis_os.c **** /**
 339:Middlewares/Third_Party/FreeRTOS/Source/CMSIS_RTOS/cmsis_os.c **** * @brief  Wait for Signal, Message, Mail, or Timeout
 340:Middlewares/Third_Party/FreeRTOS/Source/CMSIS_RTOS/cmsis_os.c **** * @param   millisec  timeout value or 0 in case of no time-out
 341:Middlewares/Third_Party/FreeRTOS/Source/CMSIS_RTOS/cmsis_os.c **** * @retval  event that contains signal, message, or mail information or error code.
 342:Middlewares/Third_Party/FreeRTOS/Source/CMSIS_RTOS/cmsis_os.c **** * @note   MUST REMAIN UNCHANGED: \b osWait shall be consistent in every CMSIS-RTOS.
 343:Middlewares/Third_Party/FreeRTOS/Source/CMSIS_RTOS/cmsis_os.c **** */
 344:Middlewares/Third_Party/FreeRTOS/Source/CMSIS_RTOS/cmsis_os.c **** osEvent osWait (uint32_t millisec);
 345:Middlewares/Third_Party/FreeRTOS/Source/CMSIS_RTOS/cmsis_os.c **** 
 346:Middlewares/Third_Party/FreeRTOS/Source/CMSIS_RTOS/cmsis_os.c **** #endif  /* Generic Wait available */
 347:Middlewares/Third_Party/FreeRTOS/Source/CMSIS_RTOS/cmsis_os.c **** 
ARM GAS  C:\Users\seblo\AppData\Local\Temp\ccJuvw9h.s 			page 21


 348:Middlewares/Third_Party/FreeRTOS/Source/CMSIS_RTOS/cmsis_os.c **** /***********************  Timer Management Functions ***************************/
 349:Middlewares/Third_Party/FreeRTOS/Source/CMSIS_RTOS/cmsis_os.c **** /**
 350:Middlewares/Third_Party/FreeRTOS/Source/CMSIS_RTOS/cmsis_os.c **** * @brief  Create a timer.
 351:Middlewares/Third_Party/FreeRTOS/Source/CMSIS_RTOS/cmsis_os.c **** * @param  timer_def     timer object referenced with \ref osTimer.
 352:Middlewares/Third_Party/FreeRTOS/Source/CMSIS_RTOS/cmsis_os.c **** * @param  type          osTimerOnce for one-shot or osTimerPeriodic for periodic behavior.
 353:Middlewares/Third_Party/FreeRTOS/Source/CMSIS_RTOS/cmsis_os.c **** * @param  argument      argument to the timer call back function.
 354:Middlewares/Third_Party/FreeRTOS/Source/CMSIS_RTOS/cmsis_os.c **** * @retval  timer ID for reference by other functions or NULL in case of error.
 355:Middlewares/Third_Party/FreeRTOS/Source/CMSIS_RTOS/cmsis_os.c **** * @note   MUST REMAIN UNCHANGED: \b osTimerCreate shall be consistent in every CMSIS-RTOS.
 356:Middlewares/Third_Party/FreeRTOS/Source/CMSIS_RTOS/cmsis_os.c **** */
 357:Middlewares/Third_Party/FreeRTOS/Source/CMSIS_RTOS/cmsis_os.c **** osTimerId osTimerCreate (const osTimerDef_t *timer_def, os_timer_type type, void *argument)
 358:Middlewares/Third_Party/FreeRTOS/Source/CMSIS_RTOS/cmsis_os.c **** {
 595              		.loc 1 358 1 is_stmt 1 view -0
 596              		.cfi_startproc
 597              		@ args = 0, pretend = 0, frame = 0
 598              		@ frame_needed = 0, uses_anonymous_args = 0
 599              		@ link register save eliminated.
 359:Middlewares/Third_Party/FreeRTOS/Source/CMSIS_RTOS/cmsis_os.c **** #if (configUSE_TIMERS == 1)
 360:Middlewares/Third_Party/FreeRTOS/Source/CMSIS_RTOS/cmsis_os.c **** 
 361:Middlewares/Third_Party/FreeRTOS/Source/CMSIS_RTOS/cmsis_os.c **** #if( ( configSUPPORT_STATIC_ALLOCATION == 1 ) && ( configSUPPORT_DYNAMIC_ALLOCATION == 1 ) ) 
 362:Middlewares/Third_Party/FreeRTOS/Source/CMSIS_RTOS/cmsis_os.c ****   if(timer_def->controlblock != NULL) {
 363:Middlewares/Third_Party/FreeRTOS/Source/CMSIS_RTOS/cmsis_os.c ****     return xTimerCreateStatic((const char *)"",
 364:Middlewares/Third_Party/FreeRTOS/Source/CMSIS_RTOS/cmsis_os.c ****                       1, // period should be filled when starting the Timer using osTimerStart
 365:Middlewares/Third_Party/FreeRTOS/Source/CMSIS_RTOS/cmsis_os.c ****                       (type == osTimerPeriodic) ? pdTRUE : pdFALSE,
 366:Middlewares/Third_Party/FreeRTOS/Source/CMSIS_RTOS/cmsis_os.c ****                       (void *) argument,
 367:Middlewares/Third_Party/FreeRTOS/Source/CMSIS_RTOS/cmsis_os.c ****                       (TimerCallbackFunction_t)timer_def->ptimer,
 368:Middlewares/Third_Party/FreeRTOS/Source/CMSIS_RTOS/cmsis_os.c ****                       (StaticTimer_t *)timer_def->controlblock);
 369:Middlewares/Third_Party/FreeRTOS/Source/CMSIS_RTOS/cmsis_os.c ****   }
 370:Middlewares/Third_Party/FreeRTOS/Source/CMSIS_RTOS/cmsis_os.c ****   else {
 371:Middlewares/Third_Party/FreeRTOS/Source/CMSIS_RTOS/cmsis_os.c ****     return xTimerCreate((const char *)"",
 372:Middlewares/Third_Party/FreeRTOS/Source/CMSIS_RTOS/cmsis_os.c ****                       1, // period should be filled when starting the Timer using osTimerStart
 373:Middlewares/Third_Party/FreeRTOS/Source/CMSIS_RTOS/cmsis_os.c ****                       (type == osTimerPeriodic) ? pdTRUE : pdFALSE,
 374:Middlewares/Third_Party/FreeRTOS/Source/CMSIS_RTOS/cmsis_os.c ****                       (void *) argument,
 375:Middlewares/Third_Party/FreeRTOS/Source/CMSIS_RTOS/cmsis_os.c ****                       (TimerCallbackFunction_t)timer_def->ptimer);
 376:Middlewares/Third_Party/FreeRTOS/Source/CMSIS_RTOS/cmsis_os.c ****  }
 377:Middlewares/Third_Party/FreeRTOS/Source/CMSIS_RTOS/cmsis_os.c **** #elif( configSUPPORT_STATIC_ALLOCATION == 1 )
 378:Middlewares/Third_Party/FreeRTOS/Source/CMSIS_RTOS/cmsis_os.c ****   return xTimerCreateStatic((const char *)"",
 379:Middlewares/Third_Party/FreeRTOS/Source/CMSIS_RTOS/cmsis_os.c ****                       1, // period should be filled when starting the Timer using osTimerStart
 380:Middlewares/Third_Party/FreeRTOS/Source/CMSIS_RTOS/cmsis_os.c ****                       (type == osTimerPeriodic) ? pdTRUE : pdFALSE,
 381:Middlewares/Third_Party/FreeRTOS/Source/CMSIS_RTOS/cmsis_os.c ****                       (void *) argument,
 382:Middlewares/Third_Party/FreeRTOS/Source/CMSIS_RTOS/cmsis_os.c ****                       (TimerCallbackFunction_t)timer_def->ptimer,
 383:Middlewares/Third_Party/FreeRTOS/Source/CMSIS_RTOS/cmsis_os.c ****                       (StaticTimer_t *)timer_def->controlblock);  
 384:Middlewares/Third_Party/FreeRTOS/Source/CMSIS_RTOS/cmsis_os.c **** #else
 385:Middlewares/Third_Party/FreeRTOS/Source/CMSIS_RTOS/cmsis_os.c ****   return xTimerCreate((const char *)"",
 386:Middlewares/Third_Party/FreeRTOS/Source/CMSIS_RTOS/cmsis_os.c ****                       1, // period should be filled when starting the Timer using osTimerStart
 387:Middlewares/Third_Party/FreeRTOS/Source/CMSIS_RTOS/cmsis_os.c ****                       (type == osTimerPeriodic) ? pdTRUE : pdFALSE,
 388:Middlewares/Third_Party/FreeRTOS/Source/CMSIS_RTOS/cmsis_os.c ****                       (void *) argument,
 389:Middlewares/Third_Party/FreeRTOS/Source/CMSIS_RTOS/cmsis_os.c ****                       (TimerCallbackFunction_t)timer_def->ptimer);
 390:Middlewares/Third_Party/FreeRTOS/Source/CMSIS_RTOS/cmsis_os.c **** #endif
 391:Middlewares/Third_Party/FreeRTOS/Source/CMSIS_RTOS/cmsis_os.c **** 
 392:Middlewares/Third_Party/FreeRTOS/Source/CMSIS_RTOS/cmsis_os.c **** #else 
 393:Middlewares/Third_Party/FreeRTOS/Source/CMSIS_RTOS/cmsis_os.c **** 	return NULL;
 600              		.loc 1 393 2 view .LVU118
 394:Middlewares/Third_Party/FreeRTOS/Source/CMSIS_RTOS/cmsis_os.c **** #endif
 395:Middlewares/Third_Party/FreeRTOS/Source/CMSIS_RTOS/cmsis_os.c **** }
 601              		.loc 1 395 1 is_stmt 0 view .LVU119
 602 0000 0020     		movs	r0, #0
 603              	.LVL42:
ARM GAS  C:\Users\seblo\AppData\Local\Temp\ccJuvw9h.s 			page 22


 604              		.loc 1 395 1 view .LVU120
 605 0002 7047     		bx	lr
 606              		.cfi_endproc
 607              	.LFE120:
 609              		.section	.text.osTimerStart,"ax",%progbits
 610              		.align	1
 611              		.global	osTimerStart
 612              		.syntax unified
 613              		.thumb
 614              		.thumb_func
 615              		.fpu fpv5-sp-d16
 617              	osTimerStart:
 618              	.LVL43:
 619              	.LFB121:
 396:Middlewares/Third_Party/FreeRTOS/Source/CMSIS_RTOS/cmsis_os.c **** 
 397:Middlewares/Third_Party/FreeRTOS/Source/CMSIS_RTOS/cmsis_os.c **** /**
 398:Middlewares/Third_Party/FreeRTOS/Source/CMSIS_RTOS/cmsis_os.c **** * @brief  Start or restart a timer.
 399:Middlewares/Third_Party/FreeRTOS/Source/CMSIS_RTOS/cmsis_os.c **** * @param  timer_id      timer ID obtained by \ref osTimerCreate.
 400:Middlewares/Third_Party/FreeRTOS/Source/CMSIS_RTOS/cmsis_os.c **** * @param  millisec      time delay value of the timer.
 401:Middlewares/Third_Party/FreeRTOS/Source/CMSIS_RTOS/cmsis_os.c **** * @retval  status code that indicates the execution status of the function
 402:Middlewares/Third_Party/FreeRTOS/Source/CMSIS_RTOS/cmsis_os.c **** * @note   MUST REMAIN UNCHANGED: \b osTimerStart shall be consistent in every CMSIS-RTOS.
 403:Middlewares/Third_Party/FreeRTOS/Source/CMSIS_RTOS/cmsis_os.c **** */
 404:Middlewares/Third_Party/FreeRTOS/Source/CMSIS_RTOS/cmsis_os.c **** osStatus osTimerStart (osTimerId timer_id, uint32_t millisec)
 405:Middlewares/Third_Party/FreeRTOS/Source/CMSIS_RTOS/cmsis_os.c **** {
 620              		.loc 1 405 1 is_stmt 1 view -0
 621              		.cfi_startproc
 622              		@ args = 0, pretend = 0, frame = 0
 623              		@ frame_needed = 0, uses_anonymous_args = 0
 624              		@ link register save eliminated.
 406:Middlewares/Third_Party/FreeRTOS/Source/CMSIS_RTOS/cmsis_os.c ****   osStatus result = osOK;
 625              		.loc 1 406 3 view .LVU122
 407:Middlewares/Third_Party/FreeRTOS/Source/CMSIS_RTOS/cmsis_os.c **** #if (configUSE_TIMERS == 1)  
 408:Middlewares/Third_Party/FreeRTOS/Source/CMSIS_RTOS/cmsis_os.c ****   portBASE_TYPE taskWoken = pdFALSE;
 409:Middlewares/Third_Party/FreeRTOS/Source/CMSIS_RTOS/cmsis_os.c ****   TickType_t ticks = millisec / portTICK_PERIOD_MS;
 410:Middlewares/Third_Party/FreeRTOS/Source/CMSIS_RTOS/cmsis_os.c **** 
 411:Middlewares/Third_Party/FreeRTOS/Source/CMSIS_RTOS/cmsis_os.c ****   if (ticks == 0)
 412:Middlewares/Third_Party/FreeRTOS/Source/CMSIS_RTOS/cmsis_os.c ****     ticks = 1;
 413:Middlewares/Third_Party/FreeRTOS/Source/CMSIS_RTOS/cmsis_os.c ****     
 414:Middlewares/Third_Party/FreeRTOS/Source/CMSIS_RTOS/cmsis_os.c ****   if (inHandlerMode()) 
 415:Middlewares/Third_Party/FreeRTOS/Source/CMSIS_RTOS/cmsis_os.c ****   {
 416:Middlewares/Third_Party/FreeRTOS/Source/CMSIS_RTOS/cmsis_os.c ****     if (xTimerChangePeriodFromISR(timer_id, ticks, &taskWoken) != pdPASS)
 417:Middlewares/Third_Party/FreeRTOS/Source/CMSIS_RTOS/cmsis_os.c ****     {
 418:Middlewares/Third_Party/FreeRTOS/Source/CMSIS_RTOS/cmsis_os.c ****       result = osErrorOS;
 419:Middlewares/Third_Party/FreeRTOS/Source/CMSIS_RTOS/cmsis_os.c ****     }
 420:Middlewares/Third_Party/FreeRTOS/Source/CMSIS_RTOS/cmsis_os.c ****     else
 421:Middlewares/Third_Party/FreeRTOS/Source/CMSIS_RTOS/cmsis_os.c ****     {
 422:Middlewares/Third_Party/FreeRTOS/Source/CMSIS_RTOS/cmsis_os.c ****       portEND_SWITCHING_ISR(taskWoken);     
 423:Middlewares/Third_Party/FreeRTOS/Source/CMSIS_RTOS/cmsis_os.c ****     }
 424:Middlewares/Third_Party/FreeRTOS/Source/CMSIS_RTOS/cmsis_os.c ****   }
 425:Middlewares/Third_Party/FreeRTOS/Source/CMSIS_RTOS/cmsis_os.c ****   else 
 426:Middlewares/Third_Party/FreeRTOS/Source/CMSIS_RTOS/cmsis_os.c ****   {
 427:Middlewares/Third_Party/FreeRTOS/Source/CMSIS_RTOS/cmsis_os.c ****     if (xTimerChangePeriod(timer_id, ticks, 0) != pdPASS)
 428:Middlewares/Third_Party/FreeRTOS/Source/CMSIS_RTOS/cmsis_os.c ****       result = osErrorOS;
 429:Middlewares/Third_Party/FreeRTOS/Source/CMSIS_RTOS/cmsis_os.c ****   }
 430:Middlewares/Third_Party/FreeRTOS/Source/CMSIS_RTOS/cmsis_os.c **** 
 431:Middlewares/Third_Party/FreeRTOS/Source/CMSIS_RTOS/cmsis_os.c **** #else 
 432:Middlewares/Third_Party/FreeRTOS/Source/CMSIS_RTOS/cmsis_os.c ****   result = osErrorOS;
ARM GAS  C:\Users\seblo\AppData\Local\Temp\ccJuvw9h.s 			page 23


 626              		.loc 1 432 3 view .LVU123
 433:Middlewares/Third_Party/FreeRTOS/Source/CMSIS_RTOS/cmsis_os.c **** #endif
 434:Middlewares/Third_Party/FreeRTOS/Source/CMSIS_RTOS/cmsis_os.c ****   return result;
 627              		.loc 1 434 3 view .LVU124
 435:Middlewares/Third_Party/FreeRTOS/Source/CMSIS_RTOS/cmsis_os.c **** }
 628              		.loc 1 435 1 is_stmt 0 view .LVU125
 629 0000 FF20     		movs	r0, #255
 630              	.LVL44:
 631              		.loc 1 435 1 view .LVU126
 632 0002 7047     		bx	lr
 633              		.cfi_endproc
 634              	.LFE121:
 636              		.section	.text.osTimerStop,"ax",%progbits
 637              		.align	1
 638              		.global	osTimerStop
 639              		.syntax unified
 640              		.thumb
 641              		.thumb_func
 642              		.fpu fpv5-sp-d16
 644              	osTimerStop:
 645              	.LVL45:
 646              	.LFB122:
 436:Middlewares/Third_Party/FreeRTOS/Source/CMSIS_RTOS/cmsis_os.c **** 
 437:Middlewares/Third_Party/FreeRTOS/Source/CMSIS_RTOS/cmsis_os.c **** /**
 438:Middlewares/Third_Party/FreeRTOS/Source/CMSIS_RTOS/cmsis_os.c **** * @brief  Stop a timer.
 439:Middlewares/Third_Party/FreeRTOS/Source/CMSIS_RTOS/cmsis_os.c **** * @param  timer_id      timer ID obtained by \ref osTimerCreate
 440:Middlewares/Third_Party/FreeRTOS/Source/CMSIS_RTOS/cmsis_os.c **** * @retval  status code that indicates the execution status of the function.
 441:Middlewares/Third_Party/FreeRTOS/Source/CMSIS_RTOS/cmsis_os.c **** * @note   MUST REMAIN UNCHANGED: \b osTimerStop shall be consistent in every CMSIS-RTOS.
 442:Middlewares/Third_Party/FreeRTOS/Source/CMSIS_RTOS/cmsis_os.c **** */
 443:Middlewares/Third_Party/FreeRTOS/Source/CMSIS_RTOS/cmsis_os.c **** osStatus osTimerStop (osTimerId timer_id)
 444:Middlewares/Third_Party/FreeRTOS/Source/CMSIS_RTOS/cmsis_os.c **** {
 647              		.loc 1 444 1 is_stmt 1 view -0
 648              		.cfi_startproc
 649              		@ args = 0, pretend = 0, frame = 0
 650              		@ frame_needed = 0, uses_anonymous_args = 0
 651              		@ link register save eliminated.
 445:Middlewares/Third_Party/FreeRTOS/Source/CMSIS_RTOS/cmsis_os.c ****   osStatus result = osOK;
 652              		.loc 1 445 3 view .LVU128
 446:Middlewares/Third_Party/FreeRTOS/Source/CMSIS_RTOS/cmsis_os.c **** #if (configUSE_TIMERS == 1)  
 447:Middlewares/Third_Party/FreeRTOS/Source/CMSIS_RTOS/cmsis_os.c ****   portBASE_TYPE taskWoken = pdFALSE;
 448:Middlewares/Third_Party/FreeRTOS/Source/CMSIS_RTOS/cmsis_os.c **** 
 449:Middlewares/Third_Party/FreeRTOS/Source/CMSIS_RTOS/cmsis_os.c ****   if (inHandlerMode()) {
 450:Middlewares/Third_Party/FreeRTOS/Source/CMSIS_RTOS/cmsis_os.c ****     if (xTimerStopFromISR(timer_id, &taskWoken) != pdPASS) {
 451:Middlewares/Third_Party/FreeRTOS/Source/CMSIS_RTOS/cmsis_os.c ****       return osErrorOS;
 452:Middlewares/Third_Party/FreeRTOS/Source/CMSIS_RTOS/cmsis_os.c ****     }
 453:Middlewares/Third_Party/FreeRTOS/Source/CMSIS_RTOS/cmsis_os.c ****     portEND_SWITCHING_ISR(taskWoken);
 454:Middlewares/Third_Party/FreeRTOS/Source/CMSIS_RTOS/cmsis_os.c ****   }
 455:Middlewares/Third_Party/FreeRTOS/Source/CMSIS_RTOS/cmsis_os.c ****   else {
 456:Middlewares/Third_Party/FreeRTOS/Source/CMSIS_RTOS/cmsis_os.c ****     if (xTimerStop(timer_id, 0) != pdPASS) {
 457:Middlewares/Third_Party/FreeRTOS/Source/CMSIS_RTOS/cmsis_os.c ****       result = osErrorOS;
 458:Middlewares/Third_Party/FreeRTOS/Source/CMSIS_RTOS/cmsis_os.c ****     }
 459:Middlewares/Third_Party/FreeRTOS/Source/CMSIS_RTOS/cmsis_os.c ****   }
 460:Middlewares/Third_Party/FreeRTOS/Source/CMSIS_RTOS/cmsis_os.c **** #else 
 461:Middlewares/Third_Party/FreeRTOS/Source/CMSIS_RTOS/cmsis_os.c ****   result = osErrorOS;
 653              		.loc 1 461 3 view .LVU129
 462:Middlewares/Third_Party/FreeRTOS/Source/CMSIS_RTOS/cmsis_os.c **** #endif 
 463:Middlewares/Third_Party/FreeRTOS/Source/CMSIS_RTOS/cmsis_os.c ****   return result;
ARM GAS  C:\Users\seblo\AppData\Local\Temp\ccJuvw9h.s 			page 24


 654              		.loc 1 463 3 view .LVU130
 464:Middlewares/Third_Party/FreeRTOS/Source/CMSIS_RTOS/cmsis_os.c **** }
 655              		.loc 1 464 1 is_stmt 0 view .LVU131
 656 0000 FF20     		movs	r0, #255
 657              	.LVL46:
 658              		.loc 1 464 1 view .LVU132
 659 0002 7047     		bx	lr
 660              		.cfi_endproc
 661              	.LFE122:
 663              		.section	.text.osTimerDelete,"ax",%progbits
 664              		.align	1
 665              		.global	osTimerDelete
 666              		.syntax unified
 667              		.thumb
 668              		.thumb_func
 669              		.fpu fpv5-sp-d16
 671              	osTimerDelete:
 672              	.LVL47:
 673              	.LFB123:
 465:Middlewares/Third_Party/FreeRTOS/Source/CMSIS_RTOS/cmsis_os.c **** 
 466:Middlewares/Third_Party/FreeRTOS/Source/CMSIS_RTOS/cmsis_os.c **** /**
 467:Middlewares/Third_Party/FreeRTOS/Source/CMSIS_RTOS/cmsis_os.c **** * @brief  Delete a timer.
 468:Middlewares/Third_Party/FreeRTOS/Source/CMSIS_RTOS/cmsis_os.c **** * @param  timer_id      timer ID obtained by \ref osTimerCreate
 469:Middlewares/Third_Party/FreeRTOS/Source/CMSIS_RTOS/cmsis_os.c **** * @retval  status code that indicates the execution status of the function.
 470:Middlewares/Third_Party/FreeRTOS/Source/CMSIS_RTOS/cmsis_os.c **** * @note   MUST REMAIN UNCHANGED: \b osTimerDelete shall be consistent in every CMSIS-RTOS.
 471:Middlewares/Third_Party/FreeRTOS/Source/CMSIS_RTOS/cmsis_os.c **** */
 472:Middlewares/Third_Party/FreeRTOS/Source/CMSIS_RTOS/cmsis_os.c **** osStatus osTimerDelete (osTimerId timer_id)
 473:Middlewares/Third_Party/FreeRTOS/Source/CMSIS_RTOS/cmsis_os.c **** {
 674              		.loc 1 473 1 is_stmt 1 view -0
 675              		.cfi_startproc
 676              		@ args = 0, pretend = 0, frame = 0
 677              		@ frame_needed = 0, uses_anonymous_args = 0
 678              		@ link register save eliminated.
 474:Middlewares/Third_Party/FreeRTOS/Source/CMSIS_RTOS/cmsis_os.c **** osStatus result = osOK;
 679              		.loc 1 474 1 view .LVU134
 475:Middlewares/Third_Party/FreeRTOS/Source/CMSIS_RTOS/cmsis_os.c **** 
 476:Middlewares/Third_Party/FreeRTOS/Source/CMSIS_RTOS/cmsis_os.c **** #if (configUSE_TIMERS == 1)
 477:Middlewares/Third_Party/FreeRTOS/Source/CMSIS_RTOS/cmsis_os.c **** 
 478:Middlewares/Third_Party/FreeRTOS/Source/CMSIS_RTOS/cmsis_os.c ****    if (inHandlerMode()) {
 479:Middlewares/Third_Party/FreeRTOS/Source/CMSIS_RTOS/cmsis_os.c ****      return osErrorISR;
 480:Middlewares/Third_Party/FreeRTOS/Source/CMSIS_RTOS/cmsis_os.c ****   }
 481:Middlewares/Third_Party/FreeRTOS/Source/CMSIS_RTOS/cmsis_os.c ****   else { 
 482:Middlewares/Third_Party/FreeRTOS/Source/CMSIS_RTOS/cmsis_os.c ****     if ((xTimerDelete(timer_id, osWaitForever )) != pdPASS) {
 483:Middlewares/Third_Party/FreeRTOS/Source/CMSIS_RTOS/cmsis_os.c ****       result = osErrorOS;
 484:Middlewares/Third_Party/FreeRTOS/Source/CMSIS_RTOS/cmsis_os.c ****     }
 485:Middlewares/Third_Party/FreeRTOS/Source/CMSIS_RTOS/cmsis_os.c ****   } 
 486:Middlewares/Third_Party/FreeRTOS/Source/CMSIS_RTOS/cmsis_os.c ****     
 487:Middlewares/Third_Party/FreeRTOS/Source/CMSIS_RTOS/cmsis_os.c **** #else 
 488:Middlewares/Third_Party/FreeRTOS/Source/CMSIS_RTOS/cmsis_os.c ****   result = osErrorOS;
 680              		.loc 1 488 3 view .LVU135
 489:Middlewares/Third_Party/FreeRTOS/Source/CMSIS_RTOS/cmsis_os.c **** #endif 
 490:Middlewares/Third_Party/FreeRTOS/Source/CMSIS_RTOS/cmsis_os.c ****  
 491:Middlewares/Third_Party/FreeRTOS/Source/CMSIS_RTOS/cmsis_os.c ****   return result;
 681              		.loc 1 491 3 view .LVU136
 492:Middlewares/Third_Party/FreeRTOS/Source/CMSIS_RTOS/cmsis_os.c **** }
 682              		.loc 1 492 1 is_stmt 0 view .LVU137
 683 0000 FF20     		movs	r0, #255
ARM GAS  C:\Users\seblo\AppData\Local\Temp\ccJuvw9h.s 			page 25


 684              	.LVL48:
 685              		.loc 1 492 1 view .LVU138
 686 0002 7047     		bx	lr
 687              		.cfi_endproc
 688              	.LFE123:
 690              		.section	.text.osSignalSet,"ax",%progbits
 691              		.align	1
 692              		.global	osSignalSet
 693              		.syntax unified
 694              		.thumb
 695              		.thumb_func
 696              		.fpu fpv5-sp-d16
 698              	osSignalSet:
 699              	.LVL49:
 700              	.LFB124:
 493:Middlewares/Third_Party/FreeRTOS/Source/CMSIS_RTOS/cmsis_os.c **** 
 494:Middlewares/Third_Party/FreeRTOS/Source/CMSIS_RTOS/cmsis_os.c **** /***************************  Signal Management ********************************/
 495:Middlewares/Third_Party/FreeRTOS/Source/CMSIS_RTOS/cmsis_os.c **** /**
 496:Middlewares/Third_Party/FreeRTOS/Source/CMSIS_RTOS/cmsis_os.c **** * @brief  Set the specified Signal Flags of an active thread.
 497:Middlewares/Third_Party/FreeRTOS/Source/CMSIS_RTOS/cmsis_os.c **** * @param  thread_id     thread ID obtained by \ref osThreadCreate or \ref osThreadGetId.
 498:Middlewares/Third_Party/FreeRTOS/Source/CMSIS_RTOS/cmsis_os.c **** * @param  signals       specifies the signal flags of the thread that should be set.
 499:Middlewares/Third_Party/FreeRTOS/Source/CMSIS_RTOS/cmsis_os.c **** * @retval previous signal flags of the specified thread or 0x80000000 in case of incorrect paramete
 500:Middlewares/Third_Party/FreeRTOS/Source/CMSIS_RTOS/cmsis_os.c **** * @note   MUST REMAIN UNCHANGED: \b osSignalSet shall be consistent in every CMSIS-RTOS.
 501:Middlewares/Third_Party/FreeRTOS/Source/CMSIS_RTOS/cmsis_os.c **** */
 502:Middlewares/Third_Party/FreeRTOS/Source/CMSIS_RTOS/cmsis_os.c **** int32_t osSignalSet (osThreadId thread_id, int32_t signal)
 503:Middlewares/Third_Party/FreeRTOS/Source/CMSIS_RTOS/cmsis_os.c **** {
 701              		.loc 1 503 1 is_stmt 1 view -0
 702              		.cfi_startproc
 703              		@ args = 0, pretend = 0, frame = 8
 704              		@ frame_needed = 0, uses_anonymous_args = 0
 705              		.loc 1 503 1 is_stmt 0 view .LVU140
 706 0000 30B5     		push	{r4, r5, lr}
 707              	.LCFI12:
 708              		.cfi_def_cfa_offset 12
 709              		.cfi_offset 4, -12
 710              		.cfi_offset 5, -8
 711              		.cfi_offset 14, -4
 712 0002 85B0     		sub	sp, sp, #20
 713              	.LCFI13:
 714              		.cfi_def_cfa_offset 32
 715 0004 0446     		mov	r4, r0
 716 0006 0D46     		mov	r5, r1
 504:Middlewares/Third_Party/FreeRTOS/Source/CMSIS_RTOS/cmsis_os.c **** #if( configUSE_TASK_NOTIFICATIONS == 1 )	
 505:Middlewares/Third_Party/FreeRTOS/Source/CMSIS_RTOS/cmsis_os.c ****   BaseType_t xHigherPriorityTaskWoken = pdFALSE;
 717              		.loc 1 505 3 is_stmt 1 view .LVU141
 718              		.loc 1 505 14 is_stmt 0 view .LVU142
 719 0008 0023     		movs	r3, #0
 720 000a 0393     		str	r3, [sp, #12]
 506:Middlewares/Third_Party/FreeRTOS/Source/CMSIS_RTOS/cmsis_os.c ****   uint32_t ulPreviousNotificationValue = 0;
 721              		.loc 1 506 3 is_stmt 1 view .LVU143
 722              		.loc 1 506 12 is_stmt 0 view .LVU144
 723 000c 0293     		str	r3, [sp, #8]
 507:Middlewares/Third_Party/FreeRTOS/Source/CMSIS_RTOS/cmsis_os.c ****   
 508:Middlewares/Third_Party/FreeRTOS/Source/CMSIS_RTOS/cmsis_os.c ****   if (inHandlerMode())
 724              		.loc 1 508 3 is_stmt 1 view .LVU145
 725              		.loc 1 508 7 is_stmt 0 view .LVU146
 726 000e FFF7FEFF 		bl	inHandlerMode
ARM GAS  C:\Users\seblo\AppData\Local\Temp\ccJuvw9h.s 			page 26


 727              	.LVL50:
 728              		.loc 1 508 6 view .LVU147
 729 0012 B0B1     		cbz	r0, .L45
 509:Middlewares/Third_Party/FreeRTOS/Source/CMSIS_RTOS/cmsis_os.c ****   {
 510:Middlewares/Third_Party/FreeRTOS/Source/CMSIS_RTOS/cmsis_os.c ****     if(xTaskGenericNotifyFromISR( thread_id , (uint32_t)signal, eSetBits, &ulPreviousNotificationVa
 730              		.loc 1 510 5 is_stmt 1 view .LVU148
 731              		.loc 1 510 8 is_stmt 0 view .LVU149
 732 0014 03AB     		add	r3, sp, #12
 733 0016 0093     		str	r3, [sp]
 734 0018 02AB     		add	r3, sp, #8
 735 001a 0122     		movs	r2, #1
 736 001c 2946     		mov	r1, r5
 737 001e 2046     		mov	r0, r4
 738 0020 FFF7FEFF 		bl	xTaskGenericNotifyFromISR
 739              	.LVL51:
 740              		.loc 1 510 7 view .LVU150
 741 0024 0128     		cmp	r0, #1
 742 0026 17D1     		bne	.L48
 511:Middlewares/Third_Party/FreeRTOS/Source/CMSIS_RTOS/cmsis_os.c ****       return 0x80000000;
 512:Middlewares/Third_Party/FreeRTOS/Source/CMSIS_RTOS/cmsis_os.c ****     
 513:Middlewares/Third_Party/FreeRTOS/Source/CMSIS_RTOS/cmsis_os.c ****     portYIELD_FROM_ISR( xHigherPriorityTaskWoken );
 743              		.loc 1 513 5 is_stmt 1 view .LVU151
 744 0028 039B     		ldr	r3, [sp, #12]
 745 002a 93B1     		cbz	r3, .L47
 746              		.loc 1 513 5 discriminator 1 view .LVU152
 747 002c 4FF0E023 		mov	r3, #-536813568
 748 0030 4FF08052 		mov	r2, #268435456
 749 0034 C3F8042D 		str	r2, [r3, #3332]
 750              		.loc 1 513 5 discriminator 1 view .LVU153
 751              		.syntax unified
 752              	@ 513 "Middlewares/Third_Party/FreeRTOS/Source/CMSIS_RTOS/cmsis_os.c" 1
 753 0038 BFF34F8F 		dsb
 754              	@ 0 "" 2
 755              		.loc 1 513 5 discriminator 1 view .LVU154
 756              	@ 513 "Middlewares/Third_Party/FreeRTOS/Source/CMSIS_RTOS/cmsis_os.c" 1
 757 003c BFF36F8F 		isb
 758              	@ 0 "" 2
 759              		.thumb
 760              		.syntax unified
 761 0040 07E0     		b	.L47
 762              	.L45:
 514:Middlewares/Third_Party/FreeRTOS/Source/CMSIS_RTOS/cmsis_os.c ****   }  
 515:Middlewares/Third_Party/FreeRTOS/Source/CMSIS_RTOS/cmsis_os.c ****   else if(xTaskGenericNotify( thread_id , (uint32_t)signal, eSetBits, &ulPreviousNotificationValue)
 763              		.loc 1 515 8 view .LVU155
 764              		.loc 1 515 11 is_stmt 0 view .LVU156
 765 0042 02AB     		add	r3, sp, #8
 766 0044 0122     		movs	r2, #1
 767 0046 2946     		mov	r1, r5
 768 0048 2046     		mov	r0, r4
 769 004a FFF7FEFF 		bl	xTaskGenericNotify
 770              	.LVL52:
 771              		.loc 1 515 10 view .LVU157
 772 004e 0128     		cmp	r0, #1
 773 0050 05D1     		bne	.L49
 774              	.L47:
 516:Middlewares/Third_Party/FreeRTOS/Source/CMSIS_RTOS/cmsis_os.c ****     return 0x80000000;
 517:Middlewares/Third_Party/FreeRTOS/Source/CMSIS_RTOS/cmsis_os.c ****   
ARM GAS  C:\Users\seblo\AppData\Local\Temp\ccJuvw9h.s 			page 27


 518:Middlewares/Third_Party/FreeRTOS/Source/CMSIS_RTOS/cmsis_os.c ****   return ulPreviousNotificationValue;
 775              		.loc 1 518 3 is_stmt 1 view .LVU158
 776              		.loc 1 518 10 is_stmt 0 view .LVU159
 777 0052 0298     		ldr	r0, [sp, #8]
 778              	.L44:
 519:Middlewares/Third_Party/FreeRTOS/Source/CMSIS_RTOS/cmsis_os.c **** #else
 520:Middlewares/Third_Party/FreeRTOS/Source/CMSIS_RTOS/cmsis_os.c ****   (void) thread_id;
 521:Middlewares/Third_Party/FreeRTOS/Source/CMSIS_RTOS/cmsis_os.c ****   (void) signal;
 522:Middlewares/Third_Party/FreeRTOS/Source/CMSIS_RTOS/cmsis_os.c **** 
 523:Middlewares/Third_Party/FreeRTOS/Source/CMSIS_RTOS/cmsis_os.c ****   return 0x80000000; /* Task Notification not supported */ 	
 524:Middlewares/Third_Party/FreeRTOS/Source/CMSIS_RTOS/cmsis_os.c **** #endif
 525:Middlewares/Third_Party/FreeRTOS/Source/CMSIS_RTOS/cmsis_os.c **** }
 779              		.loc 1 525 1 view .LVU160
 780 0054 05B0     		add	sp, sp, #20
 781              	.LCFI14:
 782              		.cfi_remember_state
 783              		.cfi_def_cfa_offset 12
 784              		@ sp needed
 785 0056 30BD     		pop	{r4, r5, pc}
 786              	.LVL53:
 787              	.L48:
 788              	.LCFI15:
 789              		.cfi_restore_state
 511:Middlewares/Third_Party/FreeRTOS/Source/CMSIS_RTOS/cmsis_os.c ****     
 790              		.loc 1 511 14 view .LVU161
 791 0058 4FF00040 		mov	r0, #-2147483648
 792 005c FAE7     		b	.L44
 793              	.L49:
 516:Middlewares/Third_Party/FreeRTOS/Source/CMSIS_RTOS/cmsis_os.c ****     return 0x80000000;
 794              		.loc 1 516 12 view .LVU162
 795 005e 4FF00040 		mov	r0, #-2147483648
 796 0062 F7E7     		b	.L44
 797              		.cfi_endproc
 798              	.LFE124:
 800              		.section	.text.osSignalWait,"ax",%progbits
 801              		.align	1
 802              		.global	osSignalWait
 803              		.syntax unified
 804              		.thumb
 805              		.thumb_func
 806              		.fpu fpv5-sp-d16
 808              	osSignalWait:
 809              	.LVL54:
 810              	.LFB125:
 526:Middlewares/Third_Party/FreeRTOS/Source/CMSIS_RTOS/cmsis_os.c **** 
 527:Middlewares/Third_Party/FreeRTOS/Source/CMSIS_RTOS/cmsis_os.c **** /**
 528:Middlewares/Third_Party/FreeRTOS/Source/CMSIS_RTOS/cmsis_os.c **** * @brief  Clear the specified Signal Flags of an active thread.
 529:Middlewares/Third_Party/FreeRTOS/Source/CMSIS_RTOS/cmsis_os.c **** * @param  thread_id  thread ID obtained by \ref osThreadCreate or \ref osThreadGetId.
 530:Middlewares/Third_Party/FreeRTOS/Source/CMSIS_RTOS/cmsis_os.c **** * @param  signals    specifies the signal flags of the thread that shall be cleared.
 531:Middlewares/Third_Party/FreeRTOS/Source/CMSIS_RTOS/cmsis_os.c **** * @retval  previous signal flags of the specified thread or 0x80000000 in case of incorrect paramet
 532:Middlewares/Third_Party/FreeRTOS/Source/CMSIS_RTOS/cmsis_os.c **** * @note   MUST REMAIN UNCHANGED: \b osSignalClear shall be consistent in every CMSIS-RTOS.
 533:Middlewares/Third_Party/FreeRTOS/Source/CMSIS_RTOS/cmsis_os.c **** */
 534:Middlewares/Third_Party/FreeRTOS/Source/CMSIS_RTOS/cmsis_os.c **** int32_t osSignalClear (osThreadId thread_id, int32_t signal);
 535:Middlewares/Third_Party/FreeRTOS/Source/CMSIS_RTOS/cmsis_os.c **** 
 536:Middlewares/Third_Party/FreeRTOS/Source/CMSIS_RTOS/cmsis_os.c **** /**
 537:Middlewares/Third_Party/FreeRTOS/Source/CMSIS_RTOS/cmsis_os.c **** * @brief  Wait for one or more Signal Flags to become signaled for the current \b RUNNING thread.
 538:Middlewares/Third_Party/FreeRTOS/Source/CMSIS_RTOS/cmsis_os.c **** * @param  signals   wait until all specified signal flags set or 0 for any single signal flag.
ARM GAS  C:\Users\seblo\AppData\Local\Temp\ccJuvw9h.s 			page 28


 539:Middlewares/Third_Party/FreeRTOS/Source/CMSIS_RTOS/cmsis_os.c **** * @param  millisec  timeout value or 0 in case of no time-out.
 540:Middlewares/Third_Party/FreeRTOS/Source/CMSIS_RTOS/cmsis_os.c **** * @retval  event flag information or error code.
 541:Middlewares/Third_Party/FreeRTOS/Source/CMSIS_RTOS/cmsis_os.c **** * @note   MUST REMAIN UNCHANGED: \b osSignalWait shall be consistent in every CMSIS-RTOS.
 542:Middlewares/Third_Party/FreeRTOS/Source/CMSIS_RTOS/cmsis_os.c **** */
 543:Middlewares/Third_Party/FreeRTOS/Source/CMSIS_RTOS/cmsis_os.c **** osEvent osSignalWait (int32_t signals, uint32_t millisec)
 544:Middlewares/Third_Party/FreeRTOS/Source/CMSIS_RTOS/cmsis_os.c **** {
 811              		.loc 1 544 1 is_stmt 1 view -0
 812              		.cfi_startproc
 813              		@ args = 0, pretend = 0, frame = 16
 814              		@ frame_needed = 0, uses_anonymous_args = 0
 815              		.loc 1 544 1 is_stmt 0 view .LVU164
 816 0000 70B5     		push	{r4, r5, r6, lr}
 817              	.LCFI16:
 818              		.cfi_def_cfa_offset 16
 819              		.cfi_offset 4, -16
 820              		.cfi_offset 5, -12
 821              		.cfi_offset 6, -8
 822              		.cfi_offset 14, -4
 823 0002 84B0     		sub	sp, sp, #16
 824              	.LCFI17:
 825              		.cfi_def_cfa_offset 32
 826 0004 0446     		mov	r4, r0
 827 0006 0E46     		mov	r6, r1
 828 0008 1546     		mov	r5, r2
 545:Middlewares/Third_Party/FreeRTOS/Source/CMSIS_RTOS/cmsis_os.c ****   osEvent ret;
 829              		.loc 1 545 3 is_stmt 1 view .LVU165
 546:Middlewares/Third_Party/FreeRTOS/Source/CMSIS_RTOS/cmsis_os.c **** 
 547:Middlewares/Third_Party/FreeRTOS/Source/CMSIS_RTOS/cmsis_os.c **** #if( configUSE_TASK_NOTIFICATIONS == 1 )
 548:Middlewares/Third_Party/FreeRTOS/Source/CMSIS_RTOS/cmsis_os.c **** 	
 549:Middlewares/Third_Party/FreeRTOS/Source/CMSIS_RTOS/cmsis_os.c ****   TickType_t ticks;
 830              		.loc 1 549 3 view .LVU166
 550:Middlewares/Third_Party/FreeRTOS/Source/CMSIS_RTOS/cmsis_os.c **** 
 551:Middlewares/Third_Party/FreeRTOS/Source/CMSIS_RTOS/cmsis_os.c ****   ret.value.signals = 0;  
 831              		.loc 1 551 3 view .LVU167
 832              		.loc 1 551 21 is_stmt 0 view .LVU168
 833 000a 0023     		movs	r3, #0
 834 000c 0293     		str	r3, [sp, #8]
 552:Middlewares/Third_Party/FreeRTOS/Source/CMSIS_RTOS/cmsis_os.c ****   ticks = 0;
 835              		.loc 1 552 3 is_stmt 1 view .LVU169
 836              	.LVL55:
 553:Middlewares/Third_Party/FreeRTOS/Source/CMSIS_RTOS/cmsis_os.c ****   if (millisec == osWaitForever) {
 837              		.loc 1 553 3 view .LVU170
 554:Middlewares/Third_Party/FreeRTOS/Source/CMSIS_RTOS/cmsis_os.c ****     ticks = portMAX_DELAY;
 555:Middlewares/Third_Party/FreeRTOS/Source/CMSIS_RTOS/cmsis_os.c ****   }
 556:Middlewares/Third_Party/FreeRTOS/Source/CMSIS_RTOS/cmsis_os.c ****   else if (millisec != 0) {
 557:Middlewares/Third_Party/FreeRTOS/Source/CMSIS_RTOS/cmsis_os.c ****     ticks = millisec / portTICK_PERIOD_MS;
 558:Middlewares/Third_Party/FreeRTOS/Source/CMSIS_RTOS/cmsis_os.c ****     if (ticks == 0) {
 559:Middlewares/Third_Party/FreeRTOS/Source/CMSIS_RTOS/cmsis_os.c ****       ticks = 1;
 560:Middlewares/Third_Party/FreeRTOS/Source/CMSIS_RTOS/cmsis_os.c ****     }
 561:Middlewares/Third_Party/FreeRTOS/Source/CMSIS_RTOS/cmsis_os.c ****   }  
 562:Middlewares/Third_Party/FreeRTOS/Source/CMSIS_RTOS/cmsis_os.c ****   
 563:Middlewares/Third_Party/FreeRTOS/Source/CMSIS_RTOS/cmsis_os.c ****   if (inHandlerMode())
 838              		.loc 1 563 3 view .LVU171
 839              		.loc 1 563 7 is_stmt 0 view .LVU172
 840 000e FFF7FEFF 		bl	inHandlerMode
 841              	.LVL56:
 842              		.loc 1 563 6 view .LVU173
ARM GAS  C:\Users\seblo\AppData\Local\Temp\ccJuvw9h.s 			page 29


 843 0012 48B1     		cbz	r0, .L52
 564:Middlewares/Third_Party/FreeRTOS/Source/CMSIS_RTOS/cmsis_os.c ****   {
 565:Middlewares/Third_Party/FreeRTOS/Source/CMSIS_RTOS/cmsis_os.c ****     ret.status = osErrorISR;  /*Not allowed in ISR*/
 844              		.loc 1 565 5 is_stmt 1 view .LVU174
 845              		.loc 1 565 16 is_stmt 0 view .LVU175
 846 0014 8223     		movs	r3, #130
 847 0016 0193     		str	r3, [sp, #4]
 848              	.L53:
 566:Middlewares/Third_Party/FreeRTOS/Source/CMSIS_RTOS/cmsis_os.c ****   }
 567:Middlewares/Third_Party/FreeRTOS/Source/CMSIS_RTOS/cmsis_os.c ****   else
 568:Middlewares/Third_Party/FreeRTOS/Source/CMSIS_RTOS/cmsis_os.c ****   {
 569:Middlewares/Third_Party/FreeRTOS/Source/CMSIS_RTOS/cmsis_os.c ****     if(xTaskNotifyWait( 0,(uint32_t) signals, (uint32_t *)&ret.value.signals, ticks) != pdTRUE)
 570:Middlewares/Third_Party/FreeRTOS/Source/CMSIS_RTOS/cmsis_os.c ****     {
 571:Middlewares/Third_Party/FreeRTOS/Source/CMSIS_RTOS/cmsis_os.c ****       if(ticks == 0)  ret.status = osOK;
 572:Middlewares/Third_Party/FreeRTOS/Source/CMSIS_RTOS/cmsis_os.c ****       else  ret.status = osEventTimeout;
 573:Middlewares/Third_Party/FreeRTOS/Source/CMSIS_RTOS/cmsis_os.c ****     }
 574:Middlewares/Third_Party/FreeRTOS/Source/CMSIS_RTOS/cmsis_os.c ****     else if(ret.value.signals < 0)
 575:Middlewares/Third_Party/FreeRTOS/Source/CMSIS_RTOS/cmsis_os.c ****     {
 576:Middlewares/Third_Party/FreeRTOS/Source/CMSIS_RTOS/cmsis_os.c ****       ret.status =  osErrorValue;     
 577:Middlewares/Third_Party/FreeRTOS/Source/CMSIS_RTOS/cmsis_os.c ****     }
 578:Middlewares/Third_Party/FreeRTOS/Source/CMSIS_RTOS/cmsis_os.c ****     else  ret.status =  osEventSignal;
 579:Middlewares/Third_Party/FreeRTOS/Source/CMSIS_RTOS/cmsis_os.c ****   }
 580:Middlewares/Third_Party/FreeRTOS/Source/CMSIS_RTOS/cmsis_os.c **** #else
 581:Middlewares/Third_Party/FreeRTOS/Source/CMSIS_RTOS/cmsis_os.c ****   (void) signals;
 582:Middlewares/Third_Party/FreeRTOS/Source/CMSIS_RTOS/cmsis_os.c ****   (void) millisec;
 583:Middlewares/Third_Party/FreeRTOS/Source/CMSIS_RTOS/cmsis_os.c **** 	
 584:Middlewares/Third_Party/FreeRTOS/Source/CMSIS_RTOS/cmsis_os.c ****   ret.status =  osErrorOS;	/* Task Notification not supported */
 585:Middlewares/Third_Party/FreeRTOS/Source/CMSIS_RTOS/cmsis_os.c **** #endif
 586:Middlewares/Third_Party/FreeRTOS/Source/CMSIS_RTOS/cmsis_os.c ****   
 587:Middlewares/Third_Party/FreeRTOS/Source/CMSIS_RTOS/cmsis_os.c ****   return ret;
 849              		.loc 1 587 3 is_stmt 1 view .LVU176
 850              		.loc 1 587 10 is_stmt 0 view .LVU177
 851 0018 04AB     		add	r3, sp, #16
 852 001a 13E90700 		ldmdb	r3, {r0, r1, r2}
 853 001e 84E80700 		stm	r4, {r0, r1, r2}
 588:Middlewares/Third_Party/FreeRTOS/Source/CMSIS_RTOS/cmsis_os.c **** }
 854              		.loc 1 588 1 view .LVU178
 855 0022 2046     		mov	r0, r4
 856 0024 04B0     		add	sp, sp, #16
 857              	.LCFI18:
 858              		.cfi_remember_state
 859              		.cfi_def_cfa_offset 16
 860              		@ sp needed
 861 0026 70BD     		pop	{r4, r5, r6, pc}
 862              	.LVL57:
 863              	.L52:
 864              	.LCFI19:
 865              		.cfi_restore_state
 569:Middlewares/Third_Party/FreeRTOS/Source/CMSIS_RTOS/cmsis_os.c ****     {
 866              		.loc 1 569 5 is_stmt 1 view .LVU179
 569:Middlewares/Third_Party/FreeRTOS/Source/CMSIS_RTOS/cmsis_os.c ****     {
 867              		.loc 1 569 8 is_stmt 0 view .LVU180
 868 0028 2B46     		mov	r3, r5
 869 002a 02AA     		add	r2, sp, #8
 870 002c 3146     		mov	r1, r6
 871 002e 0020     		movs	r0, #0
 872 0030 FFF7FEFF 		bl	xTaskNotifyWait
ARM GAS  C:\Users\seblo\AppData\Local\Temp\ccJuvw9h.s 			page 30


 873              	.LVL58:
 569:Middlewares/Third_Party/FreeRTOS/Source/CMSIS_RTOS/cmsis_os.c ****     {
 874              		.loc 1 569 7 view .LVU181
 875 0034 0128     		cmp	r0, #1
 876 0036 06D0     		beq	.L54
 571:Middlewares/Third_Party/FreeRTOS/Source/CMSIS_RTOS/cmsis_os.c ****       else  ret.status = osEventTimeout;
 877              		.loc 1 571 7 is_stmt 1 view .LVU182
 571:Middlewares/Third_Party/FreeRTOS/Source/CMSIS_RTOS/cmsis_os.c ****       else  ret.status = osEventTimeout;
 878              		.loc 1 571 9 is_stmt 0 view .LVU183
 879 0038 15B9     		cbnz	r5, .L55
 571:Middlewares/Third_Party/FreeRTOS/Source/CMSIS_RTOS/cmsis_os.c ****       else  ret.status = osEventTimeout;
 880              		.loc 1 571 23 is_stmt 1 discriminator 1 view .LVU184
 571:Middlewares/Third_Party/FreeRTOS/Source/CMSIS_RTOS/cmsis_os.c ****       else  ret.status = osEventTimeout;
 881              		.loc 1 571 34 is_stmt 0 discriminator 1 view .LVU185
 882 003a 0023     		movs	r3, #0
 883 003c 0193     		str	r3, [sp, #4]
 884 003e EBE7     		b	.L53
 885              	.L55:
 572:Middlewares/Third_Party/FreeRTOS/Source/CMSIS_RTOS/cmsis_os.c ****     }
 886              		.loc 1 572 13 is_stmt 1 view .LVU186
 572:Middlewares/Third_Party/FreeRTOS/Source/CMSIS_RTOS/cmsis_os.c ****     }
 887              		.loc 1 572 24 is_stmt 0 view .LVU187
 888 0040 4023     		movs	r3, #64
 889 0042 0193     		str	r3, [sp, #4]
 890 0044 E8E7     		b	.L53
 891              	.L54:
 574:Middlewares/Third_Party/FreeRTOS/Source/CMSIS_RTOS/cmsis_os.c ****     {
 892              		.loc 1 574 10 is_stmt 1 view .LVU188
 574:Middlewares/Third_Party/FreeRTOS/Source/CMSIS_RTOS/cmsis_os.c ****     {
 893              		.loc 1 574 22 is_stmt 0 view .LVU189
 894 0046 029B     		ldr	r3, [sp, #8]
 574:Middlewares/Third_Party/FreeRTOS/Source/CMSIS_RTOS/cmsis_os.c ****     {
 895              		.loc 1 574 12 view .LVU190
 896 0048 002B     		cmp	r3, #0
 897 004a 02DB     		blt	.L58
 578:Middlewares/Third_Party/FreeRTOS/Source/CMSIS_RTOS/cmsis_os.c ****   }
 898              		.loc 1 578 11 is_stmt 1 view .LVU191
 578:Middlewares/Third_Party/FreeRTOS/Source/CMSIS_RTOS/cmsis_os.c ****   }
 899              		.loc 1 578 22 is_stmt 0 view .LVU192
 900 004c 0823     		movs	r3, #8
 901 004e 0193     		str	r3, [sp, #4]
 902 0050 E2E7     		b	.L53
 903              	.L58:
 576:Middlewares/Third_Party/FreeRTOS/Source/CMSIS_RTOS/cmsis_os.c ****     }
 904              		.loc 1 576 7 is_stmt 1 view .LVU193
 576:Middlewares/Third_Party/FreeRTOS/Source/CMSIS_RTOS/cmsis_os.c ****     }
 905              		.loc 1 576 18 is_stmt 0 view .LVU194
 906 0052 8623     		movs	r3, #134
 907 0054 0193     		str	r3, [sp, #4]
 908 0056 DFE7     		b	.L53
 909              		.cfi_endproc
 910              	.LFE125:
 912              		.section	.text.osMutexCreate,"ax",%progbits
 913              		.align	1
 914              		.global	osMutexCreate
 915              		.syntax unified
 916              		.thumb
ARM GAS  C:\Users\seblo\AppData\Local\Temp\ccJuvw9h.s 			page 31


 917              		.thumb_func
 918              		.fpu fpv5-sp-d16
 920              	osMutexCreate:
 921              	.LVL59:
 922              	.LFB126:
 589:Middlewares/Third_Party/FreeRTOS/Source/CMSIS_RTOS/cmsis_os.c **** 
 590:Middlewares/Third_Party/FreeRTOS/Source/CMSIS_RTOS/cmsis_os.c **** /****************************  Mutex Management ********************************/
 591:Middlewares/Third_Party/FreeRTOS/Source/CMSIS_RTOS/cmsis_os.c **** /**
 592:Middlewares/Third_Party/FreeRTOS/Source/CMSIS_RTOS/cmsis_os.c **** * @brief  Create and Initialize a Mutex object
 593:Middlewares/Third_Party/FreeRTOS/Source/CMSIS_RTOS/cmsis_os.c **** * @param  mutex_def     mutex definition referenced with \ref osMutex.
 594:Middlewares/Third_Party/FreeRTOS/Source/CMSIS_RTOS/cmsis_os.c **** * @retval  mutex ID for reference by other functions or NULL in case of error.
 595:Middlewares/Third_Party/FreeRTOS/Source/CMSIS_RTOS/cmsis_os.c **** * @note   MUST REMAIN UNCHANGED: \b osMutexCreate shall be consistent in every CMSIS-RTOS.
 596:Middlewares/Third_Party/FreeRTOS/Source/CMSIS_RTOS/cmsis_os.c **** */
 597:Middlewares/Third_Party/FreeRTOS/Source/CMSIS_RTOS/cmsis_os.c **** osMutexId osMutexCreate (const osMutexDef_t *mutex_def)
 598:Middlewares/Third_Party/FreeRTOS/Source/CMSIS_RTOS/cmsis_os.c **** {
 923              		.loc 1 598 1 is_stmt 1 view -0
 924              		.cfi_startproc
 925              		@ args = 0, pretend = 0, frame = 0
 926              		@ frame_needed = 0, uses_anonymous_args = 0
 927              		.loc 1 598 1 is_stmt 0 view .LVU196
 928 0000 08B5     		push	{r3, lr}
 929              	.LCFI20:
 930              		.cfi_def_cfa_offset 8
 931              		.cfi_offset 3, -8
 932              		.cfi_offset 14, -4
 599:Middlewares/Third_Party/FreeRTOS/Source/CMSIS_RTOS/cmsis_os.c **** #if ( configUSE_MUTEXES == 1)
 600:Middlewares/Third_Party/FreeRTOS/Source/CMSIS_RTOS/cmsis_os.c **** 
 601:Middlewares/Third_Party/FreeRTOS/Source/CMSIS_RTOS/cmsis_os.c **** #if( configSUPPORT_STATIC_ALLOCATION == 1 ) && ( configSUPPORT_DYNAMIC_ALLOCATION == 1 )
 602:Middlewares/Third_Party/FreeRTOS/Source/CMSIS_RTOS/cmsis_os.c **** 
 603:Middlewares/Third_Party/FreeRTOS/Source/CMSIS_RTOS/cmsis_os.c ****   if (mutex_def->controlblock != NULL) {
 933              		.loc 1 603 3 is_stmt 1 view .LVU197
 934              		.loc 1 603 16 is_stmt 0 view .LVU198
 935 0002 4168     		ldr	r1, [r0, #4]
 936              		.loc 1 603 6 view .LVU199
 937 0004 19B1     		cbz	r1, .L60
 604:Middlewares/Third_Party/FreeRTOS/Source/CMSIS_RTOS/cmsis_os.c ****     return xSemaphoreCreateMutexStatic( mutex_def->controlblock );
 938              		.loc 1 604 5 is_stmt 1 view .LVU200
 939              		.loc 1 604 12 is_stmt 0 view .LVU201
 940 0006 0120     		movs	r0, #1
 941              	.LVL60:
 942              		.loc 1 604 12 view .LVU202
 943 0008 FFF7FEFF 		bl	xQueueCreateMutexStatic
 944              	.LVL61:
 945              	.L59:
 605:Middlewares/Third_Party/FreeRTOS/Source/CMSIS_RTOS/cmsis_os.c ****      }
 606:Middlewares/Third_Party/FreeRTOS/Source/CMSIS_RTOS/cmsis_os.c ****   else {
 607:Middlewares/Third_Party/FreeRTOS/Source/CMSIS_RTOS/cmsis_os.c ****     return xSemaphoreCreateMutex(); 
 608:Middlewares/Third_Party/FreeRTOS/Source/CMSIS_RTOS/cmsis_os.c ****   }
 609:Middlewares/Third_Party/FreeRTOS/Source/CMSIS_RTOS/cmsis_os.c **** #elif ( configSUPPORT_STATIC_ALLOCATION == 1 )
 610:Middlewares/Third_Party/FreeRTOS/Source/CMSIS_RTOS/cmsis_os.c ****   return xSemaphoreCreateMutexStatic( mutex_def->controlblock );
 611:Middlewares/Third_Party/FreeRTOS/Source/CMSIS_RTOS/cmsis_os.c **** #else  
 612:Middlewares/Third_Party/FreeRTOS/Source/CMSIS_RTOS/cmsis_os.c ****     return xSemaphoreCreateMutex(); 
 613:Middlewares/Third_Party/FreeRTOS/Source/CMSIS_RTOS/cmsis_os.c **** #endif
 614:Middlewares/Third_Party/FreeRTOS/Source/CMSIS_RTOS/cmsis_os.c **** #else
 615:Middlewares/Third_Party/FreeRTOS/Source/CMSIS_RTOS/cmsis_os.c ****   return NULL;
 616:Middlewares/Third_Party/FreeRTOS/Source/CMSIS_RTOS/cmsis_os.c **** #endif
 617:Middlewares/Third_Party/FreeRTOS/Source/CMSIS_RTOS/cmsis_os.c **** }
ARM GAS  C:\Users\seblo\AppData\Local\Temp\ccJuvw9h.s 			page 32


 946              		.loc 1 617 1 view .LVU203
 947 000c 08BD     		pop	{r3, pc}
 948              	.LVL62:
 949              	.L60:
 607:Middlewares/Third_Party/FreeRTOS/Source/CMSIS_RTOS/cmsis_os.c ****   }
 950              		.loc 1 607 5 is_stmt 1 view .LVU204
 607:Middlewares/Third_Party/FreeRTOS/Source/CMSIS_RTOS/cmsis_os.c ****   }
 951              		.loc 1 607 12 is_stmt 0 view .LVU205
 952 000e 0120     		movs	r0, #1
 953              	.LVL63:
 607:Middlewares/Third_Party/FreeRTOS/Source/CMSIS_RTOS/cmsis_os.c ****   }
 954              		.loc 1 607 12 view .LVU206
 955 0010 FFF7FEFF 		bl	xQueueCreateMutex
 956              	.LVL64:
 957 0014 FAE7     		b	.L59
 958              		.cfi_endproc
 959              	.LFE126:
 961              		.section	.text.osMutexWait,"ax",%progbits
 962              		.align	1
 963              		.global	osMutexWait
 964              		.syntax unified
 965              		.thumb
 966              		.thumb_func
 967              		.fpu fpv5-sp-d16
 969              	osMutexWait:
 970              	.LVL65:
 971              	.LFB127:
 618:Middlewares/Third_Party/FreeRTOS/Source/CMSIS_RTOS/cmsis_os.c **** 
 619:Middlewares/Third_Party/FreeRTOS/Source/CMSIS_RTOS/cmsis_os.c **** /**
 620:Middlewares/Third_Party/FreeRTOS/Source/CMSIS_RTOS/cmsis_os.c **** * @brief Wait until a Mutex becomes available
 621:Middlewares/Third_Party/FreeRTOS/Source/CMSIS_RTOS/cmsis_os.c **** * @param mutex_id      mutex ID obtained by \ref osMutexCreate.
 622:Middlewares/Third_Party/FreeRTOS/Source/CMSIS_RTOS/cmsis_os.c **** * @param millisec      timeout value or 0 in case of no time-out.
 623:Middlewares/Third_Party/FreeRTOS/Source/CMSIS_RTOS/cmsis_os.c **** * @retval  status code that indicates the execution status of the function.
 624:Middlewares/Third_Party/FreeRTOS/Source/CMSIS_RTOS/cmsis_os.c **** * @note   MUST REMAIN UNCHANGED: \b osMutexWait shall be consistent in every CMSIS-RTOS.
 625:Middlewares/Third_Party/FreeRTOS/Source/CMSIS_RTOS/cmsis_os.c **** */
 626:Middlewares/Third_Party/FreeRTOS/Source/CMSIS_RTOS/cmsis_os.c **** osStatus osMutexWait (osMutexId mutex_id, uint32_t millisec)
 627:Middlewares/Third_Party/FreeRTOS/Source/CMSIS_RTOS/cmsis_os.c **** {
 972              		.loc 1 627 1 is_stmt 1 view -0
 973              		.cfi_startproc
 974              		@ args = 0, pretend = 0, frame = 8
 975              		@ frame_needed = 0, uses_anonymous_args = 0
 976              		.loc 1 627 1 is_stmt 0 view .LVU208
 977 0000 30B5     		push	{r4, r5, lr}
 978              	.LCFI21:
 979              		.cfi_def_cfa_offset 12
 980              		.cfi_offset 4, -12
 981              		.cfi_offset 5, -8
 982              		.cfi_offset 14, -4
 983 0002 83B0     		sub	sp, sp, #12
 984              	.LCFI22:
 985              		.cfi_def_cfa_offset 24
 628:Middlewares/Third_Party/FreeRTOS/Source/CMSIS_RTOS/cmsis_os.c ****   TickType_t ticks;
 986              		.loc 1 628 3 is_stmt 1 view .LVU209
 629:Middlewares/Third_Party/FreeRTOS/Source/CMSIS_RTOS/cmsis_os.c ****   portBASE_TYPE taskWoken = pdFALSE;  
 987              		.loc 1 629 3 view .LVU210
 988              		.loc 1 629 17 is_stmt 0 view .LVU211
 989 0004 0023     		movs	r3, #0
ARM GAS  C:\Users\seblo\AppData\Local\Temp\ccJuvw9h.s 			page 33


 990 0006 0193     		str	r3, [sp, #4]
 630:Middlewares/Third_Party/FreeRTOS/Source/CMSIS_RTOS/cmsis_os.c ****   
 631:Middlewares/Third_Party/FreeRTOS/Source/CMSIS_RTOS/cmsis_os.c ****   
 632:Middlewares/Third_Party/FreeRTOS/Source/CMSIS_RTOS/cmsis_os.c ****   if (mutex_id == NULL) {
 991              		.loc 1 632 3 is_stmt 1 view .LVU212
 992              		.loc 1 632 6 is_stmt 0 view .LVU213
 993 0008 10B3     		cbz	r0, .L66
 994 000a 0C46     		mov	r4, r1
 995 000c 0546     		mov	r5, r0
 633:Middlewares/Third_Party/FreeRTOS/Source/CMSIS_RTOS/cmsis_os.c ****     return osErrorParameter;
 634:Middlewares/Third_Party/FreeRTOS/Source/CMSIS_RTOS/cmsis_os.c ****   }
 635:Middlewares/Third_Party/FreeRTOS/Source/CMSIS_RTOS/cmsis_os.c ****   
 636:Middlewares/Third_Party/FreeRTOS/Source/CMSIS_RTOS/cmsis_os.c ****   ticks = 0;
 996              		.loc 1 636 3 is_stmt 1 view .LVU214
 997              	.LVL66:
 637:Middlewares/Third_Party/FreeRTOS/Source/CMSIS_RTOS/cmsis_os.c ****   if (millisec == osWaitForever) {
 998              		.loc 1 637 3 view .LVU215
 638:Middlewares/Third_Party/FreeRTOS/Source/CMSIS_RTOS/cmsis_os.c ****     ticks = portMAX_DELAY;
 639:Middlewares/Third_Party/FreeRTOS/Source/CMSIS_RTOS/cmsis_os.c ****   }
 640:Middlewares/Third_Party/FreeRTOS/Source/CMSIS_RTOS/cmsis_os.c ****   else if (millisec != 0) {
 641:Middlewares/Third_Party/FreeRTOS/Source/CMSIS_RTOS/cmsis_os.c ****     ticks = millisec / portTICK_PERIOD_MS;
 642:Middlewares/Third_Party/FreeRTOS/Source/CMSIS_RTOS/cmsis_os.c ****     if (ticks == 0) {
 643:Middlewares/Third_Party/FreeRTOS/Source/CMSIS_RTOS/cmsis_os.c ****       ticks = 1;
 644:Middlewares/Third_Party/FreeRTOS/Source/CMSIS_RTOS/cmsis_os.c ****     }
 645:Middlewares/Third_Party/FreeRTOS/Source/CMSIS_RTOS/cmsis_os.c ****   }
 646:Middlewares/Third_Party/FreeRTOS/Source/CMSIS_RTOS/cmsis_os.c ****   
 647:Middlewares/Third_Party/FreeRTOS/Source/CMSIS_RTOS/cmsis_os.c ****   if (inHandlerMode()) {
 999              		.loc 1 647 3 view .LVU216
 1000              		.loc 1 647 7 is_stmt 0 view .LVU217
 1001 000e FFF7FEFF 		bl	inHandlerMode
 1002              	.LVL67:
 1003              		.loc 1 647 6 view .LVU218
 1004 0012 A0B1     		cbz	r0, .L65
 648:Middlewares/Third_Party/FreeRTOS/Source/CMSIS_RTOS/cmsis_os.c ****     if (xSemaphoreTakeFromISR(mutex_id, &taskWoken) != pdTRUE) {
 1005              		.loc 1 648 5 is_stmt 1 view .LVU219
 1006              		.loc 1 648 9 is_stmt 0 view .LVU220
 1007 0014 01AA     		add	r2, sp, #4
 1008 0016 0021     		movs	r1, #0
 1009 0018 2846     		mov	r0, r5
 1010 001a FFF7FEFF 		bl	xQueueReceiveFromISR
 1011              	.LVL68:
 1012              		.loc 1 648 8 view .LVU221
 1013 001e 0128     		cmp	r0, #1
 1014 0020 18D1     		bne	.L67
 649:Middlewares/Third_Party/FreeRTOS/Source/CMSIS_RTOS/cmsis_os.c ****       return osErrorOS;
 650:Middlewares/Third_Party/FreeRTOS/Source/CMSIS_RTOS/cmsis_os.c ****     }
 651:Middlewares/Third_Party/FreeRTOS/Source/CMSIS_RTOS/cmsis_os.c **** 	portEND_SWITCHING_ISR(taskWoken);
 1015              		.loc 1 651 2 is_stmt 1 view .LVU222
 1016 0022 019B     		ldr	r3, [sp, #4]
 1017 0024 C3B1     		cbz	r3, .L68
 1018              		.loc 1 651 2 discriminator 1 view .LVU223
 1019 0026 4FF0E023 		mov	r3, #-536813568
 1020 002a 4FF08052 		mov	r2, #268435456
 1021 002e C3F8042D 		str	r2, [r3, #3332]
 1022              		.loc 1 651 2 discriminator 1 view .LVU224
 1023              		.syntax unified
 1024              	@ 651 "Middlewares/Third_Party/FreeRTOS/Source/CMSIS_RTOS/cmsis_os.c" 1
ARM GAS  C:\Users\seblo\AppData\Local\Temp\ccJuvw9h.s 			page 34


 1025 0032 BFF34F8F 		dsb
 1026              	@ 0 "" 2
 1027              		.loc 1 651 2 discriminator 1 view .LVU225
 1028              	@ 651 "Middlewares/Third_Party/FreeRTOS/Source/CMSIS_RTOS/cmsis_os.c" 1
 1029 0036 BFF36F8F 		isb
 1030              	@ 0 "" 2
 652:Middlewares/Third_Party/FreeRTOS/Source/CMSIS_RTOS/cmsis_os.c ****   } 
 653:Middlewares/Third_Party/FreeRTOS/Source/CMSIS_RTOS/cmsis_os.c ****   else if (xSemaphoreTake(mutex_id, ticks) != pdTRUE) {
 654:Middlewares/Third_Party/FreeRTOS/Source/CMSIS_RTOS/cmsis_os.c ****     return osErrorOS;
 655:Middlewares/Third_Party/FreeRTOS/Source/CMSIS_RTOS/cmsis_os.c ****   }
 656:Middlewares/Third_Party/FreeRTOS/Source/CMSIS_RTOS/cmsis_os.c ****   
 657:Middlewares/Third_Party/FreeRTOS/Source/CMSIS_RTOS/cmsis_os.c ****   return osOK;
 1031              		.loc 1 657 10 is_stmt 0 discriminator 1 view .LVU226
 1032              		.thumb
 1033              		.syntax unified
 1034 003a 0020     		movs	r0, #0
 1035 003c 06E0     		b	.L63
 1036              	.L65:
 653:Middlewares/Third_Party/FreeRTOS/Source/CMSIS_RTOS/cmsis_os.c ****     return osErrorOS;
 1037              		.loc 1 653 8 is_stmt 1 view .LVU227
 653:Middlewares/Third_Party/FreeRTOS/Source/CMSIS_RTOS/cmsis_os.c ****     return osErrorOS;
 1038              		.loc 1 653 12 is_stmt 0 view .LVU228
 1039 003e 2146     		mov	r1, r4
 1040 0040 2846     		mov	r0, r5
 1041 0042 FFF7FEFF 		bl	xQueueSemaphoreTake
 1042              	.LVL69:
 653:Middlewares/Third_Party/FreeRTOS/Source/CMSIS_RTOS/cmsis_os.c ****     return osErrorOS;
 1043              		.loc 1 653 11 view .LVU229
 1044 0046 0128     		cmp	r0, #1
 1045 0048 08D1     		bne	.L69
 1046              		.loc 1 657 10 view .LVU230
 1047 004a 0020     		movs	r0, #0
 1048              	.LVL70:
 1049              	.L63:
 658:Middlewares/Third_Party/FreeRTOS/Source/CMSIS_RTOS/cmsis_os.c **** }
 1050              		.loc 1 658 1 view .LVU231
 1051 004c 03B0     		add	sp, sp, #12
 1052              	.LCFI23:
 1053              		.cfi_remember_state
 1054              		.cfi_def_cfa_offset 12
 1055              		@ sp needed
 1056 004e 30BD     		pop	{r4, r5, pc}
 1057              	.LVL71:
 1058              	.L66:
 1059              	.LCFI24:
 1060              		.cfi_restore_state
 633:Middlewares/Third_Party/FreeRTOS/Source/CMSIS_RTOS/cmsis_os.c ****   }
 1061              		.loc 1 633 12 view .LVU232
 1062 0050 8020     		movs	r0, #128
 1063              	.LVL72:
 633:Middlewares/Third_Party/FreeRTOS/Source/CMSIS_RTOS/cmsis_os.c ****   }
 1064              		.loc 1 633 12 view .LVU233
 1065 0052 FBE7     		b	.L63
 1066              	.LVL73:
 1067              	.L67:
 649:Middlewares/Third_Party/FreeRTOS/Source/CMSIS_RTOS/cmsis_os.c ****     }
 1068              		.loc 1 649 14 view .LVU234
ARM GAS  C:\Users\seblo\AppData\Local\Temp\ccJuvw9h.s 			page 35


 1069 0054 FF20     		movs	r0, #255
 1070 0056 F9E7     		b	.L63
 1071              	.L68:
 657:Middlewares/Third_Party/FreeRTOS/Source/CMSIS_RTOS/cmsis_os.c **** }
 1072              		.loc 1 657 10 view .LVU235
 1073 0058 0020     		movs	r0, #0
 1074 005a F7E7     		b	.L63
 1075              	.L69:
 654:Middlewares/Third_Party/FreeRTOS/Source/CMSIS_RTOS/cmsis_os.c ****   }
 1076              		.loc 1 654 12 view .LVU236
 1077 005c FF20     		movs	r0, #255
 1078 005e F5E7     		b	.L63
 1079              		.cfi_endproc
 1080              	.LFE127:
 1082              		.section	.text.osMutexRelease,"ax",%progbits
 1083              		.align	1
 1084              		.global	osMutexRelease
 1085              		.syntax unified
 1086              		.thumb
 1087              		.thumb_func
 1088              		.fpu fpv5-sp-d16
 1090              	osMutexRelease:
 1091              	.LVL74:
 1092              	.LFB128:
 659:Middlewares/Third_Party/FreeRTOS/Source/CMSIS_RTOS/cmsis_os.c **** 
 660:Middlewares/Third_Party/FreeRTOS/Source/CMSIS_RTOS/cmsis_os.c **** /**
 661:Middlewares/Third_Party/FreeRTOS/Source/CMSIS_RTOS/cmsis_os.c **** * @brief Release a Mutex that was obtained by \ref osMutexWait
 662:Middlewares/Third_Party/FreeRTOS/Source/CMSIS_RTOS/cmsis_os.c **** * @param mutex_id      mutex ID obtained by \ref osMutexCreate.
 663:Middlewares/Third_Party/FreeRTOS/Source/CMSIS_RTOS/cmsis_os.c **** * @retval  status code that indicates the execution status of the function.
 664:Middlewares/Third_Party/FreeRTOS/Source/CMSIS_RTOS/cmsis_os.c **** * @note   MUST REMAIN UNCHANGED: \b osMutexRelease shall be consistent in every CMSIS-RTOS.
 665:Middlewares/Third_Party/FreeRTOS/Source/CMSIS_RTOS/cmsis_os.c **** */
 666:Middlewares/Third_Party/FreeRTOS/Source/CMSIS_RTOS/cmsis_os.c **** osStatus osMutexRelease (osMutexId mutex_id)
 667:Middlewares/Third_Party/FreeRTOS/Source/CMSIS_RTOS/cmsis_os.c **** {
 1093              		.loc 1 667 1 is_stmt 1 view -0
 1094              		.cfi_startproc
 1095              		@ args = 0, pretend = 0, frame = 8
 1096              		@ frame_needed = 0, uses_anonymous_args = 0
 1097              		.loc 1 667 1 is_stmt 0 view .LVU238
 1098 0000 10B5     		push	{r4, lr}
 1099              	.LCFI25:
 1100              		.cfi_def_cfa_offset 8
 1101              		.cfi_offset 4, -8
 1102              		.cfi_offset 14, -4
 1103 0002 82B0     		sub	sp, sp, #8
 1104              	.LCFI26:
 1105              		.cfi_def_cfa_offset 16
 1106 0004 0446     		mov	r4, r0
 668:Middlewares/Third_Party/FreeRTOS/Source/CMSIS_RTOS/cmsis_os.c ****   osStatus result = osOK;
 1107              		.loc 1 668 3 is_stmt 1 view .LVU239
 1108              	.LVL75:
 669:Middlewares/Third_Party/FreeRTOS/Source/CMSIS_RTOS/cmsis_os.c ****   portBASE_TYPE taskWoken = pdFALSE;
 1109              		.loc 1 669 3 view .LVU240
 1110              		.loc 1 669 17 is_stmt 0 view .LVU241
 1111 0006 0023     		movs	r3, #0
 1112 0008 0193     		str	r3, [sp, #4]
 670:Middlewares/Third_Party/FreeRTOS/Source/CMSIS_RTOS/cmsis_os.c ****   
 671:Middlewares/Third_Party/FreeRTOS/Source/CMSIS_RTOS/cmsis_os.c ****   if (inHandlerMode()) {
ARM GAS  C:\Users\seblo\AppData\Local\Temp\ccJuvw9h.s 			page 36


 1113              		.loc 1 671 3 is_stmt 1 view .LVU242
 1114              		.loc 1 671 7 is_stmt 0 view .LVU243
 1115 000a FFF7FEFF 		bl	inHandlerMode
 1116              	.LVL76:
 1117              		.loc 1 671 6 view .LVU244
 1118 000e 98B1     		cbz	r0, .L72
 672:Middlewares/Third_Party/FreeRTOS/Source/CMSIS_RTOS/cmsis_os.c ****     if (xSemaphoreGiveFromISR(mutex_id, &taskWoken) != pdTRUE) {
 1119              		.loc 1 672 5 is_stmt 1 view .LVU245
 1120              		.loc 1 672 9 is_stmt 0 view .LVU246
 1121 0010 01A9     		add	r1, sp, #4
 1122 0012 2046     		mov	r0, r4
 1123 0014 FFF7FEFF 		bl	xQueueGiveFromISR
 1124              	.LVL77:
 1125              		.loc 1 672 8 view .LVU247
 1126 0018 0128     		cmp	r0, #1
 1127 001a 1AD1     		bne	.L74
 673:Middlewares/Third_Party/FreeRTOS/Source/CMSIS_RTOS/cmsis_os.c ****       return osErrorOS;
 674:Middlewares/Third_Party/FreeRTOS/Source/CMSIS_RTOS/cmsis_os.c ****     }
 675:Middlewares/Third_Party/FreeRTOS/Source/CMSIS_RTOS/cmsis_os.c ****     portEND_SWITCHING_ISR(taskWoken);
 1128              		.loc 1 675 5 is_stmt 1 view .LVU248
 1129 001c 019B     		ldr	r3, [sp, #4]
 1130 001e D3B1     		cbz	r3, .L75
 1131              		.loc 1 675 5 discriminator 1 view .LVU249
 1132 0020 4FF0E023 		mov	r3, #-536813568
 1133 0024 4FF08052 		mov	r2, #268435456
 1134 0028 C3F8042D 		str	r2, [r3, #3332]
 1135              		.loc 1 675 5 discriminator 1 view .LVU250
 1136              		.syntax unified
 1137              	@ 675 "Middlewares/Third_Party/FreeRTOS/Source/CMSIS_RTOS/cmsis_os.c" 1
 1138 002c BFF34F8F 		dsb
 1139              	@ 0 "" 2
 1140              		.loc 1 675 5 discriminator 1 view .LVU251
 1141              	@ 675 "Middlewares/Third_Party/FreeRTOS/Source/CMSIS_RTOS/cmsis_os.c" 1
 1142 0030 BFF36F8F 		isb
 1143              	@ 0 "" 2
 668:Middlewares/Third_Party/FreeRTOS/Source/CMSIS_RTOS/cmsis_os.c ****   portBASE_TYPE taskWoken = pdFALSE;
 1144              		.loc 1 668 12 is_stmt 0 discriminator 1 view .LVU252
 1145              		.thumb
 1146              		.syntax unified
 1147 0034 0020     		movs	r0, #0
 1148 0036 08E0     		b	.L71
 1149              	.L72:
 676:Middlewares/Third_Party/FreeRTOS/Source/CMSIS_RTOS/cmsis_os.c ****   }
 677:Middlewares/Third_Party/FreeRTOS/Source/CMSIS_RTOS/cmsis_os.c ****   else if (xSemaphoreGive(mutex_id) != pdTRUE) 
 1150              		.loc 1 677 8 is_stmt 1 view .LVU253
 1151              		.loc 1 677 12 is_stmt 0 view .LVU254
 1152 0038 0023     		movs	r3, #0
 1153 003a 1A46     		mov	r2, r3
 1154 003c 1946     		mov	r1, r3
 1155 003e 2046     		mov	r0, r4
 1156 0040 FFF7FEFF 		bl	xQueueGenericSend
 1157              	.LVL78:
 1158              		.loc 1 677 11 view .LVU255
 1159 0044 0128     		cmp	r0, #1
 1160 0046 02D0     		beq	.L78
 678:Middlewares/Third_Party/FreeRTOS/Source/CMSIS_RTOS/cmsis_os.c ****   {
 679:Middlewares/Third_Party/FreeRTOS/Source/CMSIS_RTOS/cmsis_os.c ****     result = osErrorOS;
ARM GAS  C:\Users\seblo\AppData\Local\Temp\ccJuvw9h.s 			page 37


 1161              		.loc 1 679 12 view .LVU256
 1162 0048 FF20     		movs	r0, #255
 1163              	.LVL79:
 1164              	.L71:
 680:Middlewares/Third_Party/FreeRTOS/Source/CMSIS_RTOS/cmsis_os.c ****   }
 681:Middlewares/Third_Party/FreeRTOS/Source/CMSIS_RTOS/cmsis_os.c ****   return result;
 682:Middlewares/Third_Party/FreeRTOS/Source/CMSIS_RTOS/cmsis_os.c **** }
 1165              		.loc 1 682 1 view .LVU257
 1166 004a 02B0     		add	sp, sp, #8
 1167              	.LCFI27:
 1168              		.cfi_remember_state
 1169              		.cfi_def_cfa_offset 8
 1170              		@ sp needed
 1171 004c 10BD     		pop	{r4, pc}
 1172              	.LVL80:
 1173              	.L78:
 1174              	.LCFI28:
 1175              		.cfi_restore_state
 668:Middlewares/Third_Party/FreeRTOS/Source/CMSIS_RTOS/cmsis_os.c ****   portBASE_TYPE taskWoken = pdFALSE;
 1176              		.loc 1 668 12 view .LVU258
 1177 004e 0020     		movs	r0, #0
 1178 0050 FBE7     		b	.L71
 1179              	.L74:
 673:Middlewares/Third_Party/FreeRTOS/Source/CMSIS_RTOS/cmsis_os.c ****     }
 1180              		.loc 1 673 14 view .LVU259
 1181 0052 FF20     		movs	r0, #255
 1182 0054 F9E7     		b	.L71
 1183              	.L75:
 668:Middlewares/Third_Party/FreeRTOS/Source/CMSIS_RTOS/cmsis_os.c ****   portBASE_TYPE taskWoken = pdFALSE;
 1184              		.loc 1 668 12 view .LVU260
 1185 0056 0020     		movs	r0, #0
 1186 0058 F7E7     		b	.L71
 1187              		.cfi_endproc
 1188              	.LFE128:
 1190              		.section	.text.osMutexDelete,"ax",%progbits
 1191              		.align	1
 1192              		.global	osMutexDelete
 1193              		.syntax unified
 1194              		.thumb
 1195              		.thumb_func
 1196              		.fpu fpv5-sp-d16
 1198              	osMutexDelete:
 1199              	.LVL81:
 1200              	.LFB129:
 683:Middlewares/Third_Party/FreeRTOS/Source/CMSIS_RTOS/cmsis_os.c **** 
 684:Middlewares/Third_Party/FreeRTOS/Source/CMSIS_RTOS/cmsis_os.c **** /**
 685:Middlewares/Third_Party/FreeRTOS/Source/CMSIS_RTOS/cmsis_os.c **** * @brief Delete a Mutex
 686:Middlewares/Third_Party/FreeRTOS/Source/CMSIS_RTOS/cmsis_os.c **** * @param mutex_id  mutex ID obtained by \ref osMutexCreate.
 687:Middlewares/Third_Party/FreeRTOS/Source/CMSIS_RTOS/cmsis_os.c **** * @retval  status code that indicates the execution status of the function.
 688:Middlewares/Third_Party/FreeRTOS/Source/CMSIS_RTOS/cmsis_os.c **** * @note   MUST REMAIN UNCHANGED: \b osMutexDelete shall be consistent in every CMSIS-RTOS.
 689:Middlewares/Third_Party/FreeRTOS/Source/CMSIS_RTOS/cmsis_os.c **** */
 690:Middlewares/Third_Party/FreeRTOS/Source/CMSIS_RTOS/cmsis_os.c **** osStatus osMutexDelete (osMutexId mutex_id)
 691:Middlewares/Third_Party/FreeRTOS/Source/CMSIS_RTOS/cmsis_os.c **** {
 1201              		.loc 1 691 1 is_stmt 1 view -0
 1202              		.cfi_startproc
 1203              		@ args = 0, pretend = 0, frame = 0
 1204              		@ frame_needed = 0, uses_anonymous_args = 0
ARM GAS  C:\Users\seblo\AppData\Local\Temp\ccJuvw9h.s 			page 38


 1205              		.loc 1 691 1 is_stmt 0 view .LVU262
 1206 0000 10B5     		push	{r4, lr}
 1207              	.LCFI29:
 1208              		.cfi_def_cfa_offset 8
 1209              		.cfi_offset 4, -8
 1210              		.cfi_offset 14, -4
 1211 0002 0446     		mov	r4, r0
 692:Middlewares/Third_Party/FreeRTOS/Source/CMSIS_RTOS/cmsis_os.c ****   if (inHandlerMode()) {
 1212              		.loc 1 692 3 is_stmt 1 view .LVU263
 1213              		.loc 1 692 7 is_stmt 0 view .LVU264
 1214 0004 FFF7FEFF 		bl	inHandlerMode
 1215              	.LVL82:
 1216              		.loc 1 692 6 view .LVU265
 1217 0008 20B9     		cbnz	r0, .L81
 693:Middlewares/Third_Party/FreeRTOS/Source/CMSIS_RTOS/cmsis_os.c ****     return osErrorISR;
 694:Middlewares/Third_Party/FreeRTOS/Source/CMSIS_RTOS/cmsis_os.c ****   }
 695:Middlewares/Third_Party/FreeRTOS/Source/CMSIS_RTOS/cmsis_os.c **** 
 696:Middlewares/Third_Party/FreeRTOS/Source/CMSIS_RTOS/cmsis_os.c ****   vQueueDelete(mutex_id);
 1218              		.loc 1 696 3 is_stmt 1 view .LVU266
 1219 000a 2046     		mov	r0, r4
 1220 000c FFF7FEFF 		bl	vQueueDelete
 1221              	.LVL83:
 697:Middlewares/Third_Party/FreeRTOS/Source/CMSIS_RTOS/cmsis_os.c **** 
 698:Middlewares/Third_Party/FreeRTOS/Source/CMSIS_RTOS/cmsis_os.c ****   return osOK;
 1222              		.loc 1 698 3 view .LVU267
 1223              		.loc 1 698 10 is_stmt 0 view .LVU268
 1224 0010 0020     		movs	r0, #0
 1225              	.L79:
 699:Middlewares/Third_Party/FreeRTOS/Source/CMSIS_RTOS/cmsis_os.c **** }
 1226              		.loc 1 699 1 view .LVU269
 1227 0012 10BD     		pop	{r4, pc}
 1228              	.LVL84:
 1229              	.L81:
 693:Middlewares/Third_Party/FreeRTOS/Source/CMSIS_RTOS/cmsis_os.c ****     return osErrorISR;
 1230              		.loc 1 693 12 view .LVU270
 1231 0014 8220     		movs	r0, #130
 1232 0016 FCE7     		b	.L79
 1233              		.cfi_endproc
 1234              	.LFE129:
 1236              		.section	.text.osSemaphoreCreate,"ax",%progbits
 1237              		.align	1
 1238              		.global	osSemaphoreCreate
 1239              		.syntax unified
 1240              		.thumb
 1241              		.thumb_func
 1242              		.fpu fpv5-sp-d16
 1244              	osSemaphoreCreate:
 1245              	.LVL85:
 1246              	.LFB130:
 700:Middlewares/Third_Party/FreeRTOS/Source/CMSIS_RTOS/cmsis_os.c **** 
 701:Middlewares/Third_Party/FreeRTOS/Source/CMSIS_RTOS/cmsis_os.c **** /********************  Semaphore Management Functions **************************/
 702:Middlewares/Third_Party/FreeRTOS/Source/CMSIS_RTOS/cmsis_os.c **** 
 703:Middlewares/Third_Party/FreeRTOS/Source/CMSIS_RTOS/cmsis_os.c **** #if (defined (osFeature_Semaphore)  &&  (osFeature_Semaphore != 0))
 704:Middlewares/Third_Party/FreeRTOS/Source/CMSIS_RTOS/cmsis_os.c **** 
 705:Middlewares/Third_Party/FreeRTOS/Source/CMSIS_RTOS/cmsis_os.c **** /**
 706:Middlewares/Third_Party/FreeRTOS/Source/CMSIS_RTOS/cmsis_os.c **** * @brief Create and Initialize a Semaphore object used for managing resources
 707:Middlewares/Third_Party/FreeRTOS/Source/CMSIS_RTOS/cmsis_os.c **** * @param semaphore_def semaphore definition referenced with \ref osSemaphore.
ARM GAS  C:\Users\seblo\AppData\Local\Temp\ccJuvw9h.s 			page 39


 708:Middlewares/Third_Party/FreeRTOS/Source/CMSIS_RTOS/cmsis_os.c **** * @param count         number of available resources.
 709:Middlewares/Third_Party/FreeRTOS/Source/CMSIS_RTOS/cmsis_os.c **** * @retval  semaphore ID for reference by other functions or NULL in case of error.
 710:Middlewares/Third_Party/FreeRTOS/Source/CMSIS_RTOS/cmsis_os.c **** * @note   MUST REMAIN UNCHANGED: \b osSemaphoreCreate shall be consistent in every CMSIS-RTOS.
 711:Middlewares/Third_Party/FreeRTOS/Source/CMSIS_RTOS/cmsis_os.c **** */
 712:Middlewares/Third_Party/FreeRTOS/Source/CMSIS_RTOS/cmsis_os.c **** osSemaphoreId osSemaphoreCreate (const osSemaphoreDef_t *semaphore_def, int32_t count)
 713:Middlewares/Third_Party/FreeRTOS/Source/CMSIS_RTOS/cmsis_os.c **** { 
 1247              		.loc 1 713 1 is_stmt 1 view -0
 1248              		.cfi_startproc
 1249              		@ args = 0, pretend = 0, frame = 0
 1250              		@ frame_needed = 0, uses_anonymous_args = 0
 1251              		.loc 1 713 1 is_stmt 0 view .LVU272
 1252 0000 10B5     		push	{r4, lr}
 1253              	.LCFI30:
 1254              		.cfi_def_cfa_offset 8
 1255              		.cfi_offset 4, -8
 1256              		.cfi_offset 14, -4
 1257 0002 82B0     		sub	sp, sp, #8
 1258              	.LCFI31:
 1259              		.cfi_def_cfa_offset 16
 714:Middlewares/Third_Party/FreeRTOS/Source/CMSIS_RTOS/cmsis_os.c **** #if( configSUPPORT_STATIC_ALLOCATION == 1 ) && ( configSUPPORT_DYNAMIC_ALLOCATION == 1 )
 715:Middlewares/Third_Party/FreeRTOS/Source/CMSIS_RTOS/cmsis_os.c **** 
 716:Middlewares/Third_Party/FreeRTOS/Source/CMSIS_RTOS/cmsis_os.c ****   osSemaphoreId sema;
 1260              		.loc 1 716 3 is_stmt 1 view .LVU273
 717:Middlewares/Third_Party/FreeRTOS/Source/CMSIS_RTOS/cmsis_os.c ****   
 718:Middlewares/Third_Party/FreeRTOS/Source/CMSIS_RTOS/cmsis_os.c ****   if (semaphore_def->controlblock != NULL){
 1261              		.loc 1 718 3 view .LVU274
 1262              		.loc 1 718 20 is_stmt 0 view .LVU275
 1263 0004 4268     		ldr	r2, [r0, #4]
 1264              		.loc 1 718 6 view .LVU276
 1265 0006 92B1     		cbz	r2, .L84
 719:Middlewares/Third_Party/FreeRTOS/Source/CMSIS_RTOS/cmsis_os.c ****     if (count == 1) {
 1266              		.loc 1 719 5 is_stmt 1 view .LVU277
 1267              		.loc 1 719 8 is_stmt 0 view .LVU278
 1268 0008 0129     		cmp	r1, #1
 1269 000a 06D0     		beq	.L90
 720:Middlewares/Third_Party/FreeRTOS/Source/CMSIS_RTOS/cmsis_os.c ****       return xSemaphoreCreateBinaryStatic( semaphore_def->controlblock );
 721:Middlewares/Third_Party/FreeRTOS/Source/CMSIS_RTOS/cmsis_os.c ****     }
 722:Middlewares/Third_Party/FreeRTOS/Source/CMSIS_RTOS/cmsis_os.c ****     else {
 723:Middlewares/Third_Party/FreeRTOS/Source/CMSIS_RTOS/cmsis_os.c **** #if (configUSE_COUNTING_SEMAPHORES == 1 )
 724:Middlewares/Third_Party/FreeRTOS/Source/CMSIS_RTOS/cmsis_os.c ****       return xSemaphoreCreateCountingStatic( count, count, semaphore_def->controlblock );
 1270              		.loc 1 724 7 is_stmt 1 view .LVU279
 1271              		.loc 1 724 14 is_stmt 0 view .LVU280
 1272 000c 0846     		mov	r0, r1
 1273              	.LVL86:
 1274              		.loc 1 724 14 view .LVU281
 1275 000e FFF7FEFF 		bl	xQueueCreateCountingSemaphoreStatic
 1276              	.LVL87:
 1277              		.loc 1 724 14 view .LVU282
 1278 0012 0446     		mov	r4, r0
 1279              	.L83:
 725:Middlewares/Third_Party/FreeRTOS/Source/CMSIS_RTOS/cmsis_os.c **** #else
 726:Middlewares/Third_Party/FreeRTOS/Source/CMSIS_RTOS/cmsis_os.c ****       return NULL;
 727:Middlewares/Third_Party/FreeRTOS/Source/CMSIS_RTOS/cmsis_os.c **** #endif
 728:Middlewares/Third_Party/FreeRTOS/Source/CMSIS_RTOS/cmsis_os.c ****     }
 729:Middlewares/Third_Party/FreeRTOS/Source/CMSIS_RTOS/cmsis_os.c ****   }
 730:Middlewares/Third_Party/FreeRTOS/Source/CMSIS_RTOS/cmsis_os.c ****   else {
 731:Middlewares/Third_Party/FreeRTOS/Source/CMSIS_RTOS/cmsis_os.c ****     if (count == 1) {
ARM GAS  C:\Users\seblo\AppData\Local\Temp\ccJuvw9h.s 			page 40


 732:Middlewares/Third_Party/FreeRTOS/Source/CMSIS_RTOS/cmsis_os.c ****       vSemaphoreCreateBinary(sema);
 733:Middlewares/Third_Party/FreeRTOS/Source/CMSIS_RTOS/cmsis_os.c ****       return sema;
 734:Middlewares/Third_Party/FreeRTOS/Source/CMSIS_RTOS/cmsis_os.c ****     }
 735:Middlewares/Third_Party/FreeRTOS/Source/CMSIS_RTOS/cmsis_os.c ****     else {
 736:Middlewares/Third_Party/FreeRTOS/Source/CMSIS_RTOS/cmsis_os.c **** #if (configUSE_COUNTING_SEMAPHORES == 1 )	
 737:Middlewares/Third_Party/FreeRTOS/Source/CMSIS_RTOS/cmsis_os.c ****       return xSemaphoreCreateCounting(count, count);
 738:Middlewares/Third_Party/FreeRTOS/Source/CMSIS_RTOS/cmsis_os.c **** #else
 739:Middlewares/Third_Party/FreeRTOS/Source/CMSIS_RTOS/cmsis_os.c ****       return NULL;
 740:Middlewares/Third_Party/FreeRTOS/Source/CMSIS_RTOS/cmsis_os.c **** #endif    
 741:Middlewares/Third_Party/FreeRTOS/Source/CMSIS_RTOS/cmsis_os.c ****     }
 742:Middlewares/Third_Party/FreeRTOS/Source/CMSIS_RTOS/cmsis_os.c ****   }
 743:Middlewares/Third_Party/FreeRTOS/Source/CMSIS_RTOS/cmsis_os.c **** #elif ( configSUPPORT_STATIC_ALLOCATION == 1 ) // configSUPPORT_DYNAMIC_ALLOCATION == 0
 744:Middlewares/Third_Party/FreeRTOS/Source/CMSIS_RTOS/cmsis_os.c ****   if(count == 1) {
 745:Middlewares/Third_Party/FreeRTOS/Source/CMSIS_RTOS/cmsis_os.c ****     return xSemaphoreCreateBinaryStatic( semaphore_def->controlblock );
 746:Middlewares/Third_Party/FreeRTOS/Source/CMSIS_RTOS/cmsis_os.c ****   }
 747:Middlewares/Third_Party/FreeRTOS/Source/CMSIS_RTOS/cmsis_os.c ****   else
 748:Middlewares/Third_Party/FreeRTOS/Source/CMSIS_RTOS/cmsis_os.c ****   {
 749:Middlewares/Third_Party/FreeRTOS/Source/CMSIS_RTOS/cmsis_os.c **** #if (configUSE_COUNTING_SEMAPHORES == 1 )
 750:Middlewares/Third_Party/FreeRTOS/Source/CMSIS_RTOS/cmsis_os.c ****       return xSemaphoreCreateCountingStatic( count, count, semaphore_def->controlblock );
 751:Middlewares/Third_Party/FreeRTOS/Source/CMSIS_RTOS/cmsis_os.c **** #else
 752:Middlewares/Third_Party/FreeRTOS/Source/CMSIS_RTOS/cmsis_os.c ****       return NULL;
 753:Middlewares/Third_Party/FreeRTOS/Source/CMSIS_RTOS/cmsis_os.c **** #endif    
 754:Middlewares/Third_Party/FreeRTOS/Source/CMSIS_RTOS/cmsis_os.c ****   }
 755:Middlewares/Third_Party/FreeRTOS/Source/CMSIS_RTOS/cmsis_os.c **** #else  // configSUPPORT_STATIC_ALLOCATION == 0  && configSUPPORT_DYNAMIC_ALLOCATION == 1
 756:Middlewares/Third_Party/FreeRTOS/Source/CMSIS_RTOS/cmsis_os.c ****   osSemaphoreId sema;
 757:Middlewares/Third_Party/FreeRTOS/Source/CMSIS_RTOS/cmsis_os.c ****  
 758:Middlewares/Third_Party/FreeRTOS/Source/CMSIS_RTOS/cmsis_os.c ****   if (count == 1) {
 759:Middlewares/Third_Party/FreeRTOS/Source/CMSIS_RTOS/cmsis_os.c ****     vSemaphoreCreateBinary(sema);
 760:Middlewares/Third_Party/FreeRTOS/Source/CMSIS_RTOS/cmsis_os.c ****     return sema;
 761:Middlewares/Third_Party/FreeRTOS/Source/CMSIS_RTOS/cmsis_os.c ****   }
 762:Middlewares/Third_Party/FreeRTOS/Source/CMSIS_RTOS/cmsis_os.c ****   else {
 763:Middlewares/Third_Party/FreeRTOS/Source/CMSIS_RTOS/cmsis_os.c **** #if (configUSE_COUNTING_SEMAPHORES == 1 )	
 764:Middlewares/Third_Party/FreeRTOS/Source/CMSIS_RTOS/cmsis_os.c ****     return xSemaphoreCreateCounting(count, count);
 765:Middlewares/Third_Party/FreeRTOS/Source/CMSIS_RTOS/cmsis_os.c **** #else
 766:Middlewares/Third_Party/FreeRTOS/Source/CMSIS_RTOS/cmsis_os.c ****     return NULL;
 767:Middlewares/Third_Party/FreeRTOS/Source/CMSIS_RTOS/cmsis_os.c **** #endif
 768:Middlewares/Third_Party/FreeRTOS/Source/CMSIS_RTOS/cmsis_os.c ****   }
 769:Middlewares/Third_Party/FreeRTOS/Source/CMSIS_RTOS/cmsis_os.c **** #endif
 770:Middlewares/Third_Party/FreeRTOS/Source/CMSIS_RTOS/cmsis_os.c **** }
 1280              		.loc 1 770 1 view .LVU283
 1281 0014 2046     		mov	r0, r4
 1282 0016 02B0     		add	sp, sp, #8
 1283              	.LCFI32:
 1284              		.cfi_remember_state
 1285              		.cfi_def_cfa_offset 8
 1286              		@ sp needed
 1287 0018 10BD     		pop	{r4, pc}
 1288              	.LVL88:
 1289              	.L90:
 1290              	.LCFI33:
 1291              		.cfi_restore_state
 720:Middlewares/Third_Party/FreeRTOS/Source/CMSIS_RTOS/cmsis_os.c ****       return xSemaphoreCreateBinaryStatic( semaphore_def->controlblock );
 1292              		.loc 1 720 7 is_stmt 1 view .LVU284
 720:Middlewares/Third_Party/FreeRTOS/Source/CMSIS_RTOS/cmsis_os.c ****       return xSemaphoreCreateBinaryStatic( semaphore_def->controlblock );
 1293              		.loc 1 720 14 is_stmt 0 view .LVU285
 1294 001a 0323     		movs	r3, #3
 1295 001c 0093     		str	r3, [sp]
ARM GAS  C:\Users\seblo\AppData\Local\Temp\ccJuvw9h.s 			page 41


 1296 001e 1346     		mov	r3, r2
 1297 0020 0022     		movs	r2, #0
 1298 0022 1146     		mov	r1, r2
 1299              	.LVL89:
 720:Middlewares/Third_Party/FreeRTOS/Source/CMSIS_RTOS/cmsis_os.c ****       return xSemaphoreCreateBinaryStatic( semaphore_def->controlblock );
 1300              		.loc 1 720 14 view .LVU286
 1301 0024 0120     		movs	r0, #1
 1302              	.LVL90:
 720:Middlewares/Third_Party/FreeRTOS/Source/CMSIS_RTOS/cmsis_os.c ****       return xSemaphoreCreateBinaryStatic( semaphore_def->controlblock );
 1303              		.loc 1 720 14 view .LVU287
 1304 0026 FFF7FEFF 		bl	xQueueGenericCreateStatic
 1305              	.LVL91:
 1306 002a 0446     		mov	r4, r0
 1307 002c F2E7     		b	.L83
 1308              	.LVL92:
 1309              	.L84:
 731:Middlewares/Third_Party/FreeRTOS/Source/CMSIS_RTOS/cmsis_os.c ****       vSemaphoreCreateBinary(sema);
 1310              		.loc 1 731 5 is_stmt 1 view .LVU288
 731:Middlewares/Third_Party/FreeRTOS/Source/CMSIS_RTOS/cmsis_os.c ****       vSemaphoreCreateBinary(sema);
 1311              		.loc 1 731 8 is_stmt 0 view .LVU289
 1312 002e 0129     		cmp	r1, #1
 1313 0030 04D0     		beq	.L91
 737:Middlewares/Third_Party/FreeRTOS/Source/CMSIS_RTOS/cmsis_os.c **** #else
 1314              		.loc 1 737 7 is_stmt 1 view .LVU290
 737:Middlewares/Third_Party/FreeRTOS/Source/CMSIS_RTOS/cmsis_os.c **** #else
 1315              		.loc 1 737 14 is_stmt 0 view .LVU291
 1316 0032 0846     		mov	r0, r1
 1317              	.LVL93:
 737:Middlewares/Third_Party/FreeRTOS/Source/CMSIS_RTOS/cmsis_os.c **** #else
 1318              		.loc 1 737 14 view .LVU292
 1319 0034 FFF7FEFF 		bl	xQueueCreateCountingSemaphore
 1320              	.LVL94:
 737:Middlewares/Third_Party/FreeRTOS/Source/CMSIS_RTOS/cmsis_os.c **** #else
 1321              		.loc 1 737 14 view .LVU293
 1322 0038 0446     		mov	r4, r0
 1323 003a EBE7     		b	.L83
 1324              	.LVL95:
 1325              	.L91:
 732:Middlewares/Third_Party/FreeRTOS/Source/CMSIS_RTOS/cmsis_os.c ****       return sema;
 1326              		.loc 1 732 7 is_stmt 1 view .LVU294
 1327 003c 0322     		movs	r2, #3
 1328 003e 0021     		movs	r1, #0
 1329              	.LVL96:
 732:Middlewares/Third_Party/FreeRTOS/Source/CMSIS_RTOS/cmsis_os.c ****       return sema;
 1330              		.loc 1 732 7 is_stmt 0 view .LVU295
 1331 0040 0120     		movs	r0, #1
 1332              	.LVL97:
 732:Middlewares/Third_Party/FreeRTOS/Source/CMSIS_RTOS/cmsis_os.c ****       return sema;
 1333              		.loc 1 732 7 view .LVU296
 1334 0042 FFF7FEFF 		bl	xQueueGenericCreate
 1335              	.LVL98:
 732:Middlewares/Third_Party/FreeRTOS/Source/CMSIS_RTOS/cmsis_os.c ****       return sema;
 1336              		.loc 1 732 7 is_stmt 1 view .LVU297
 1337 0046 0446     		mov	r4, r0
 1338 0048 0028     		cmp	r0, #0
 1339 004a E3D0     		beq	.L83
 732:Middlewares/Third_Party/FreeRTOS/Source/CMSIS_RTOS/cmsis_os.c ****       return sema;
ARM GAS  C:\Users\seblo\AppData\Local\Temp\ccJuvw9h.s 			page 42


 1340              		.loc 1 732 7 discriminator 1 view .LVU298
 1341 004c 0023     		movs	r3, #0
 1342 004e 1A46     		mov	r2, r3
 1343 0050 1946     		mov	r1, r3
 1344 0052 FFF7FEFF 		bl	xQueueGenericSend
 1345              	.LVL99:
 732:Middlewares/Third_Party/FreeRTOS/Source/CMSIS_RTOS/cmsis_os.c ****       return sema;
 1346              		.loc 1 732 35 discriminator 1 view .LVU299
 733:Middlewares/Third_Party/FreeRTOS/Source/CMSIS_RTOS/cmsis_os.c ****     }
 1347              		.loc 1 733 7 discriminator 1 view .LVU300
 733:Middlewares/Third_Party/FreeRTOS/Source/CMSIS_RTOS/cmsis_os.c ****     }
 1348              		.loc 1 733 14 is_stmt 0 discriminator 1 view .LVU301
 1349 0056 DDE7     		b	.L83
 1350              		.cfi_endproc
 1351              	.LFE130:
 1353              		.section	.text.osSemaphoreWait,"ax",%progbits
 1354              		.align	1
 1355              		.global	osSemaphoreWait
 1356              		.syntax unified
 1357              		.thumb
 1358              		.thumb_func
 1359              		.fpu fpv5-sp-d16
 1361              	osSemaphoreWait:
 1362              	.LVL100:
 1363              	.LFB131:
 771:Middlewares/Third_Party/FreeRTOS/Source/CMSIS_RTOS/cmsis_os.c **** 
 772:Middlewares/Third_Party/FreeRTOS/Source/CMSIS_RTOS/cmsis_os.c **** /**
 773:Middlewares/Third_Party/FreeRTOS/Source/CMSIS_RTOS/cmsis_os.c **** * @brief Wait until a Semaphore token becomes available
 774:Middlewares/Third_Party/FreeRTOS/Source/CMSIS_RTOS/cmsis_os.c **** * @param  semaphore_id  semaphore object referenced with \ref osSemaphore.
 775:Middlewares/Third_Party/FreeRTOS/Source/CMSIS_RTOS/cmsis_os.c **** * @param  millisec      timeout value or 0 in case of no time-out.
 776:Middlewares/Third_Party/FreeRTOS/Source/CMSIS_RTOS/cmsis_os.c **** * @retval  number of available tokens, or -1 in case of incorrect parameters.
 777:Middlewares/Third_Party/FreeRTOS/Source/CMSIS_RTOS/cmsis_os.c **** * @note   MUST REMAIN UNCHANGED: \b osSemaphoreWait shall be consistent in every CMSIS-RTOS.
 778:Middlewares/Third_Party/FreeRTOS/Source/CMSIS_RTOS/cmsis_os.c **** */
 779:Middlewares/Third_Party/FreeRTOS/Source/CMSIS_RTOS/cmsis_os.c **** int32_t osSemaphoreWait (osSemaphoreId semaphore_id, uint32_t millisec)
 780:Middlewares/Third_Party/FreeRTOS/Source/CMSIS_RTOS/cmsis_os.c **** {
 1364              		.loc 1 780 1 is_stmt 1 view -0
 1365              		.cfi_startproc
 1366              		@ args = 0, pretend = 0, frame = 8
 1367              		@ frame_needed = 0, uses_anonymous_args = 0
 1368              		.loc 1 780 1 is_stmt 0 view .LVU303
 1369 0000 70B5     		push	{r4, r5, r6, lr}
 1370              	.LCFI34:
 1371              		.cfi_def_cfa_offset 16
 1372              		.cfi_offset 4, -16
 1373              		.cfi_offset 5, -12
 1374              		.cfi_offset 6, -8
 1375              		.cfi_offset 14, -4
 1376 0002 82B0     		sub	sp, sp, #8
 1377              	.LCFI35:
 1378              		.cfi_def_cfa_offset 24
 781:Middlewares/Third_Party/FreeRTOS/Source/CMSIS_RTOS/cmsis_os.c ****   TickType_t ticks;
 1379              		.loc 1 781 3 is_stmt 1 view .LVU304
 782:Middlewares/Third_Party/FreeRTOS/Source/CMSIS_RTOS/cmsis_os.c ****   portBASE_TYPE taskWoken = pdFALSE;  
 1380              		.loc 1 782 3 view .LVU305
 1381              		.loc 1 782 17 is_stmt 0 view .LVU306
 1382 0004 0023     		movs	r3, #0
 1383 0006 0193     		str	r3, [sp, #4]
ARM GAS  C:\Users\seblo\AppData\Local\Temp\ccJuvw9h.s 			page 43


 783:Middlewares/Third_Party/FreeRTOS/Source/CMSIS_RTOS/cmsis_os.c ****   
 784:Middlewares/Third_Party/FreeRTOS/Source/CMSIS_RTOS/cmsis_os.c ****   
 785:Middlewares/Third_Party/FreeRTOS/Source/CMSIS_RTOS/cmsis_os.c ****   if (semaphore_id == NULL) {
 1384              		.loc 1 785 3 is_stmt 1 view .LVU307
 1385              		.loc 1 785 6 is_stmt 0 view .LVU308
 1386 0008 18B3     		cbz	r0, .L95
 1387 000a 0C46     		mov	r4, r1
 1388 000c 0646     		mov	r6, r0
 786:Middlewares/Third_Party/FreeRTOS/Source/CMSIS_RTOS/cmsis_os.c ****     return osErrorParameter;
 787:Middlewares/Third_Party/FreeRTOS/Source/CMSIS_RTOS/cmsis_os.c ****   }
 788:Middlewares/Third_Party/FreeRTOS/Source/CMSIS_RTOS/cmsis_os.c ****   
 789:Middlewares/Third_Party/FreeRTOS/Source/CMSIS_RTOS/cmsis_os.c ****   ticks = 0;
 1389              		.loc 1 789 3 is_stmt 1 view .LVU309
 1390              	.LVL101:
 790:Middlewares/Third_Party/FreeRTOS/Source/CMSIS_RTOS/cmsis_os.c ****   if (millisec == osWaitForever) {
 1391              		.loc 1 790 3 view .LVU310
 791:Middlewares/Third_Party/FreeRTOS/Source/CMSIS_RTOS/cmsis_os.c ****     ticks = portMAX_DELAY;
 792:Middlewares/Third_Party/FreeRTOS/Source/CMSIS_RTOS/cmsis_os.c ****   }
 793:Middlewares/Third_Party/FreeRTOS/Source/CMSIS_RTOS/cmsis_os.c ****   else if (millisec != 0) {
 794:Middlewares/Third_Party/FreeRTOS/Source/CMSIS_RTOS/cmsis_os.c ****     ticks = millisec / portTICK_PERIOD_MS;
 795:Middlewares/Third_Party/FreeRTOS/Source/CMSIS_RTOS/cmsis_os.c ****     if (ticks == 0) {
 796:Middlewares/Third_Party/FreeRTOS/Source/CMSIS_RTOS/cmsis_os.c ****       ticks = 1;
 797:Middlewares/Third_Party/FreeRTOS/Source/CMSIS_RTOS/cmsis_os.c ****     }
 798:Middlewares/Third_Party/FreeRTOS/Source/CMSIS_RTOS/cmsis_os.c ****   }
 799:Middlewares/Third_Party/FreeRTOS/Source/CMSIS_RTOS/cmsis_os.c ****   
 800:Middlewares/Third_Party/FreeRTOS/Source/CMSIS_RTOS/cmsis_os.c ****   if (inHandlerMode()) {
 1392              		.loc 1 800 3 view .LVU311
 1393              		.loc 1 800 7 is_stmt 0 view .LVU312
 1394 000e FFF7FEFF 		bl	inHandlerMode
 1395              	.LVL102:
 1396              		.loc 1 800 6 view .LVU313
 1397 0012 0546     		mov	r5, r0
 1398 0014 A0B1     		cbz	r0, .L94
 801:Middlewares/Third_Party/FreeRTOS/Source/CMSIS_RTOS/cmsis_os.c ****     if (xSemaphoreTakeFromISR(semaphore_id, &taskWoken) != pdTRUE) {
 1399              		.loc 1 801 5 is_stmt 1 view .LVU314
 1400              		.loc 1 801 9 is_stmt 0 view .LVU315
 1401 0016 01AA     		add	r2, sp, #4
 1402 0018 0021     		movs	r1, #0
 1403 001a 3046     		mov	r0, r6
 1404 001c FFF7FEFF 		bl	xQueueReceiveFromISR
 1405              	.LVL103:
 1406              		.loc 1 801 8 view .LVU316
 1407 0020 0128     		cmp	r0, #1
 1408 0022 18D1     		bne	.L96
 802:Middlewares/Third_Party/FreeRTOS/Source/CMSIS_RTOS/cmsis_os.c ****       return osErrorOS;
 803:Middlewares/Third_Party/FreeRTOS/Source/CMSIS_RTOS/cmsis_os.c ****     }
 804:Middlewares/Third_Party/FreeRTOS/Source/CMSIS_RTOS/cmsis_os.c **** 	portEND_SWITCHING_ISR(taskWoken);
 1409              		.loc 1 804 2 is_stmt 1 view .LVU317
 1410 0024 019D     		ldr	r5, [sp, #4]
 1411 0026 8DB1     		cbz	r5, .L92
 1412              		.loc 1 804 2 discriminator 1 view .LVU318
 1413 0028 4FF0E023 		mov	r3, #-536813568
 1414 002c 4FF08052 		mov	r2, #268435456
 1415 0030 C3F8042D 		str	r2, [r3, #3332]
 1416              		.loc 1 804 2 discriminator 1 view .LVU319
 1417              		.syntax unified
 1418              	@ 804 "Middlewares/Third_Party/FreeRTOS/Source/CMSIS_RTOS/cmsis_os.c" 1
ARM GAS  C:\Users\seblo\AppData\Local\Temp\ccJuvw9h.s 			page 44


 1419 0034 BFF34F8F 		dsb
 1420              	@ 0 "" 2
 1421              		.loc 1 804 2 discriminator 1 view .LVU320
 1422              	@ 804 "Middlewares/Third_Party/FreeRTOS/Source/CMSIS_RTOS/cmsis_os.c" 1
 1423 0038 BFF36F8F 		isb
 1424              	@ 0 "" 2
 805:Middlewares/Third_Party/FreeRTOS/Source/CMSIS_RTOS/cmsis_os.c ****   }  
 806:Middlewares/Third_Party/FreeRTOS/Source/CMSIS_RTOS/cmsis_os.c ****   else if (xSemaphoreTake(semaphore_id, ticks) != pdTRUE) {
 807:Middlewares/Third_Party/FreeRTOS/Source/CMSIS_RTOS/cmsis_os.c ****     return osErrorOS;
 808:Middlewares/Third_Party/FreeRTOS/Source/CMSIS_RTOS/cmsis_os.c ****   }
 809:Middlewares/Third_Party/FreeRTOS/Source/CMSIS_RTOS/cmsis_os.c ****   
 810:Middlewares/Third_Party/FreeRTOS/Source/CMSIS_RTOS/cmsis_os.c ****   return osOK;
 1425              		.loc 1 810 10 is_stmt 0 discriminator 1 view .LVU321
 1426              		.thumb
 1427              		.syntax unified
 1428 003c 0025     		movs	r5, #0
 1429 003e 05E0     		b	.L92
 1430              	.L94:
 806:Middlewares/Third_Party/FreeRTOS/Source/CMSIS_RTOS/cmsis_os.c ****     return osErrorOS;
 1431              		.loc 1 806 8 is_stmt 1 view .LVU322
 806:Middlewares/Third_Party/FreeRTOS/Source/CMSIS_RTOS/cmsis_os.c ****     return osErrorOS;
 1432              		.loc 1 806 12 is_stmt 0 view .LVU323
 1433 0040 2146     		mov	r1, r4
 1434 0042 3046     		mov	r0, r6
 1435 0044 FFF7FEFF 		bl	xQueueSemaphoreTake
 1436              	.LVL104:
 806:Middlewares/Third_Party/FreeRTOS/Source/CMSIS_RTOS/cmsis_os.c ****     return osErrorOS;
 1437              		.loc 1 806 11 view .LVU324
 1438 0048 0128     		cmp	r0, #1
 1439 004a 06D1     		bne	.L99
 1440              	.LVL105:
 1441              	.L92:
 811:Middlewares/Third_Party/FreeRTOS/Source/CMSIS_RTOS/cmsis_os.c **** }
 1442              		.loc 1 811 1 view .LVU325
 1443 004c 2846     		mov	r0, r5
 1444 004e 02B0     		add	sp, sp, #8
 1445              	.LCFI36:
 1446              		.cfi_remember_state
 1447              		.cfi_def_cfa_offset 16
 1448              		@ sp needed
 1449 0050 70BD     		pop	{r4, r5, r6, pc}
 1450              	.LVL106:
 1451              	.L95:
 1452              	.LCFI37:
 1453              		.cfi_restore_state
 786:Middlewares/Third_Party/FreeRTOS/Source/CMSIS_RTOS/cmsis_os.c ****   }
 1454              		.loc 1 786 12 view .LVU326
 1455 0052 8025     		movs	r5, #128
 1456 0054 FAE7     		b	.L92
 1457              	.LVL107:
 1458              	.L96:
 802:Middlewares/Third_Party/FreeRTOS/Source/CMSIS_RTOS/cmsis_os.c ****     }
 1459              		.loc 1 802 14 view .LVU327
 1460 0056 FF25     		movs	r5, #255
 1461 0058 F8E7     		b	.L92
 1462              	.L99:
 807:Middlewares/Third_Party/FreeRTOS/Source/CMSIS_RTOS/cmsis_os.c ****   }
ARM GAS  C:\Users\seblo\AppData\Local\Temp\ccJuvw9h.s 			page 45


 1463              		.loc 1 807 12 view .LVU328
 1464 005a FF25     		movs	r5, #255
 1465 005c F6E7     		b	.L92
 1466              		.cfi_endproc
 1467              	.LFE131:
 1469              		.section	.text.osSemaphoreRelease,"ax",%progbits
 1470              		.align	1
 1471              		.global	osSemaphoreRelease
 1472              		.syntax unified
 1473              		.thumb
 1474              		.thumb_func
 1475              		.fpu fpv5-sp-d16
 1477              	osSemaphoreRelease:
 1478              	.LVL108:
 1479              	.LFB132:
 812:Middlewares/Third_Party/FreeRTOS/Source/CMSIS_RTOS/cmsis_os.c **** 
 813:Middlewares/Third_Party/FreeRTOS/Source/CMSIS_RTOS/cmsis_os.c **** /**
 814:Middlewares/Third_Party/FreeRTOS/Source/CMSIS_RTOS/cmsis_os.c **** * @brief Release a Semaphore token
 815:Middlewares/Third_Party/FreeRTOS/Source/CMSIS_RTOS/cmsis_os.c **** * @param  semaphore_id  semaphore object referenced with \ref osSemaphore.
 816:Middlewares/Third_Party/FreeRTOS/Source/CMSIS_RTOS/cmsis_os.c **** * @retval  status code that indicates the execution status of the function.
 817:Middlewares/Third_Party/FreeRTOS/Source/CMSIS_RTOS/cmsis_os.c **** * @note   MUST REMAIN UNCHANGED: \b osSemaphoreRelease shall be consistent in every CMSIS-RTOS.
 818:Middlewares/Third_Party/FreeRTOS/Source/CMSIS_RTOS/cmsis_os.c **** */
 819:Middlewares/Third_Party/FreeRTOS/Source/CMSIS_RTOS/cmsis_os.c **** osStatus osSemaphoreRelease (osSemaphoreId semaphore_id)
 820:Middlewares/Third_Party/FreeRTOS/Source/CMSIS_RTOS/cmsis_os.c **** {
 1480              		.loc 1 820 1 is_stmt 1 view -0
 1481              		.cfi_startproc
 1482              		@ args = 0, pretend = 0, frame = 8
 1483              		@ frame_needed = 0, uses_anonymous_args = 0
 1484              		.loc 1 820 1 is_stmt 0 view .LVU330
 1485 0000 10B5     		push	{r4, lr}
 1486              	.LCFI38:
 1487              		.cfi_def_cfa_offset 8
 1488              		.cfi_offset 4, -8
 1489              		.cfi_offset 14, -4
 1490 0002 82B0     		sub	sp, sp, #8
 1491              	.LCFI39:
 1492              		.cfi_def_cfa_offset 16
 1493 0004 0446     		mov	r4, r0
 821:Middlewares/Third_Party/FreeRTOS/Source/CMSIS_RTOS/cmsis_os.c ****   osStatus result = osOK;
 1494              		.loc 1 821 3 is_stmt 1 view .LVU331
 1495              	.LVL109:
 822:Middlewares/Third_Party/FreeRTOS/Source/CMSIS_RTOS/cmsis_os.c ****   portBASE_TYPE taskWoken = pdFALSE;
 1496              		.loc 1 822 3 view .LVU332
 1497              		.loc 1 822 17 is_stmt 0 view .LVU333
 1498 0006 0023     		movs	r3, #0
 1499 0008 0193     		str	r3, [sp, #4]
 823:Middlewares/Third_Party/FreeRTOS/Source/CMSIS_RTOS/cmsis_os.c ****   
 824:Middlewares/Third_Party/FreeRTOS/Source/CMSIS_RTOS/cmsis_os.c ****   
 825:Middlewares/Third_Party/FreeRTOS/Source/CMSIS_RTOS/cmsis_os.c ****   if (inHandlerMode()) {
 1500              		.loc 1 825 3 is_stmt 1 view .LVU334
 1501              		.loc 1 825 7 is_stmt 0 view .LVU335
 1502 000a FFF7FEFF 		bl	inHandlerMode
 1503              	.LVL110:
 1504              		.loc 1 825 6 view .LVU336
 1505 000e 98B1     		cbz	r0, .L101
 826:Middlewares/Third_Party/FreeRTOS/Source/CMSIS_RTOS/cmsis_os.c ****     if (xSemaphoreGiveFromISR(semaphore_id, &taskWoken) != pdTRUE) {
 1506              		.loc 1 826 5 is_stmt 1 view .LVU337
ARM GAS  C:\Users\seblo\AppData\Local\Temp\ccJuvw9h.s 			page 46


 1507              		.loc 1 826 9 is_stmt 0 view .LVU338
 1508 0010 01A9     		add	r1, sp, #4
 1509 0012 2046     		mov	r0, r4
 1510 0014 FFF7FEFF 		bl	xQueueGiveFromISR
 1511              	.LVL111:
 1512              		.loc 1 826 8 view .LVU339
 1513 0018 0128     		cmp	r0, #1
 1514 001a 1AD1     		bne	.L103
 827:Middlewares/Third_Party/FreeRTOS/Source/CMSIS_RTOS/cmsis_os.c ****       return osErrorOS;
 828:Middlewares/Third_Party/FreeRTOS/Source/CMSIS_RTOS/cmsis_os.c ****     }
 829:Middlewares/Third_Party/FreeRTOS/Source/CMSIS_RTOS/cmsis_os.c ****     portEND_SWITCHING_ISR(taskWoken);
 1515              		.loc 1 829 5 is_stmt 1 view .LVU340
 1516 001c 019B     		ldr	r3, [sp, #4]
 1517 001e D3B1     		cbz	r3, .L104
 1518              		.loc 1 829 5 discriminator 1 view .LVU341
 1519 0020 4FF0E023 		mov	r3, #-536813568
 1520 0024 4FF08052 		mov	r2, #268435456
 1521 0028 C3F8042D 		str	r2, [r3, #3332]
 1522              		.loc 1 829 5 discriminator 1 view .LVU342
 1523              		.syntax unified
 1524              	@ 829 "Middlewares/Third_Party/FreeRTOS/Source/CMSIS_RTOS/cmsis_os.c" 1
 1525 002c BFF34F8F 		dsb
 1526              	@ 0 "" 2
 1527              		.loc 1 829 5 discriminator 1 view .LVU343
 1528              	@ 829 "Middlewares/Third_Party/FreeRTOS/Source/CMSIS_RTOS/cmsis_os.c" 1
 1529 0030 BFF36F8F 		isb
 1530              	@ 0 "" 2
 821:Middlewares/Third_Party/FreeRTOS/Source/CMSIS_RTOS/cmsis_os.c ****   portBASE_TYPE taskWoken = pdFALSE;
 1531              		.loc 1 821 12 is_stmt 0 discriminator 1 view .LVU344
 1532              		.thumb
 1533              		.syntax unified
 1534 0034 0020     		movs	r0, #0
 1535 0036 08E0     		b	.L100
 1536              	.L101:
 830:Middlewares/Third_Party/FreeRTOS/Source/CMSIS_RTOS/cmsis_os.c ****   }
 831:Middlewares/Third_Party/FreeRTOS/Source/CMSIS_RTOS/cmsis_os.c ****   else {
 832:Middlewares/Third_Party/FreeRTOS/Source/CMSIS_RTOS/cmsis_os.c ****     if (xSemaphoreGive(semaphore_id) != pdTRUE) {
 1537              		.loc 1 832 5 is_stmt 1 view .LVU345
 1538              		.loc 1 832 9 is_stmt 0 view .LVU346
 1539 0038 0023     		movs	r3, #0
 1540 003a 1A46     		mov	r2, r3
 1541 003c 1946     		mov	r1, r3
 1542 003e 2046     		mov	r0, r4
 1543 0040 FFF7FEFF 		bl	xQueueGenericSend
 1544              	.LVL112:
 1545              		.loc 1 832 8 view .LVU347
 1546 0044 0128     		cmp	r0, #1
 1547 0046 02D0     		beq	.L107
 833:Middlewares/Third_Party/FreeRTOS/Source/CMSIS_RTOS/cmsis_os.c ****       result = osErrorOS;
 1548              		.loc 1 833 14 view .LVU348
 1549 0048 FF20     		movs	r0, #255
 1550              	.LVL113:
 1551              	.L100:
 834:Middlewares/Third_Party/FreeRTOS/Source/CMSIS_RTOS/cmsis_os.c ****     }
 835:Middlewares/Third_Party/FreeRTOS/Source/CMSIS_RTOS/cmsis_os.c ****   }
 836:Middlewares/Third_Party/FreeRTOS/Source/CMSIS_RTOS/cmsis_os.c ****   
 837:Middlewares/Third_Party/FreeRTOS/Source/CMSIS_RTOS/cmsis_os.c ****   return result;
ARM GAS  C:\Users\seblo\AppData\Local\Temp\ccJuvw9h.s 			page 47


 838:Middlewares/Third_Party/FreeRTOS/Source/CMSIS_RTOS/cmsis_os.c **** }
 1552              		.loc 1 838 1 view .LVU349
 1553 004a 02B0     		add	sp, sp, #8
 1554              	.LCFI40:
 1555              		.cfi_remember_state
 1556              		.cfi_def_cfa_offset 8
 1557              		@ sp needed
 1558 004c 10BD     		pop	{r4, pc}
 1559              	.LVL114:
 1560              	.L107:
 1561              	.LCFI41:
 1562              		.cfi_restore_state
 821:Middlewares/Third_Party/FreeRTOS/Source/CMSIS_RTOS/cmsis_os.c ****   portBASE_TYPE taskWoken = pdFALSE;
 1563              		.loc 1 821 12 view .LVU350
 1564 004e 0020     		movs	r0, #0
 1565 0050 FBE7     		b	.L100
 1566              	.L103:
 827:Middlewares/Third_Party/FreeRTOS/Source/CMSIS_RTOS/cmsis_os.c ****     }
 1567              		.loc 1 827 14 view .LVU351
 1568 0052 FF20     		movs	r0, #255
 1569 0054 F9E7     		b	.L100
 1570              	.L104:
 821:Middlewares/Third_Party/FreeRTOS/Source/CMSIS_RTOS/cmsis_os.c ****   portBASE_TYPE taskWoken = pdFALSE;
 1571              		.loc 1 821 12 view .LVU352
 1572 0056 0020     		movs	r0, #0
 1573 0058 F7E7     		b	.L100
 1574              		.cfi_endproc
 1575              	.LFE132:
 1577              		.section	.text.osSemaphoreDelete,"ax",%progbits
 1578              		.align	1
 1579              		.global	osSemaphoreDelete
 1580              		.syntax unified
 1581              		.thumb
 1582              		.thumb_func
 1583              		.fpu fpv5-sp-d16
 1585              	osSemaphoreDelete:
 1586              	.LVL115:
 1587              	.LFB133:
 839:Middlewares/Third_Party/FreeRTOS/Source/CMSIS_RTOS/cmsis_os.c **** 
 840:Middlewares/Third_Party/FreeRTOS/Source/CMSIS_RTOS/cmsis_os.c **** /**
 841:Middlewares/Third_Party/FreeRTOS/Source/CMSIS_RTOS/cmsis_os.c **** * @brief Delete a Semaphore
 842:Middlewares/Third_Party/FreeRTOS/Source/CMSIS_RTOS/cmsis_os.c **** * @param  semaphore_id  semaphore object referenced with \ref osSemaphore.
 843:Middlewares/Third_Party/FreeRTOS/Source/CMSIS_RTOS/cmsis_os.c **** * @retval  status code that indicates the execution status of the function.
 844:Middlewares/Third_Party/FreeRTOS/Source/CMSIS_RTOS/cmsis_os.c **** * @note   MUST REMAIN UNCHANGED: \b osSemaphoreDelete shall be consistent in every CMSIS-RTOS.
 845:Middlewares/Third_Party/FreeRTOS/Source/CMSIS_RTOS/cmsis_os.c **** */
 846:Middlewares/Third_Party/FreeRTOS/Source/CMSIS_RTOS/cmsis_os.c **** osStatus osSemaphoreDelete (osSemaphoreId semaphore_id)
 847:Middlewares/Third_Party/FreeRTOS/Source/CMSIS_RTOS/cmsis_os.c **** {
 1588              		.loc 1 847 1 is_stmt 1 view -0
 1589              		.cfi_startproc
 1590              		@ args = 0, pretend = 0, frame = 0
 1591              		@ frame_needed = 0, uses_anonymous_args = 0
 1592              		.loc 1 847 1 is_stmt 0 view .LVU354
 1593 0000 10B5     		push	{r4, lr}
 1594              	.LCFI42:
 1595              		.cfi_def_cfa_offset 8
 1596              		.cfi_offset 4, -8
 1597              		.cfi_offset 14, -4
ARM GAS  C:\Users\seblo\AppData\Local\Temp\ccJuvw9h.s 			page 48


 1598 0002 0446     		mov	r4, r0
 848:Middlewares/Third_Party/FreeRTOS/Source/CMSIS_RTOS/cmsis_os.c ****   if (inHandlerMode()) {
 1599              		.loc 1 848 3 is_stmt 1 view .LVU355
 1600              		.loc 1 848 7 is_stmt 0 view .LVU356
 1601 0004 FFF7FEFF 		bl	inHandlerMode
 1602              	.LVL116:
 1603              		.loc 1 848 6 view .LVU357
 1604 0008 20B9     		cbnz	r0, .L110
 849:Middlewares/Third_Party/FreeRTOS/Source/CMSIS_RTOS/cmsis_os.c ****     return osErrorISR;
 850:Middlewares/Third_Party/FreeRTOS/Source/CMSIS_RTOS/cmsis_os.c ****   }
 851:Middlewares/Third_Party/FreeRTOS/Source/CMSIS_RTOS/cmsis_os.c **** 
 852:Middlewares/Third_Party/FreeRTOS/Source/CMSIS_RTOS/cmsis_os.c ****   vSemaphoreDelete(semaphore_id);
 1605              		.loc 1 852 3 is_stmt 1 view .LVU358
 1606 000a 2046     		mov	r0, r4
 1607 000c FFF7FEFF 		bl	vQueueDelete
 1608              	.LVL117:
 853:Middlewares/Third_Party/FreeRTOS/Source/CMSIS_RTOS/cmsis_os.c **** 
 854:Middlewares/Third_Party/FreeRTOS/Source/CMSIS_RTOS/cmsis_os.c ****   return osOK; 
 1609              		.loc 1 854 3 view .LVU359
 1610              		.loc 1 854 10 is_stmt 0 view .LVU360
 1611 0010 0020     		movs	r0, #0
 1612              	.L108:
 855:Middlewares/Third_Party/FreeRTOS/Source/CMSIS_RTOS/cmsis_os.c **** }
 1613              		.loc 1 855 1 view .LVU361
 1614 0012 10BD     		pop	{r4, pc}
 1615              	.LVL118:
 1616              	.L110:
 849:Middlewares/Third_Party/FreeRTOS/Source/CMSIS_RTOS/cmsis_os.c ****     return osErrorISR;
 1617              		.loc 1 849 12 view .LVU362
 1618 0014 8220     		movs	r0, #130
 1619 0016 FCE7     		b	.L108
 1620              		.cfi_endproc
 1621              	.LFE133:
 1623              		.section	.text.osPoolCreate,"ax",%progbits
 1624              		.align	1
 1625              		.global	osPoolCreate
 1626              		.syntax unified
 1627              		.thumb
 1628              		.thumb_func
 1629              		.fpu fpv5-sp-d16
 1631              	osPoolCreate:
 1632              	.LVL119:
 1633              	.LFB134:
 856:Middlewares/Third_Party/FreeRTOS/Source/CMSIS_RTOS/cmsis_os.c **** 
 857:Middlewares/Third_Party/FreeRTOS/Source/CMSIS_RTOS/cmsis_os.c **** #endif    /* Use Semaphores */
 858:Middlewares/Third_Party/FreeRTOS/Source/CMSIS_RTOS/cmsis_os.c **** 
 859:Middlewares/Third_Party/FreeRTOS/Source/CMSIS_RTOS/cmsis_os.c **** /*******************   Memory Pool Management Functions  ***********************/
 860:Middlewares/Third_Party/FreeRTOS/Source/CMSIS_RTOS/cmsis_os.c **** 
 861:Middlewares/Third_Party/FreeRTOS/Source/CMSIS_RTOS/cmsis_os.c **** #if (defined (osFeature_Pool)  &&  (osFeature_Pool != 0)) 
 862:Middlewares/Third_Party/FreeRTOS/Source/CMSIS_RTOS/cmsis_os.c **** 
 863:Middlewares/Third_Party/FreeRTOS/Source/CMSIS_RTOS/cmsis_os.c **** //TODO
 864:Middlewares/Third_Party/FreeRTOS/Source/CMSIS_RTOS/cmsis_os.c **** //This is a primitive and inefficient wrapper around the existing FreeRTOS memory management.
 865:Middlewares/Third_Party/FreeRTOS/Source/CMSIS_RTOS/cmsis_os.c **** //A better implementation will have to modify heap_x.c!
 866:Middlewares/Third_Party/FreeRTOS/Source/CMSIS_RTOS/cmsis_os.c **** 
 867:Middlewares/Third_Party/FreeRTOS/Source/CMSIS_RTOS/cmsis_os.c **** 
 868:Middlewares/Third_Party/FreeRTOS/Source/CMSIS_RTOS/cmsis_os.c **** typedef struct os_pool_cb {
 869:Middlewares/Third_Party/FreeRTOS/Source/CMSIS_RTOS/cmsis_os.c ****   void *pool;
ARM GAS  C:\Users\seblo\AppData\Local\Temp\ccJuvw9h.s 			page 49


 870:Middlewares/Third_Party/FreeRTOS/Source/CMSIS_RTOS/cmsis_os.c ****   uint8_t *markers;
 871:Middlewares/Third_Party/FreeRTOS/Source/CMSIS_RTOS/cmsis_os.c ****   uint32_t pool_sz;
 872:Middlewares/Third_Party/FreeRTOS/Source/CMSIS_RTOS/cmsis_os.c ****   uint32_t item_sz;
 873:Middlewares/Third_Party/FreeRTOS/Source/CMSIS_RTOS/cmsis_os.c ****   uint32_t currentIndex;
 874:Middlewares/Third_Party/FreeRTOS/Source/CMSIS_RTOS/cmsis_os.c **** } os_pool_cb_t;
 875:Middlewares/Third_Party/FreeRTOS/Source/CMSIS_RTOS/cmsis_os.c **** 
 876:Middlewares/Third_Party/FreeRTOS/Source/CMSIS_RTOS/cmsis_os.c **** 
 877:Middlewares/Third_Party/FreeRTOS/Source/CMSIS_RTOS/cmsis_os.c **** /**
 878:Middlewares/Third_Party/FreeRTOS/Source/CMSIS_RTOS/cmsis_os.c **** * @brief Create and Initialize a memory pool
 879:Middlewares/Third_Party/FreeRTOS/Source/CMSIS_RTOS/cmsis_os.c **** * @param  pool_def      memory pool definition referenced with \ref osPool.
 880:Middlewares/Third_Party/FreeRTOS/Source/CMSIS_RTOS/cmsis_os.c **** * @retval  memory pool ID for reference by other functions or NULL in case of error.
 881:Middlewares/Third_Party/FreeRTOS/Source/CMSIS_RTOS/cmsis_os.c **** * @note   MUST REMAIN UNCHANGED: \b osPoolCreate shall be consistent in every CMSIS-RTOS.
 882:Middlewares/Third_Party/FreeRTOS/Source/CMSIS_RTOS/cmsis_os.c **** */
 883:Middlewares/Third_Party/FreeRTOS/Source/CMSIS_RTOS/cmsis_os.c **** osPoolId osPoolCreate (const osPoolDef_t *pool_def)
 884:Middlewares/Third_Party/FreeRTOS/Source/CMSIS_RTOS/cmsis_os.c **** {
 1634              		.loc 1 884 1 is_stmt 1 view -0
 1635              		.cfi_startproc
 1636              		@ args = 0, pretend = 0, frame = 0
 1637              		@ frame_needed = 0, uses_anonymous_args = 0
 1638              		.loc 1 884 1 is_stmt 0 view .LVU364
 1639 0000 F8B5     		push	{r3, r4, r5, r6, r7, lr}
 1640              	.LCFI43:
 1641              		.cfi_def_cfa_offset 24
 1642              		.cfi_offset 3, -24
 1643              		.cfi_offset 4, -20
 1644              		.cfi_offset 5, -16
 1645              		.cfi_offset 6, -12
 1646              		.cfi_offset 7, -8
 1647              		.cfi_offset 14, -4
 1648 0002 0446     		mov	r4, r0
 885:Middlewares/Third_Party/FreeRTOS/Source/CMSIS_RTOS/cmsis_os.c **** #if (configSUPPORT_DYNAMIC_ALLOCATION == 1)
 886:Middlewares/Third_Party/FreeRTOS/Source/CMSIS_RTOS/cmsis_os.c ****   osPoolId thePool;
 1649              		.loc 1 886 3 is_stmt 1 view .LVU365
 887:Middlewares/Third_Party/FreeRTOS/Source/CMSIS_RTOS/cmsis_os.c ****   int itemSize = 4 * ((pool_def->item_sz + 3) / 4);
 1650              		.loc 1 887 3 view .LVU366
 1651              		.loc 1 887 32 is_stmt 0 view .LVU367
 1652 0004 4368     		ldr	r3, [r0, #4]
 1653              		.loc 1 887 42 view .LVU368
 1654 0006 0333     		adds	r3, r3, #3
 1655              		.loc 1 887 7 view .LVU369
 1656 0008 23F00306 		bic	r6, r3, #3
 1657              	.LVL120:
 888:Middlewares/Third_Party/FreeRTOS/Source/CMSIS_RTOS/cmsis_os.c ****   uint32_t i;
 1658              		.loc 1 888 3 is_stmt 1 view .LVU370
 889:Middlewares/Third_Party/FreeRTOS/Source/CMSIS_RTOS/cmsis_os.c ****   
 890:Middlewares/Third_Party/FreeRTOS/Source/CMSIS_RTOS/cmsis_os.c ****   /* First have to allocate memory for the pool control block. */
 891:Middlewares/Third_Party/FreeRTOS/Source/CMSIS_RTOS/cmsis_os.c ****  thePool = pvPortMalloc(sizeof(os_pool_cb_t));
 1659              		.loc 1 891 2 view .LVU371
 1660              		.loc 1 891 12 is_stmt 0 view .LVU372
 1661 000c 1420     		movs	r0, #20
 1662              	.LVL121:
 1663              		.loc 1 891 12 view .LVU373
 1664 000e FFF7FEFF 		bl	pvPortMalloc
 1665              	.LVL122:
 892:Middlewares/Third_Party/FreeRTOS/Source/CMSIS_RTOS/cmsis_os.c **** 
 893:Middlewares/Third_Party/FreeRTOS/Source/CMSIS_RTOS/cmsis_os.c ****   
 894:Middlewares/Third_Party/FreeRTOS/Source/CMSIS_RTOS/cmsis_os.c ****   if (thePool) {
ARM GAS  C:\Users\seblo\AppData\Local\Temp\ccJuvw9h.s 			page 50


 1666              		.loc 1 894 3 is_stmt 1 view .LVU374
 1667              		.loc 1 894 6 is_stmt 0 view .LVU375
 1668 0012 0546     		mov	r5, r0
 1669 0014 D8B1     		cbz	r0, .L112
 895:Middlewares/Third_Party/FreeRTOS/Source/CMSIS_RTOS/cmsis_os.c ****     thePool->pool_sz = pool_def->pool_sz;
 1670              		.loc 1 895 5 is_stmt 1 view .LVU376
 1671              		.loc 1 895 32 is_stmt 0 view .LVU377
 1672 0016 2368     		ldr	r3, [r4]
 1673              		.loc 1 895 22 view .LVU378
 1674 0018 8360     		str	r3, [r0, #8]
 896:Middlewares/Third_Party/FreeRTOS/Source/CMSIS_RTOS/cmsis_os.c ****     thePool->item_sz = itemSize;
 1675              		.loc 1 896 5 is_stmt 1 view .LVU379
 1676              		.loc 1 896 22 is_stmt 0 view .LVU380
 1677 001a C660     		str	r6, [r0, #12]
 897:Middlewares/Third_Party/FreeRTOS/Source/CMSIS_RTOS/cmsis_os.c ****     thePool->currentIndex = 0;
 1678              		.loc 1 897 5 is_stmt 1 view .LVU381
 1679              		.loc 1 897 27 is_stmt 0 view .LVU382
 1680 001c 0023     		movs	r3, #0
 1681 001e 0361     		str	r3, [r0, #16]
 898:Middlewares/Third_Party/FreeRTOS/Source/CMSIS_RTOS/cmsis_os.c ****     
 899:Middlewares/Third_Party/FreeRTOS/Source/CMSIS_RTOS/cmsis_os.c ****     /* Memory for markers */
 900:Middlewares/Third_Party/FreeRTOS/Source/CMSIS_RTOS/cmsis_os.c ****     thePool->markers = pvPortMalloc(pool_def->pool_sz);
 1682              		.loc 1 900 5 is_stmt 1 view .LVU383
 1683              		.loc 1 900 24 is_stmt 0 view .LVU384
 1684 0020 2068     		ldr	r0, [r4]
 1685              	.LVL123:
 1686              		.loc 1 900 24 view .LVU385
 1687 0022 FFF7FEFF 		bl	pvPortMalloc
 1688              	.LVL124:
 1689 0026 0746     		mov	r7, r0
 1690              		.loc 1 900 22 view .LVU386
 1691 0028 6860     		str	r0, [r5, #4]
 901:Middlewares/Third_Party/FreeRTOS/Source/CMSIS_RTOS/cmsis_os.c ****    
 902:Middlewares/Third_Party/FreeRTOS/Source/CMSIS_RTOS/cmsis_os.c ****     if (thePool->markers) {
 1692              		.loc 1 902 5 is_stmt 1 view .LVU387
 1693              		.loc 1 902 8 is_stmt 0 view .LVU388
 1694 002a D0B1     		cbz	r0, .L114
 903:Middlewares/Third_Party/FreeRTOS/Source/CMSIS_RTOS/cmsis_os.c ****       /* Now allocate the pool itself. */
 904:Middlewares/Third_Party/FreeRTOS/Source/CMSIS_RTOS/cmsis_os.c ****      thePool->pool = pvPortMalloc(pool_def->pool_sz * itemSize);
 1695              		.loc 1 904 6 is_stmt 1 view .LVU389
 1696              		.loc 1 904 43 is_stmt 0 view .LVU390
 1697 002c 2068     		ldr	r0, [r4]
 1698              		.loc 1 904 22 view .LVU391
 1699 002e 06FB00F0 		mul	r0, r6, r0
 1700 0032 FFF7FEFF 		bl	pvPortMalloc
 1701              	.LVL125:
 1702 0036 0646     		mov	r6, r0
 1703              	.LVL126:
 1704              		.loc 1 904 20 view .LVU392
 1705 0038 2860     		str	r0, [r5]
 905:Middlewares/Third_Party/FreeRTOS/Source/CMSIS_RTOS/cmsis_os.c ****       
 906:Middlewares/Third_Party/FreeRTOS/Source/CMSIS_RTOS/cmsis_os.c ****       if (thePool->pool) {
 1706              		.loc 1 906 7 is_stmt 1 view .LVU393
 1707              		.loc 1 906 10 is_stmt 0 view .LVU394
 1708 003a 50B1     		cbz	r0, .L121
 907:Middlewares/Third_Party/FreeRTOS/Source/CMSIS_RTOS/cmsis_os.c ****         for (i = 0; i < pool_def->pool_sz; i++) {
 1709              		.loc 1 907 16 view .LVU395
ARM GAS  C:\Users\seblo\AppData\Local\Temp\ccJuvw9h.s 			page 51


 1710 003c 0023     		movs	r3, #0
 1711 003e 03E0     		b	.L115
 1712              	.LVL127:
 1713              	.L117:
 908:Middlewares/Third_Party/FreeRTOS/Source/CMSIS_RTOS/cmsis_os.c ****           thePool->markers[i] = 0;
 1714              		.loc 1 908 11 is_stmt 1 discriminator 3 view .LVU396
 1715              		.loc 1 908 18 is_stmt 0 discriminator 3 view .LVU397
 1716 0040 6A68     		ldr	r2, [r5, #4]
 1717              		.loc 1 908 31 discriminator 3 view .LVU398
 1718 0042 0021     		movs	r1, #0
 1719 0044 D154     		strb	r1, [r2, r3]
 907:Middlewares/Third_Party/FreeRTOS/Source/CMSIS_RTOS/cmsis_os.c ****         for (i = 0; i < pool_def->pool_sz; i++) {
 1720              		.loc 1 907 44 is_stmt 1 discriminator 3 view .LVU399
 907:Middlewares/Third_Party/FreeRTOS/Source/CMSIS_RTOS/cmsis_os.c ****         for (i = 0; i < pool_def->pool_sz; i++) {
 1721              		.loc 1 907 45 is_stmt 0 discriminator 3 view .LVU400
 1722 0046 0133     		adds	r3, r3, #1
 1723              	.LVL128:
 1724              	.L115:
 907:Middlewares/Third_Party/FreeRTOS/Source/CMSIS_RTOS/cmsis_os.c ****         for (i = 0; i < pool_def->pool_sz; i++) {
 1725              		.loc 1 907 21 is_stmt 1 discriminator 1 view .LVU401
 907:Middlewares/Third_Party/FreeRTOS/Source/CMSIS_RTOS/cmsis_os.c ****         for (i = 0; i < pool_def->pool_sz; i++) {
 1726              		.loc 1 907 33 is_stmt 0 discriminator 1 view .LVU402
 1727 0048 2268     		ldr	r2, [r4]
 907:Middlewares/Third_Party/FreeRTOS/Source/CMSIS_RTOS/cmsis_os.c ****         for (i = 0; i < pool_def->pool_sz; i++) {
 1728              		.loc 1 907 9 discriminator 1 view .LVU403
 1729 004a 9A42     		cmp	r2, r3
 1730 004c F8D8     		bhi	.L117
 1731              	.LVL129:
 1732              	.L112:
 909:Middlewares/Third_Party/FreeRTOS/Source/CMSIS_RTOS/cmsis_os.c ****         }
 910:Middlewares/Third_Party/FreeRTOS/Source/CMSIS_RTOS/cmsis_os.c ****       }
 911:Middlewares/Third_Party/FreeRTOS/Source/CMSIS_RTOS/cmsis_os.c ****       else {
 912:Middlewares/Third_Party/FreeRTOS/Source/CMSIS_RTOS/cmsis_os.c ****         vPortFree(thePool->markers);
 913:Middlewares/Third_Party/FreeRTOS/Source/CMSIS_RTOS/cmsis_os.c ****         vPortFree(thePool);
 914:Middlewares/Third_Party/FreeRTOS/Source/CMSIS_RTOS/cmsis_os.c ****         thePool = NULL;
 915:Middlewares/Third_Party/FreeRTOS/Source/CMSIS_RTOS/cmsis_os.c ****       }
 916:Middlewares/Third_Party/FreeRTOS/Source/CMSIS_RTOS/cmsis_os.c ****     }
 917:Middlewares/Third_Party/FreeRTOS/Source/CMSIS_RTOS/cmsis_os.c ****     else {
 918:Middlewares/Third_Party/FreeRTOS/Source/CMSIS_RTOS/cmsis_os.c ****       vPortFree(thePool);
 919:Middlewares/Third_Party/FreeRTOS/Source/CMSIS_RTOS/cmsis_os.c ****       thePool = NULL;
 920:Middlewares/Third_Party/FreeRTOS/Source/CMSIS_RTOS/cmsis_os.c ****     }
 921:Middlewares/Third_Party/FreeRTOS/Source/CMSIS_RTOS/cmsis_os.c ****   }
 922:Middlewares/Third_Party/FreeRTOS/Source/CMSIS_RTOS/cmsis_os.c **** 
 923:Middlewares/Third_Party/FreeRTOS/Source/CMSIS_RTOS/cmsis_os.c ****   return thePool;
 924:Middlewares/Third_Party/FreeRTOS/Source/CMSIS_RTOS/cmsis_os.c ****  
 925:Middlewares/Third_Party/FreeRTOS/Source/CMSIS_RTOS/cmsis_os.c **** #else
 926:Middlewares/Third_Party/FreeRTOS/Source/CMSIS_RTOS/cmsis_os.c ****   return NULL;
 927:Middlewares/Third_Party/FreeRTOS/Source/CMSIS_RTOS/cmsis_os.c **** #endif
 928:Middlewares/Third_Party/FreeRTOS/Source/CMSIS_RTOS/cmsis_os.c **** }
 1733              		.loc 1 928 1 view .LVU404
 1734 004e 2846     		mov	r0, r5
 1735 0050 F8BD     		pop	{r3, r4, r5, r6, r7, pc}
 1736              	.LVL130:
 1737              	.L121:
 912:Middlewares/Third_Party/FreeRTOS/Source/CMSIS_RTOS/cmsis_os.c ****         vPortFree(thePool);
 1738              		.loc 1 912 9 is_stmt 1 view .LVU405
 1739 0052 6868     		ldr	r0, [r5, #4]
ARM GAS  C:\Users\seblo\AppData\Local\Temp\ccJuvw9h.s 			page 52


 1740 0054 FFF7FEFF 		bl	vPortFree
 1741              	.LVL131:
 913:Middlewares/Third_Party/FreeRTOS/Source/CMSIS_RTOS/cmsis_os.c ****         thePool = NULL;
 1742              		.loc 1 913 9 view .LVU406
 1743 0058 2846     		mov	r0, r5
 1744 005a FFF7FEFF 		bl	vPortFree
 1745              	.LVL132:
 914:Middlewares/Third_Party/FreeRTOS/Source/CMSIS_RTOS/cmsis_os.c ****       }
 1746              		.loc 1 914 9 view .LVU407
 914:Middlewares/Third_Party/FreeRTOS/Source/CMSIS_RTOS/cmsis_os.c ****       }
 1747              		.loc 1 914 17 is_stmt 0 view .LVU408
 1748 005e 3546     		mov	r5, r6
 1749 0060 F5E7     		b	.L112
 1750              	.LVL133:
 1751              	.L114:
 918:Middlewares/Third_Party/FreeRTOS/Source/CMSIS_RTOS/cmsis_os.c ****       thePool = NULL;
 1752              		.loc 1 918 7 is_stmt 1 view .LVU409
 1753 0062 2846     		mov	r0, r5
 1754 0064 FFF7FEFF 		bl	vPortFree
 1755              	.LVL134:
 919:Middlewares/Third_Party/FreeRTOS/Source/CMSIS_RTOS/cmsis_os.c ****     }
 1756              		.loc 1 919 7 view .LVU410
 919:Middlewares/Third_Party/FreeRTOS/Source/CMSIS_RTOS/cmsis_os.c ****     }
 1757              		.loc 1 919 15 is_stmt 0 view .LVU411
 1758 0068 3D46     		mov	r5, r7
 1759              	.LVL135:
 923:Middlewares/Third_Party/FreeRTOS/Source/CMSIS_RTOS/cmsis_os.c ****  
 1760              		.loc 1 923 3 is_stmt 1 view .LVU412
 923:Middlewares/Third_Party/FreeRTOS/Source/CMSIS_RTOS/cmsis_os.c ****  
 1761              		.loc 1 923 10 is_stmt 0 view .LVU413
 1762 006a F0E7     		b	.L112
 1763              		.cfi_endproc
 1764              	.LFE134:
 1766              		.section	.text.osPoolAlloc,"ax",%progbits
 1767              		.align	1
 1768              		.global	osPoolAlloc
 1769              		.syntax unified
 1770              		.thumb
 1771              		.thumb_func
 1772              		.fpu fpv5-sp-d16
 1774              	osPoolAlloc:
 1775              	.LVL136:
 1776              	.LFB135:
 929:Middlewares/Third_Party/FreeRTOS/Source/CMSIS_RTOS/cmsis_os.c **** 
 930:Middlewares/Third_Party/FreeRTOS/Source/CMSIS_RTOS/cmsis_os.c **** /**
 931:Middlewares/Third_Party/FreeRTOS/Source/CMSIS_RTOS/cmsis_os.c **** * @brief Allocate a memory block from a memory pool
 932:Middlewares/Third_Party/FreeRTOS/Source/CMSIS_RTOS/cmsis_os.c **** * @param pool_id       memory pool ID obtain referenced with \ref osPoolCreate.
 933:Middlewares/Third_Party/FreeRTOS/Source/CMSIS_RTOS/cmsis_os.c **** * @retval  address of the allocated memory block or NULL in case of no memory available.
 934:Middlewares/Third_Party/FreeRTOS/Source/CMSIS_RTOS/cmsis_os.c **** * @note   MUST REMAIN UNCHANGED: \b osPoolAlloc shall be consistent in every CMSIS-RTOS.
 935:Middlewares/Third_Party/FreeRTOS/Source/CMSIS_RTOS/cmsis_os.c **** */
 936:Middlewares/Third_Party/FreeRTOS/Source/CMSIS_RTOS/cmsis_os.c **** void *osPoolAlloc (osPoolId pool_id)
 937:Middlewares/Third_Party/FreeRTOS/Source/CMSIS_RTOS/cmsis_os.c **** {
 1777              		.loc 1 937 1 is_stmt 1 view -0
 1778              		.cfi_startproc
 1779              		@ args = 0, pretend = 0, frame = 0
 1780              		@ frame_needed = 0, uses_anonymous_args = 0
 1781              		.loc 1 937 1 is_stmt 0 view .LVU415
ARM GAS  C:\Users\seblo\AppData\Local\Temp\ccJuvw9h.s 			page 53


 1782 0000 70B5     		push	{r4, r5, r6, lr}
 1783              	.LCFI44:
 1784              		.cfi_def_cfa_offset 16
 1785              		.cfi_offset 4, -16
 1786              		.cfi_offset 5, -12
 1787              		.cfi_offset 6, -8
 1788              		.cfi_offset 14, -4
 1789 0002 0446     		mov	r4, r0
 938:Middlewares/Third_Party/FreeRTOS/Source/CMSIS_RTOS/cmsis_os.c ****   int dummy = 0;
 1790              		.loc 1 938 3 is_stmt 1 view .LVU416
 1791              	.LVL137:
 939:Middlewares/Third_Party/FreeRTOS/Source/CMSIS_RTOS/cmsis_os.c ****   void *p = NULL;
 1792              		.loc 1 939 3 view .LVU417
 940:Middlewares/Third_Party/FreeRTOS/Source/CMSIS_RTOS/cmsis_os.c ****   uint32_t i;
 1793              		.loc 1 940 3 view .LVU418
 941:Middlewares/Third_Party/FreeRTOS/Source/CMSIS_RTOS/cmsis_os.c ****   uint32_t index;
 1794              		.loc 1 941 3 view .LVU419
 942:Middlewares/Third_Party/FreeRTOS/Source/CMSIS_RTOS/cmsis_os.c ****   
 943:Middlewares/Third_Party/FreeRTOS/Source/CMSIS_RTOS/cmsis_os.c ****   if (inHandlerMode()) {
 1795              		.loc 1 943 3 view .LVU420
 1796              		.loc 1 943 7 is_stmt 0 view .LVU421
 1797 0004 FFF7FEFF 		bl	inHandlerMode
 1798              	.LVL138:
 1799              		.loc 1 943 6 view .LVU422
 1800 0008 68B1     		cbz	r0, .L123
 944:Middlewares/Third_Party/FreeRTOS/Source/CMSIS_RTOS/cmsis_os.c ****     dummy = portSET_INTERRUPT_MASK_FROM_ISR();
 1801              		.loc 1 944 5 is_stmt 1 view .LVU423
 1802              	.LBB10:
 1803              	.LBI10:
 1804              		.file 3 "Middlewares/Third_Party/FreeRTOS/Source/portable/GCC/ARM_CM7/r0p1/portmacro.h"
   1:Middlewares/Third_Party/FreeRTOS/Source/portable/GCC/ARM_CM7/r0p1/portmacro.h **** /*
   2:Middlewares/Third_Party/FreeRTOS/Source/portable/GCC/ARM_CM7/r0p1/portmacro.h ****  * FreeRTOS Kernel V10.2.1
   3:Middlewares/Third_Party/FreeRTOS/Source/portable/GCC/ARM_CM7/r0p1/portmacro.h ****  * Copyright (C) 2019 Amazon.com, Inc. or its affiliates.  All Rights Reserved.
   4:Middlewares/Third_Party/FreeRTOS/Source/portable/GCC/ARM_CM7/r0p1/portmacro.h ****  *
   5:Middlewares/Third_Party/FreeRTOS/Source/portable/GCC/ARM_CM7/r0p1/portmacro.h ****  * Permission is hereby granted, free of charge, to any person obtaining a copy of
   6:Middlewares/Third_Party/FreeRTOS/Source/portable/GCC/ARM_CM7/r0p1/portmacro.h ****  * this software and associated documentation files (the "Software"), to deal in
   7:Middlewares/Third_Party/FreeRTOS/Source/portable/GCC/ARM_CM7/r0p1/portmacro.h ****  * the Software without restriction, including without limitation the rights to
   8:Middlewares/Third_Party/FreeRTOS/Source/portable/GCC/ARM_CM7/r0p1/portmacro.h ****  * use, copy, modify, merge, publish, distribute, sublicense, and/or sell copies of
   9:Middlewares/Third_Party/FreeRTOS/Source/portable/GCC/ARM_CM7/r0p1/portmacro.h ****  * the Software, and to permit persons to whom the Software is furnished to do so,
  10:Middlewares/Third_Party/FreeRTOS/Source/portable/GCC/ARM_CM7/r0p1/portmacro.h ****  * subject to the following conditions:
  11:Middlewares/Third_Party/FreeRTOS/Source/portable/GCC/ARM_CM7/r0p1/portmacro.h ****  *
  12:Middlewares/Third_Party/FreeRTOS/Source/portable/GCC/ARM_CM7/r0p1/portmacro.h ****  * The above copyright notice and this permission notice shall be included in all
  13:Middlewares/Third_Party/FreeRTOS/Source/portable/GCC/ARM_CM7/r0p1/portmacro.h ****  * copies or substantial portions of the Software.
  14:Middlewares/Third_Party/FreeRTOS/Source/portable/GCC/ARM_CM7/r0p1/portmacro.h ****  *
  15:Middlewares/Third_Party/FreeRTOS/Source/portable/GCC/ARM_CM7/r0p1/portmacro.h ****  * THE SOFTWARE IS PROVIDED "AS IS", WITHOUT WARRANTY OF ANY KIND, EXPRESS OR
  16:Middlewares/Third_Party/FreeRTOS/Source/portable/GCC/ARM_CM7/r0p1/portmacro.h ****  * IMPLIED, INCLUDING BUT NOT LIMITED TO THE WARRANTIES OF MERCHANTABILITY, FITNESS
  17:Middlewares/Third_Party/FreeRTOS/Source/portable/GCC/ARM_CM7/r0p1/portmacro.h ****  * FOR A PARTICULAR PURPOSE AND NONINFRINGEMENT. IN NO EVENT SHALL THE AUTHORS OR
  18:Middlewares/Third_Party/FreeRTOS/Source/portable/GCC/ARM_CM7/r0p1/portmacro.h ****  * COPYRIGHT HOLDERS BE LIABLE FOR ANY CLAIM, DAMAGES OR OTHER LIABILITY, WHETHER
  19:Middlewares/Third_Party/FreeRTOS/Source/portable/GCC/ARM_CM7/r0p1/portmacro.h ****  * IN AN ACTION OF CONTRACT, TORT OR OTHERWISE, ARISING FROM, OUT OF OR IN
  20:Middlewares/Third_Party/FreeRTOS/Source/portable/GCC/ARM_CM7/r0p1/portmacro.h ****  * CONNECTION WITH THE SOFTWARE OR THE USE OR OTHER DEALINGS IN THE SOFTWARE.
  21:Middlewares/Third_Party/FreeRTOS/Source/portable/GCC/ARM_CM7/r0p1/portmacro.h ****  *
  22:Middlewares/Third_Party/FreeRTOS/Source/portable/GCC/ARM_CM7/r0p1/portmacro.h ****  * http://www.FreeRTOS.org
  23:Middlewares/Third_Party/FreeRTOS/Source/portable/GCC/ARM_CM7/r0p1/portmacro.h ****  * http://aws.amazon.com/freertos
  24:Middlewares/Third_Party/FreeRTOS/Source/portable/GCC/ARM_CM7/r0p1/portmacro.h ****  *
  25:Middlewares/Third_Party/FreeRTOS/Source/portable/GCC/ARM_CM7/r0p1/portmacro.h ****  * 1 tab == 4 spaces!
  26:Middlewares/Third_Party/FreeRTOS/Source/portable/GCC/ARM_CM7/r0p1/portmacro.h ****  */
  27:Middlewares/Third_Party/FreeRTOS/Source/portable/GCC/ARM_CM7/r0p1/portmacro.h **** 
ARM GAS  C:\Users\seblo\AppData\Local\Temp\ccJuvw9h.s 			page 54


  28:Middlewares/Third_Party/FreeRTOS/Source/portable/GCC/ARM_CM7/r0p1/portmacro.h **** 
  29:Middlewares/Third_Party/FreeRTOS/Source/portable/GCC/ARM_CM7/r0p1/portmacro.h **** #ifndef PORTMACRO_H
  30:Middlewares/Third_Party/FreeRTOS/Source/portable/GCC/ARM_CM7/r0p1/portmacro.h **** #define PORTMACRO_H
  31:Middlewares/Third_Party/FreeRTOS/Source/portable/GCC/ARM_CM7/r0p1/portmacro.h **** 
  32:Middlewares/Third_Party/FreeRTOS/Source/portable/GCC/ARM_CM7/r0p1/portmacro.h **** #ifdef __cplusplus
  33:Middlewares/Third_Party/FreeRTOS/Source/portable/GCC/ARM_CM7/r0p1/portmacro.h **** extern "C" {
  34:Middlewares/Third_Party/FreeRTOS/Source/portable/GCC/ARM_CM7/r0p1/portmacro.h **** #endif
  35:Middlewares/Third_Party/FreeRTOS/Source/portable/GCC/ARM_CM7/r0p1/portmacro.h **** 
  36:Middlewares/Third_Party/FreeRTOS/Source/portable/GCC/ARM_CM7/r0p1/portmacro.h **** /*-----------------------------------------------------------
  37:Middlewares/Third_Party/FreeRTOS/Source/portable/GCC/ARM_CM7/r0p1/portmacro.h ****  * Port specific definitions.
  38:Middlewares/Third_Party/FreeRTOS/Source/portable/GCC/ARM_CM7/r0p1/portmacro.h ****  *
  39:Middlewares/Third_Party/FreeRTOS/Source/portable/GCC/ARM_CM7/r0p1/portmacro.h ****  * The settings in this file configure FreeRTOS correctly for the
  40:Middlewares/Third_Party/FreeRTOS/Source/portable/GCC/ARM_CM7/r0p1/portmacro.h ****  * given hardware and compiler.
  41:Middlewares/Third_Party/FreeRTOS/Source/portable/GCC/ARM_CM7/r0p1/portmacro.h ****  *
  42:Middlewares/Third_Party/FreeRTOS/Source/portable/GCC/ARM_CM7/r0p1/portmacro.h ****  * These settings should not be altered.
  43:Middlewares/Third_Party/FreeRTOS/Source/portable/GCC/ARM_CM7/r0p1/portmacro.h ****  *-----------------------------------------------------------
  44:Middlewares/Third_Party/FreeRTOS/Source/portable/GCC/ARM_CM7/r0p1/portmacro.h ****  */
  45:Middlewares/Third_Party/FreeRTOS/Source/portable/GCC/ARM_CM7/r0p1/portmacro.h **** 
  46:Middlewares/Third_Party/FreeRTOS/Source/portable/GCC/ARM_CM7/r0p1/portmacro.h **** /* Type definitions. */
  47:Middlewares/Third_Party/FreeRTOS/Source/portable/GCC/ARM_CM7/r0p1/portmacro.h **** #define portCHAR		char
  48:Middlewares/Third_Party/FreeRTOS/Source/portable/GCC/ARM_CM7/r0p1/portmacro.h **** #define portFLOAT		float
  49:Middlewares/Third_Party/FreeRTOS/Source/portable/GCC/ARM_CM7/r0p1/portmacro.h **** #define portDOUBLE		double
  50:Middlewares/Third_Party/FreeRTOS/Source/portable/GCC/ARM_CM7/r0p1/portmacro.h **** #define portLONG		long
  51:Middlewares/Third_Party/FreeRTOS/Source/portable/GCC/ARM_CM7/r0p1/portmacro.h **** #define portSHORT		short
  52:Middlewares/Third_Party/FreeRTOS/Source/portable/GCC/ARM_CM7/r0p1/portmacro.h **** #define portSTACK_TYPE	uint32_t
  53:Middlewares/Third_Party/FreeRTOS/Source/portable/GCC/ARM_CM7/r0p1/portmacro.h **** #define portBASE_TYPE	long
  54:Middlewares/Third_Party/FreeRTOS/Source/portable/GCC/ARM_CM7/r0p1/portmacro.h **** 
  55:Middlewares/Third_Party/FreeRTOS/Source/portable/GCC/ARM_CM7/r0p1/portmacro.h **** typedef portSTACK_TYPE StackType_t;
  56:Middlewares/Third_Party/FreeRTOS/Source/portable/GCC/ARM_CM7/r0p1/portmacro.h **** typedef long BaseType_t;
  57:Middlewares/Third_Party/FreeRTOS/Source/portable/GCC/ARM_CM7/r0p1/portmacro.h **** typedef unsigned long UBaseType_t;
  58:Middlewares/Third_Party/FreeRTOS/Source/portable/GCC/ARM_CM7/r0p1/portmacro.h **** 
  59:Middlewares/Third_Party/FreeRTOS/Source/portable/GCC/ARM_CM7/r0p1/portmacro.h **** #if( configUSE_16_BIT_TICKS == 1 )
  60:Middlewares/Third_Party/FreeRTOS/Source/portable/GCC/ARM_CM7/r0p1/portmacro.h **** 	typedef uint16_t TickType_t;
  61:Middlewares/Third_Party/FreeRTOS/Source/portable/GCC/ARM_CM7/r0p1/portmacro.h **** 	#define portMAX_DELAY ( TickType_t ) 0xffff
  62:Middlewares/Third_Party/FreeRTOS/Source/portable/GCC/ARM_CM7/r0p1/portmacro.h **** #else
  63:Middlewares/Third_Party/FreeRTOS/Source/portable/GCC/ARM_CM7/r0p1/portmacro.h **** 	typedef uint32_t TickType_t;
  64:Middlewares/Third_Party/FreeRTOS/Source/portable/GCC/ARM_CM7/r0p1/portmacro.h **** 	#define portMAX_DELAY ( TickType_t ) 0xffffffffUL
  65:Middlewares/Third_Party/FreeRTOS/Source/portable/GCC/ARM_CM7/r0p1/portmacro.h **** 
  66:Middlewares/Third_Party/FreeRTOS/Source/portable/GCC/ARM_CM7/r0p1/portmacro.h **** 	/* 32-bit tick type on a 32-bit architecture, so reads of the tick count do
  67:Middlewares/Third_Party/FreeRTOS/Source/portable/GCC/ARM_CM7/r0p1/portmacro.h **** 	not need to be guarded with a critical section. */
  68:Middlewares/Third_Party/FreeRTOS/Source/portable/GCC/ARM_CM7/r0p1/portmacro.h **** 	#define portTICK_TYPE_IS_ATOMIC 1
  69:Middlewares/Third_Party/FreeRTOS/Source/portable/GCC/ARM_CM7/r0p1/portmacro.h **** #endif
  70:Middlewares/Third_Party/FreeRTOS/Source/portable/GCC/ARM_CM7/r0p1/portmacro.h **** /*-----------------------------------------------------------*/
  71:Middlewares/Third_Party/FreeRTOS/Source/portable/GCC/ARM_CM7/r0p1/portmacro.h **** 
  72:Middlewares/Third_Party/FreeRTOS/Source/portable/GCC/ARM_CM7/r0p1/portmacro.h **** /* Architecture specifics. */
  73:Middlewares/Third_Party/FreeRTOS/Source/portable/GCC/ARM_CM7/r0p1/portmacro.h **** #define portSTACK_GROWTH			( -1 )
  74:Middlewares/Third_Party/FreeRTOS/Source/portable/GCC/ARM_CM7/r0p1/portmacro.h **** #define portTICK_PERIOD_MS			( ( TickType_t ) 1000 / configTICK_RATE_HZ )
  75:Middlewares/Third_Party/FreeRTOS/Source/portable/GCC/ARM_CM7/r0p1/portmacro.h **** #define portBYTE_ALIGNMENT			8
  76:Middlewares/Third_Party/FreeRTOS/Source/portable/GCC/ARM_CM7/r0p1/portmacro.h **** /*-----------------------------------------------------------*/
  77:Middlewares/Third_Party/FreeRTOS/Source/portable/GCC/ARM_CM7/r0p1/portmacro.h **** 
  78:Middlewares/Third_Party/FreeRTOS/Source/portable/GCC/ARM_CM7/r0p1/portmacro.h **** /* Scheduler utilities. */
  79:Middlewares/Third_Party/FreeRTOS/Source/portable/GCC/ARM_CM7/r0p1/portmacro.h **** #define portYIELD() 															\
  80:Middlewares/Third_Party/FreeRTOS/Source/portable/GCC/ARM_CM7/r0p1/portmacro.h **** {																				\
  81:Middlewares/Third_Party/FreeRTOS/Source/portable/GCC/ARM_CM7/r0p1/portmacro.h **** 	/* Set a PendSV to request a context switch. */								\
  82:Middlewares/Third_Party/FreeRTOS/Source/portable/GCC/ARM_CM7/r0p1/portmacro.h **** 	portNVIC_INT_CTRL_REG = portNVIC_PENDSVSET_BIT;								\
  83:Middlewares/Third_Party/FreeRTOS/Source/portable/GCC/ARM_CM7/r0p1/portmacro.h **** 																				\
  84:Middlewares/Third_Party/FreeRTOS/Source/portable/GCC/ARM_CM7/r0p1/portmacro.h **** 	/* Barriers are normally not required but do ensure the code is completely	\
ARM GAS  C:\Users\seblo\AppData\Local\Temp\ccJuvw9h.s 			page 55


  85:Middlewares/Third_Party/FreeRTOS/Source/portable/GCC/ARM_CM7/r0p1/portmacro.h **** 	within the specified behaviour for the architecture. */						\
  86:Middlewares/Third_Party/FreeRTOS/Source/portable/GCC/ARM_CM7/r0p1/portmacro.h **** 	__asm volatile( "dsb" ::: "memory" );										\
  87:Middlewares/Third_Party/FreeRTOS/Source/portable/GCC/ARM_CM7/r0p1/portmacro.h **** 	__asm volatile( "isb" );													\
  88:Middlewares/Third_Party/FreeRTOS/Source/portable/GCC/ARM_CM7/r0p1/portmacro.h **** }
  89:Middlewares/Third_Party/FreeRTOS/Source/portable/GCC/ARM_CM7/r0p1/portmacro.h **** 
  90:Middlewares/Third_Party/FreeRTOS/Source/portable/GCC/ARM_CM7/r0p1/portmacro.h **** #define portNVIC_INT_CTRL_REG		( * ( ( volatile uint32_t * ) 0xe000ed04 ) )
  91:Middlewares/Third_Party/FreeRTOS/Source/portable/GCC/ARM_CM7/r0p1/portmacro.h **** #define portNVIC_PENDSVSET_BIT		( 1UL << 28UL )
  92:Middlewares/Third_Party/FreeRTOS/Source/portable/GCC/ARM_CM7/r0p1/portmacro.h **** #define portEND_SWITCHING_ISR( xSwitchRequired ) if( xSwitchRequired != pdFALSE ) portYIELD()
  93:Middlewares/Third_Party/FreeRTOS/Source/portable/GCC/ARM_CM7/r0p1/portmacro.h **** #define portYIELD_FROM_ISR( x ) portEND_SWITCHING_ISR( x )
  94:Middlewares/Third_Party/FreeRTOS/Source/portable/GCC/ARM_CM7/r0p1/portmacro.h **** /*-----------------------------------------------------------*/
  95:Middlewares/Third_Party/FreeRTOS/Source/portable/GCC/ARM_CM7/r0p1/portmacro.h **** 
  96:Middlewares/Third_Party/FreeRTOS/Source/portable/GCC/ARM_CM7/r0p1/portmacro.h **** /* Critical section management. */
  97:Middlewares/Third_Party/FreeRTOS/Source/portable/GCC/ARM_CM7/r0p1/portmacro.h **** extern void vPortEnterCritical( void );
  98:Middlewares/Third_Party/FreeRTOS/Source/portable/GCC/ARM_CM7/r0p1/portmacro.h **** extern void vPortExitCritical( void );
  99:Middlewares/Third_Party/FreeRTOS/Source/portable/GCC/ARM_CM7/r0p1/portmacro.h **** #define portSET_INTERRUPT_MASK_FROM_ISR()		ulPortRaiseBASEPRI()
 100:Middlewares/Third_Party/FreeRTOS/Source/portable/GCC/ARM_CM7/r0p1/portmacro.h **** #define portCLEAR_INTERRUPT_MASK_FROM_ISR(x)	vPortSetBASEPRI(x)
 101:Middlewares/Third_Party/FreeRTOS/Source/portable/GCC/ARM_CM7/r0p1/portmacro.h **** #define portDISABLE_INTERRUPTS()				vPortRaiseBASEPRI()
 102:Middlewares/Third_Party/FreeRTOS/Source/portable/GCC/ARM_CM7/r0p1/portmacro.h **** #define portENABLE_INTERRUPTS()					vPortSetBASEPRI(0)
 103:Middlewares/Third_Party/FreeRTOS/Source/portable/GCC/ARM_CM7/r0p1/portmacro.h **** #define portENTER_CRITICAL()					vPortEnterCritical()
 104:Middlewares/Third_Party/FreeRTOS/Source/portable/GCC/ARM_CM7/r0p1/portmacro.h **** #define portEXIT_CRITICAL()						vPortExitCritical()
 105:Middlewares/Third_Party/FreeRTOS/Source/portable/GCC/ARM_CM7/r0p1/portmacro.h **** 
 106:Middlewares/Third_Party/FreeRTOS/Source/portable/GCC/ARM_CM7/r0p1/portmacro.h **** /*-----------------------------------------------------------*/
 107:Middlewares/Third_Party/FreeRTOS/Source/portable/GCC/ARM_CM7/r0p1/portmacro.h **** 
 108:Middlewares/Third_Party/FreeRTOS/Source/portable/GCC/ARM_CM7/r0p1/portmacro.h **** /* Task function macros as described on the FreeRTOS.org WEB site.  These are
 109:Middlewares/Third_Party/FreeRTOS/Source/portable/GCC/ARM_CM7/r0p1/portmacro.h **** not necessary for to use this port.  They are defined so the common demo files
 110:Middlewares/Third_Party/FreeRTOS/Source/portable/GCC/ARM_CM7/r0p1/portmacro.h **** (which build with all the ports) will build. */
 111:Middlewares/Third_Party/FreeRTOS/Source/portable/GCC/ARM_CM7/r0p1/portmacro.h **** #define portTASK_FUNCTION_PROTO( vFunction, pvParameters ) void vFunction( void *pvParameters )
 112:Middlewares/Third_Party/FreeRTOS/Source/portable/GCC/ARM_CM7/r0p1/portmacro.h **** #define portTASK_FUNCTION( vFunction, pvParameters ) void vFunction( void *pvParameters )
 113:Middlewares/Third_Party/FreeRTOS/Source/portable/GCC/ARM_CM7/r0p1/portmacro.h **** /*-----------------------------------------------------------*/
 114:Middlewares/Third_Party/FreeRTOS/Source/portable/GCC/ARM_CM7/r0p1/portmacro.h **** 
 115:Middlewares/Third_Party/FreeRTOS/Source/portable/GCC/ARM_CM7/r0p1/portmacro.h **** /* Tickless idle/low power functionality. */
 116:Middlewares/Third_Party/FreeRTOS/Source/portable/GCC/ARM_CM7/r0p1/portmacro.h **** #ifndef portSUPPRESS_TICKS_AND_SLEEP
 117:Middlewares/Third_Party/FreeRTOS/Source/portable/GCC/ARM_CM7/r0p1/portmacro.h **** 	extern void vPortSuppressTicksAndSleep( TickType_t xExpectedIdleTime );
 118:Middlewares/Third_Party/FreeRTOS/Source/portable/GCC/ARM_CM7/r0p1/portmacro.h **** 	#define portSUPPRESS_TICKS_AND_SLEEP( xExpectedIdleTime ) vPortSuppressTicksAndSleep( xExpectedIdl
 119:Middlewares/Third_Party/FreeRTOS/Source/portable/GCC/ARM_CM7/r0p1/portmacro.h **** #endif
 120:Middlewares/Third_Party/FreeRTOS/Source/portable/GCC/ARM_CM7/r0p1/portmacro.h **** /*-----------------------------------------------------------*/
 121:Middlewares/Third_Party/FreeRTOS/Source/portable/GCC/ARM_CM7/r0p1/portmacro.h **** 
 122:Middlewares/Third_Party/FreeRTOS/Source/portable/GCC/ARM_CM7/r0p1/portmacro.h **** /* Architecture specific optimisations. */
 123:Middlewares/Third_Party/FreeRTOS/Source/portable/GCC/ARM_CM7/r0p1/portmacro.h **** #ifndef configUSE_PORT_OPTIMISED_TASK_SELECTION
 124:Middlewares/Third_Party/FreeRTOS/Source/portable/GCC/ARM_CM7/r0p1/portmacro.h **** 	#define configUSE_PORT_OPTIMISED_TASK_SELECTION 1
 125:Middlewares/Third_Party/FreeRTOS/Source/portable/GCC/ARM_CM7/r0p1/portmacro.h **** #endif
 126:Middlewares/Third_Party/FreeRTOS/Source/portable/GCC/ARM_CM7/r0p1/portmacro.h **** 
 127:Middlewares/Third_Party/FreeRTOS/Source/portable/GCC/ARM_CM7/r0p1/portmacro.h **** #if configUSE_PORT_OPTIMISED_TASK_SELECTION == 1
 128:Middlewares/Third_Party/FreeRTOS/Source/portable/GCC/ARM_CM7/r0p1/portmacro.h **** 
 129:Middlewares/Third_Party/FreeRTOS/Source/portable/GCC/ARM_CM7/r0p1/portmacro.h **** 	/* Generic helper function. */
 130:Middlewares/Third_Party/FreeRTOS/Source/portable/GCC/ARM_CM7/r0p1/portmacro.h **** 	__attribute__( ( always_inline ) ) static inline uint8_t ucPortCountLeadingZeros( uint32_t ulBitma
 131:Middlewares/Third_Party/FreeRTOS/Source/portable/GCC/ARM_CM7/r0p1/portmacro.h **** 	{
 132:Middlewares/Third_Party/FreeRTOS/Source/portable/GCC/ARM_CM7/r0p1/portmacro.h **** 	uint8_t ucReturn;
 133:Middlewares/Third_Party/FreeRTOS/Source/portable/GCC/ARM_CM7/r0p1/portmacro.h **** 
 134:Middlewares/Third_Party/FreeRTOS/Source/portable/GCC/ARM_CM7/r0p1/portmacro.h **** 		__asm volatile ( "clz %0, %1" : "=r" ( ucReturn ) : "r" ( ulBitmap ) : "memory" );
 135:Middlewares/Third_Party/FreeRTOS/Source/portable/GCC/ARM_CM7/r0p1/portmacro.h **** 		return ucReturn;
 136:Middlewares/Third_Party/FreeRTOS/Source/portable/GCC/ARM_CM7/r0p1/portmacro.h **** 	}
 137:Middlewares/Third_Party/FreeRTOS/Source/portable/GCC/ARM_CM7/r0p1/portmacro.h **** 
 138:Middlewares/Third_Party/FreeRTOS/Source/portable/GCC/ARM_CM7/r0p1/portmacro.h **** 	/* Check the configuration. */
 139:Middlewares/Third_Party/FreeRTOS/Source/portable/GCC/ARM_CM7/r0p1/portmacro.h **** 	#if( configMAX_PRIORITIES > 32 )
 140:Middlewares/Third_Party/FreeRTOS/Source/portable/GCC/ARM_CM7/r0p1/portmacro.h **** 		#error configUSE_PORT_OPTIMISED_TASK_SELECTION can only be set to 1 when configMAX_PRIORITIES is 
 141:Middlewares/Third_Party/FreeRTOS/Source/portable/GCC/ARM_CM7/r0p1/portmacro.h **** 	#endif
ARM GAS  C:\Users\seblo\AppData\Local\Temp\ccJuvw9h.s 			page 56


 142:Middlewares/Third_Party/FreeRTOS/Source/portable/GCC/ARM_CM7/r0p1/portmacro.h **** 
 143:Middlewares/Third_Party/FreeRTOS/Source/portable/GCC/ARM_CM7/r0p1/portmacro.h **** 	/* Store/clear the ready priorities in a bit map. */
 144:Middlewares/Third_Party/FreeRTOS/Source/portable/GCC/ARM_CM7/r0p1/portmacro.h **** 	#define portRECORD_READY_PRIORITY( uxPriority, uxReadyPriorities ) ( uxReadyPriorities ) |= ( 1UL 
 145:Middlewares/Third_Party/FreeRTOS/Source/portable/GCC/ARM_CM7/r0p1/portmacro.h **** 	#define portRESET_READY_PRIORITY( uxPriority, uxReadyPriorities ) ( uxReadyPriorities ) &= ~( 1UL 
 146:Middlewares/Third_Party/FreeRTOS/Source/portable/GCC/ARM_CM7/r0p1/portmacro.h **** 
 147:Middlewares/Third_Party/FreeRTOS/Source/portable/GCC/ARM_CM7/r0p1/portmacro.h **** 	/*-----------------------------------------------------------*/
 148:Middlewares/Third_Party/FreeRTOS/Source/portable/GCC/ARM_CM7/r0p1/portmacro.h **** 
 149:Middlewares/Third_Party/FreeRTOS/Source/portable/GCC/ARM_CM7/r0p1/portmacro.h **** 	#define portGET_HIGHEST_PRIORITY( uxTopPriority, uxReadyPriorities ) uxTopPriority = ( 31UL - ( ui
 150:Middlewares/Third_Party/FreeRTOS/Source/portable/GCC/ARM_CM7/r0p1/portmacro.h **** 
 151:Middlewares/Third_Party/FreeRTOS/Source/portable/GCC/ARM_CM7/r0p1/portmacro.h **** #endif /* configUSE_PORT_OPTIMISED_TASK_SELECTION */
 152:Middlewares/Third_Party/FreeRTOS/Source/portable/GCC/ARM_CM7/r0p1/portmacro.h **** 
 153:Middlewares/Third_Party/FreeRTOS/Source/portable/GCC/ARM_CM7/r0p1/portmacro.h **** /*-----------------------------------------------------------*/
 154:Middlewares/Third_Party/FreeRTOS/Source/portable/GCC/ARM_CM7/r0p1/portmacro.h **** 
 155:Middlewares/Third_Party/FreeRTOS/Source/portable/GCC/ARM_CM7/r0p1/portmacro.h **** #ifdef configASSERT
 156:Middlewares/Third_Party/FreeRTOS/Source/portable/GCC/ARM_CM7/r0p1/portmacro.h **** 	void vPortValidateInterruptPriority( void );
 157:Middlewares/Third_Party/FreeRTOS/Source/portable/GCC/ARM_CM7/r0p1/portmacro.h **** 	#define portASSERT_IF_INTERRUPT_PRIORITY_INVALID() 	vPortValidateInterruptPriority()
 158:Middlewares/Third_Party/FreeRTOS/Source/portable/GCC/ARM_CM7/r0p1/portmacro.h **** #endif
 159:Middlewares/Third_Party/FreeRTOS/Source/portable/GCC/ARM_CM7/r0p1/portmacro.h **** 
 160:Middlewares/Third_Party/FreeRTOS/Source/portable/GCC/ARM_CM7/r0p1/portmacro.h **** /* portNOP() is not required by this port. */
 161:Middlewares/Third_Party/FreeRTOS/Source/portable/GCC/ARM_CM7/r0p1/portmacro.h **** #define portNOP()
 162:Middlewares/Third_Party/FreeRTOS/Source/portable/GCC/ARM_CM7/r0p1/portmacro.h **** 
 163:Middlewares/Third_Party/FreeRTOS/Source/portable/GCC/ARM_CM7/r0p1/portmacro.h **** #define portINLINE	__inline
 164:Middlewares/Third_Party/FreeRTOS/Source/portable/GCC/ARM_CM7/r0p1/portmacro.h **** 
 165:Middlewares/Third_Party/FreeRTOS/Source/portable/GCC/ARM_CM7/r0p1/portmacro.h **** #ifndef portFORCE_INLINE
 166:Middlewares/Third_Party/FreeRTOS/Source/portable/GCC/ARM_CM7/r0p1/portmacro.h **** 	#define portFORCE_INLINE inline __attribute__(( always_inline))
 167:Middlewares/Third_Party/FreeRTOS/Source/portable/GCC/ARM_CM7/r0p1/portmacro.h **** #endif
 168:Middlewares/Third_Party/FreeRTOS/Source/portable/GCC/ARM_CM7/r0p1/portmacro.h **** 
 169:Middlewares/Third_Party/FreeRTOS/Source/portable/GCC/ARM_CM7/r0p1/portmacro.h **** portFORCE_INLINE static BaseType_t xPortIsInsideInterrupt( void )
 170:Middlewares/Third_Party/FreeRTOS/Source/portable/GCC/ARM_CM7/r0p1/portmacro.h **** {
 171:Middlewares/Third_Party/FreeRTOS/Source/portable/GCC/ARM_CM7/r0p1/portmacro.h **** uint32_t ulCurrentInterrupt;
 172:Middlewares/Third_Party/FreeRTOS/Source/portable/GCC/ARM_CM7/r0p1/portmacro.h **** BaseType_t xReturn;
 173:Middlewares/Third_Party/FreeRTOS/Source/portable/GCC/ARM_CM7/r0p1/portmacro.h **** 
 174:Middlewares/Third_Party/FreeRTOS/Source/portable/GCC/ARM_CM7/r0p1/portmacro.h **** 	/* Obtain the number of the currently executing interrupt. */
 175:Middlewares/Third_Party/FreeRTOS/Source/portable/GCC/ARM_CM7/r0p1/portmacro.h **** 	__asm volatile( "mrs %0, ipsr" : "=r"( ulCurrentInterrupt ) :: "memory" );
 176:Middlewares/Third_Party/FreeRTOS/Source/portable/GCC/ARM_CM7/r0p1/portmacro.h **** 
 177:Middlewares/Third_Party/FreeRTOS/Source/portable/GCC/ARM_CM7/r0p1/portmacro.h **** 	if( ulCurrentInterrupt == 0 )
 178:Middlewares/Third_Party/FreeRTOS/Source/portable/GCC/ARM_CM7/r0p1/portmacro.h **** 	{
 179:Middlewares/Third_Party/FreeRTOS/Source/portable/GCC/ARM_CM7/r0p1/portmacro.h **** 		xReturn = pdFALSE;
 180:Middlewares/Third_Party/FreeRTOS/Source/portable/GCC/ARM_CM7/r0p1/portmacro.h **** 	}
 181:Middlewares/Third_Party/FreeRTOS/Source/portable/GCC/ARM_CM7/r0p1/portmacro.h **** 	else
 182:Middlewares/Third_Party/FreeRTOS/Source/portable/GCC/ARM_CM7/r0p1/portmacro.h **** 	{
 183:Middlewares/Third_Party/FreeRTOS/Source/portable/GCC/ARM_CM7/r0p1/portmacro.h **** 		xReturn = pdTRUE;
 184:Middlewares/Third_Party/FreeRTOS/Source/portable/GCC/ARM_CM7/r0p1/portmacro.h **** 	}
 185:Middlewares/Third_Party/FreeRTOS/Source/portable/GCC/ARM_CM7/r0p1/portmacro.h **** 
 186:Middlewares/Third_Party/FreeRTOS/Source/portable/GCC/ARM_CM7/r0p1/portmacro.h **** 	return xReturn;
 187:Middlewares/Third_Party/FreeRTOS/Source/portable/GCC/ARM_CM7/r0p1/portmacro.h **** }
 188:Middlewares/Third_Party/FreeRTOS/Source/portable/GCC/ARM_CM7/r0p1/portmacro.h **** 
 189:Middlewares/Third_Party/FreeRTOS/Source/portable/GCC/ARM_CM7/r0p1/portmacro.h **** /*-----------------------------------------------------------*/
 190:Middlewares/Third_Party/FreeRTOS/Source/portable/GCC/ARM_CM7/r0p1/portmacro.h **** 
 191:Middlewares/Third_Party/FreeRTOS/Source/portable/GCC/ARM_CM7/r0p1/portmacro.h **** portFORCE_INLINE static void vPortRaiseBASEPRI( void )
 192:Middlewares/Third_Party/FreeRTOS/Source/portable/GCC/ARM_CM7/r0p1/portmacro.h **** {
 193:Middlewares/Third_Party/FreeRTOS/Source/portable/GCC/ARM_CM7/r0p1/portmacro.h **** uint32_t ulNewBASEPRI;
 194:Middlewares/Third_Party/FreeRTOS/Source/portable/GCC/ARM_CM7/r0p1/portmacro.h **** 
 195:Middlewares/Third_Party/FreeRTOS/Source/portable/GCC/ARM_CM7/r0p1/portmacro.h **** 	__asm volatile
 196:Middlewares/Third_Party/FreeRTOS/Source/portable/GCC/ARM_CM7/r0p1/portmacro.h **** 	(
 197:Middlewares/Third_Party/FreeRTOS/Source/portable/GCC/ARM_CM7/r0p1/portmacro.h **** 		"	mov %0, %1												\n"	\
 198:Middlewares/Third_Party/FreeRTOS/Source/portable/GCC/ARM_CM7/r0p1/portmacro.h **** 		"	cpsid i													\n" \
ARM GAS  C:\Users\seblo\AppData\Local\Temp\ccJuvw9h.s 			page 57


 199:Middlewares/Third_Party/FreeRTOS/Source/portable/GCC/ARM_CM7/r0p1/portmacro.h **** 		"	msr basepri, %0											\n" \
 200:Middlewares/Third_Party/FreeRTOS/Source/portable/GCC/ARM_CM7/r0p1/portmacro.h **** 		"	isb														\n" \
 201:Middlewares/Third_Party/FreeRTOS/Source/portable/GCC/ARM_CM7/r0p1/portmacro.h **** 		"	dsb														\n" \
 202:Middlewares/Third_Party/FreeRTOS/Source/portable/GCC/ARM_CM7/r0p1/portmacro.h **** 		"	cpsie i													\n" \
 203:Middlewares/Third_Party/FreeRTOS/Source/portable/GCC/ARM_CM7/r0p1/portmacro.h **** 		:"=r" (ulNewBASEPRI) : "i" ( configMAX_SYSCALL_INTERRUPT_PRIORITY ) : "memory"
 204:Middlewares/Third_Party/FreeRTOS/Source/portable/GCC/ARM_CM7/r0p1/portmacro.h **** 	);
 205:Middlewares/Third_Party/FreeRTOS/Source/portable/GCC/ARM_CM7/r0p1/portmacro.h **** }
 206:Middlewares/Third_Party/FreeRTOS/Source/portable/GCC/ARM_CM7/r0p1/portmacro.h **** 
 207:Middlewares/Third_Party/FreeRTOS/Source/portable/GCC/ARM_CM7/r0p1/portmacro.h **** /*-----------------------------------------------------------*/
 208:Middlewares/Third_Party/FreeRTOS/Source/portable/GCC/ARM_CM7/r0p1/portmacro.h **** 
 209:Middlewares/Third_Party/FreeRTOS/Source/portable/GCC/ARM_CM7/r0p1/portmacro.h **** portFORCE_INLINE static uint32_t ulPortRaiseBASEPRI( void )
 1805              		.loc 3 209 34 view .LVU424
 1806              	.LBB11:
 210:Middlewares/Third_Party/FreeRTOS/Source/portable/GCC/ARM_CM7/r0p1/portmacro.h **** {
 211:Middlewares/Third_Party/FreeRTOS/Source/portable/GCC/ARM_CM7/r0p1/portmacro.h **** uint32_t ulOriginalBASEPRI, ulNewBASEPRI;
 1807              		.loc 3 211 1 view .LVU425
 212:Middlewares/Third_Party/FreeRTOS/Source/portable/GCC/ARM_CM7/r0p1/portmacro.h **** 
 213:Middlewares/Third_Party/FreeRTOS/Source/portable/GCC/ARM_CM7/r0p1/portmacro.h **** 	__asm volatile
 1808              		.loc 3 213 2 view .LVU426
 1809              		.syntax unified
 1810              	@ 213 "Middlewares/Third_Party/FreeRTOS/Source/portable/GCC/ARM_CM7/r0p1/portmacro.h" 1
 1811 000a EFF31185 			mrs r5, basepri											
 1812 000e 4FF05003 		mov r3, #80												
 1813 0012 72B6     		cpsid i													
 1814 0014 83F31188 		msr basepri, r3											
 1815 0018 BFF36F8F 		isb														
 1816 001c BFF34F8F 		dsb														
 1817 0020 62B6     		cpsie i													
 1818              	
 1819              	@ 0 "" 2
 1820              	.LVL139:
 214:Middlewares/Third_Party/FreeRTOS/Source/portable/GCC/ARM_CM7/r0p1/portmacro.h **** 	(
 215:Middlewares/Third_Party/FreeRTOS/Source/portable/GCC/ARM_CM7/r0p1/portmacro.h **** 		"	mrs %0, basepri											\n" \
 216:Middlewares/Third_Party/FreeRTOS/Source/portable/GCC/ARM_CM7/r0p1/portmacro.h **** 		"	mov %1, %2												\n"	\
 217:Middlewares/Third_Party/FreeRTOS/Source/portable/GCC/ARM_CM7/r0p1/portmacro.h **** 		"	cpsid i													\n" \
 218:Middlewares/Third_Party/FreeRTOS/Source/portable/GCC/ARM_CM7/r0p1/portmacro.h **** 		"	msr basepri, %1											\n" \
 219:Middlewares/Third_Party/FreeRTOS/Source/portable/GCC/ARM_CM7/r0p1/portmacro.h **** 		"	isb														\n" \
 220:Middlewares/Third_Party/FreeRTOS/Source/portable/GCC/ARM_CM7/r0p1/portmacro.h **** 		"	dsb														\n" \
 221:Middlewares/Third_Party/FreeRTOS/Source/portable/GCC/ARM_CM7/r0p1/portmacro.h **** 		"	cpsie i													\n" \
 222:Middlewares/Third_Party/FreeRTOS/Source/portable/GCC/ARM_CM7/r0p1/portmacro.h **** 		:"=r" (ulOriginalBASEPRI), "=r" (ulNewBASEPRI) : "i" ( configMAX_SYSCALL_INTERRUPT_PRIORITY ) : "
 223:Middlewares/Third_Party/FreeRTOS/Source/portable/GCC/ARM_CM7/r0p1/portmacro.h **** 	);
 224:Middlewares/Third_Party/FreeRTOS/Source/portable/GCC/ARM_CM7/r0p1/portmacro.h **** 
 225:Middlewares/Third_Party/FreeRTOS/Source/portable/GCC/ARM_CM7/r0p1/portmacro.h **** 	/* This return will not be reached but is necessary to prevent compiler
 226:Middlewares/Third_Party/FreeRTOS/Source/portable/GCC/ARM_CM7/r0p1/portmacro.h **** 	warnings. */
 227:Middlewares/Third_Party/FreeRTOS/Source/portable/GCC/ARM_CM7/r0p1/portmacro.h **** 	return ulOriginalBASEPRI;
 1821              		.loc 3 227 2 view .LVU427
 1822              		.thumb
 1823              		.syntax unified
 1824              	.L124:
 1825              		.loc 3 227 2 is_stmt 0 view .LVU428
 1826              	.LBE11:
 1827              	.LBE10:
 945:Middlewares/Third_Party/FreeRTOS/Source/CMSIS_RTOS/cmsis_os.c ****   }
 946:Middlewares/Third_Party/FreeRTOS/Source/CMSIS_RTOS/cmsis_os.c ****   else {
 947:Middlewares/Third_Party/FreeRTOS/Source/CMSIS_RTOS/cmsis_os.c ****     vPortEnterCritical();
 948:Middlewares/Third_Party/FreeRTOS/Source/CMSIS_RTOS/cmsis_os.c ****   }
 949:Middlewares/Third_Party/FreeRTOS/Source/CMSIS_RTOS/cmsis_os.c ****   
ARM GAS  C:\Users\seblo\AppData\Local\Temp\ccJuvw9h.s 			page 58


 950:Middlewares/Third_Party/FreeRTOS/Source/CMSIS_RTOS/cmsis_os.c ****   for (i = 0; i < pool_id->pool_sz; i++) {
 1828              		.loc 1 950 3 is_stmt 1 view .LVU429
 1829              		.loc 1 950 10 is_stmt 0 view .LVU430
 1830 0022 0021     		movs	r1, #0
 1831              		.loc 1 950 3 view .LVU431
 1832 0024 04E0     		b	.L125
 1833              	.LVL140:
 1834              	.L123:
 1835              		.loc 1 950 3 view .LVU432
 1836 0026 0546     		mov	r5, r0
 947:Middlewares/Third_Party/FreeRTOS/Source/CMSIS_RTOS/cmsis_os.c ****   }
 1837              		.loc 1 947 5 is_stmt 1 view .LVU433
 1838 0028 FFF7FEFF 		bl	vPortEnterCritical
 1839              	.LVL141:
 1840 002c F9E7     		b	.L124
 1841              	.LVL142:
 1842              	.L126:
 1843              		.loc 1 950 37 discriminator 2 view .LVU434
 1844              		.loc 1 950 38 is_stmt 0 discriminator 2 view .LVU435
 1845 002e 0131     		adds	r1, r1, #1
 1846              	.LVL143:
 1847              	.L125:
 1848              		.loc 1 950 15 is_stmt 1 discriminator 1 view .LVU436
 1849              		.loc 1 950 26 is_stmt 0 discriminator 1 view .LVU437
 1850 0030 A268     		ldr	r2, [r4, #8]
 1851              		.loc 1 950 3 discriminator 1 view .LVU438
 1852 0032 8A42     		cmp	r2, r1
 1853 0034 12D9     		bls	.L132
 951:Middlewares/Third_Party/FreeRTOS/Source/CMSIS_RTOS/cmsis_os.c ****     index = (pool_id->currentIndex + i) % pool_id->pool_sz;
 1854              		.loc 1 951 5 is_stmt 1 view .LVU439
 1855              		.loc 1 951 21 is_stmt 0 view .LVU440
 1856 0036 2369     		ldr	r3, [r4, #16]
 1857              		.loc 1 951 36 view .LVU441
 1858 0038 0B44     		add	r3, r3, r1
 1859              		.loc 1 951 11 view .LVU442
 1860 003a B3FBF2F0 		udiv	r0, r3, r2
 1861 003e 02FB1033 		mls	r3, r2, r0, r3
 1862              	.LVL144:
 952:Middlewares/Third_Party/FreeRTOS/Source/CMSIS_RTOS/cmsis_os.c ****     
 953:Middlewares/Third_Party/FreeRTOS/Source/CMSIS_RTOS/cmsis_os.c ****     if (pool_id->markers[index] == 0) {
 1863              		.loc 1 953 5 is_stmt 1 view .LVU443
 1864              		.loc 1 953 16 is_stmt 0 view .LVU444
 1865 0042 6268     		ldr	r2, [r4, #4]
 1866              		.loc 1 953 25 view .LVU445
 1867 0044 D018     		adds	r0, r2, r3
 1868 0046 D25C     		ldrb	r2, [r2, r3]	@ zero_extendqisi2
 1869              		.loc 1 953 8 view .LVU446
 1870 0048 002A     		cmp	r2, #0
 1871 004a F0D1     		bne	.L126
 954:Middlewares/Third_Party/FreeRTOS/Source/CMSIS_RTOS/cmsis_os.c ****       pool_id->markers[index] = 1;
 1872              		.loc 1 954 7 is_stmt 1 view .LVU447
 1873              		.loc 1 954 31 is_stmt 0 view .LVU448
 1874 004c 0122     		movs	r2, #1
 1875 004e 0270     		strb	r2, [r0]
 955:Middlewares/Third_Party/FreeRTOS/Source/CMSIS_RTOS/cmsis_os.c ****       p = (void *)((uint32_t)(pool_id->pool) + (index * pool_id->item_sz));
 1876              		.loc 1 955 7 is_stmt 1 view .LVU449
 1877              		.loc 1 955 38 is_stmt 0 view .LVU450
ARM GAS  C:\Users\seblo\AppData\Local\Temp\ccJuvw9h.s 			page 59


 1878 0050 2668     		ldr	r6, [r4]
 1879              		.loc 1 955 64 view .LVU451
 1880 0052 E268     		ldr	r2, [r4, #12]
 1881              		.loc 1 955 46 view .LVU452
 1882 0054 03FB0266 		mla	r6, r3, r2, r6
 1883              	.LVL145:
 956:Middlewares/Third_Party/FreeRTOS/Source/CMSIS_RTOS/cmsis_os.c ****       pool_id->currentIndex = index;
 1884              		.loc 1 956 7 is_stmt 1 view .LVU453
 1885              		.loc 1 956 29 is_stmt 0 view .LVU454
 1886 0058 2361     		str	r3, [r4, #16]
 957:Middlewares/Third_Party/FreeRTOS/Source/CMSIS_RTOS/cmsis_os.c ****       break;
 1887              		.loc 1 957 7 is_stmt 1 view .LVU455
 1888 005a 00E0     		b	.L127
 1889              	.LVL146:
 1890              	.L132:
 939:Middlewares/Third_Party/FreeRTOS/Source/CMSIS_RTOS/cmsis_os.c ****   uint32_t i;
 1891              		.loc 1 939 9 is_stmt 0 view .LVU456
 1892 005c 0026     		movs	r6, #0
 1893              	.LVL147:
 1894              	.L127:
 958:Middlewares/Third_Party/FreeRTOS/Source/CMSIS_RTOS/cmsis_os.c ****     }
 959:Middlewares/Third_Party/FreeRTOS/Source/CMSIS_RTOS/cmsis_os.c ****   }
 960:Middlewares/Third_Party/FreeRTOS/Source/CMSIS_RTOS/cmsis_os.c ****   
 961:Middlewares/Third_Party/FreeRTOS/Source/CMSIS_RTOS/cmsis_os.c ****   if (inHandlerMode()) {
 1895              		.loc 1 961 3 is_stmt 1 view .LVU457
 1896              		.loc 1 961 7 is_stmt 0 view .LVU458
 1897 005e FFF7FEFF 		bl	inHandlerMode
 1898              	.LVL148:
 1899              		.loc 1 961 6 view .LVU459
 1900 0062 18B1     		cbz	r0, .L129
 962:Middlewares/Third_Party/FreeRTOS/Source/CMSIS_RTOS/cmsis_os.c ****     portCLEAR_INTERRUPT_MASK_FROM_ISR(dummy);
 1901              		.loc 1 962 5 is_stmt 1 view .LVU460
 1902              	.LVL149:
 1903              	.LBB12:
 1904              	.LBI12:
 228:Middlewares/Third_Party/FreeRTOS/Source/portable/GCC/ARM_CM7/r0p1/portmacro.h **** }
 229:Middlewares/Third_Party/FreeRTOS/Source/portable/GCC/ARM_CM7/r0p1/portmacro.h **** /*-----------------------------------------------------------*/
 230:Middlewares/Third_Party/FreeRTOS/Source/portable/GCC/ARM_CM7/r0p1/portmacro.h **** 
 231:Middlewares/Third_Party/FreeRTOS/Source/portable/GCC/ARM_CM7/r0p1/portmacro.h **** portFORCE_INLINE static void vPortSetBASEPRI( uint32_t ulNewMaskValue )
 1905              		.loc 3 231 30 view .LVU461
 1906              	.LBB13:
 232:Middlewares/Third_Party/FreeRTOS/Source/portable/GCC/ARM_CM7/r0p1/portmacro.h **** {
 233:Middlewares/Third_Party/FreeRTOS/Source/portable/GCC/ARM_CM7/r0p1/portmacro.h **** 	__asm volatile
 1907              		.loc 3 233 2 view .LVU462
 1908              		.syntax unified
 1909              	@ 233 "Middlewares/Third_Party/FreeRTOS/Source/portable/GCC/ARM_CM7/r0p1/portmacro.h" 1
 1910 0064 85F31188 			msr basepri, r5	
 1911              	@ 0 "" 2
 1912              	.LVL150:
 1913              		.thumb
 1914              		.syntax unified
 1915              	.L122:
 1916              		.loc 3 233 2 is_stmt 0 view .LVU463
 1917              	.LBE13:
 1918              	.LBE12:
 963:Middlewares/Third_Party/FreeRTOS/Source/CMSIS_RTOS/cmsis_os.c ****   }
 964:Middlewares/Third_Party/FreeRTOS/Source/CMSIS_RTOS/cmsis_os.c ****   else {
ARM GAS  C:\Users\seblo\AppData\Local\Temp\ccJuvw9h.s 			page 60


 965:Middlewares/Third_Party/FreeRTOS/Source/CMSIS_RTOS/cmsis_os.c ****     vPortExitCritical();
 966:Middlewares/Third_Party/FreeRTOS/Source/CMSIS_RTOS/cmsis_os.c ****   }
 967:Middlewares/Third_Party/FreeRTOS/Source/CMSIS_RTOS/cmsis_os.c ****   
 968:Middlewares/Third_Party/FreeRTOS/Source/CMSIS_RTOS/cmsis_os.c ****   return p;
 969:Middlewares/Third_Party/FreeRTOS/Source/CMSIS_RTOS/cmsis_os.c **** }
 1919              		.loc 1 969 1 view .LVU464
 1920 0068 3046     		mov	r0, r6
 1921 006a 70BD     		pop	{r4, r5, r6, pc}
 1922              	.LVL151:
 1923              	.L129:
 965:Middlewares/Third_Party/FreeRTOS/Source/CMSIS_RTOS/cmsis_os.c ****   }
 1924              		.loc 1 965 5 is_stmt 1 view .LVU465
 1925 006c FFF7FEFF 		bl	vPortExitCritical
 1926              	.LVL152:
 968:Middlewares/Third_Party/FreeRTOS/Source/CMSIS_RTOS/cmsis_os.c **** }
 1927              		.loc 1 968 3 view .LVU466
 968:Middlewares/Third_Party/FreeRTOS/Source/CMSIS_RTOS/cmsis_os.c **** }
 1928              		.loc 1 968 10 is_stmt 0 view .LVU467
 1929 0070 FAE7     		b	.L122
 1930              		.cfi_endproc
 1931              	.LFE135:
 1933              		.section	.text.osPoolCAlloc,"ax",%progbits
 1934              		.align	1
 1935              		.global	osPoolCAlloc
 1936              		.syntax unified
 1937              		.thumb
 1938              		.thumb_func
 1939              		.fpu fpv5-sp-d16
 1941              	osPoolCAlloc:
 1942              	.LVL153:
 1943              	.LFB136:
 970:Middlewares/Third_Party/FreeRTOS/Source/CMSIS_RTOS/cmsis_os.c **** 
 971:Middlewares/Third_Party/FreeRTOS/Source/CMSIS_RTOS/cmsis_os.c **** /**
 972:Middlewares/Third_Party/FreeRTOS/Source/CMSIS_RTOS/cmsis_os.c **** * @brief Allocate a memory block from a memory pool and set memory block to zero
 973:Middlewares/Third_Party/FreeRTOS/Source/CMSIS_RTOS/cmsis_os.c **** * @param  pool_id       memory pool ID obtain referenced with \ref osPoolCreate.
 974:Middlewares/Third_Party/FreeRTOS/Source/CMSIS_RTOS/cmsis_os.c **** * @retval  address of the allocated memory block or NULL in case of no memory available.
 975:Middlewares/Third_Party/FreeRTOS/Source/CMSIS_RTOS/cmsis_os.c **** * @note   MUST REMAIN UNCHANGED: \b osPoolCAlloc shall be consistent in every CMSIS-RTOS.
 976:Middlewares/Third_Party/FreeRTOS/Source/CMSIS_RTOS/cmsis_os.c **** */
 977:Middlewares/Third_Party/FreeRTOS/Source/CMSIS_RTOS/cmsis_os.c **** void *osPoolCAlloc (osPoolId pool_id)
 978:Middlewares/Third_Party/FreeRTOS/Source/CMSIS_RTOS/cmsis_os.c **** {
 1944              		.loc 1 978 1 is_stmt 1 view -0
 1945              		.cfi_startproc
 1946              		@ args = 0, pretend = 0, frame = 0
 1947              		@ frame_needed = 0, uses_anonymous_args = 0
 1948              		.loc 1 978 1 is_stmt 0 view .LVU469
 1949 0000 08B5     		push	{r3, lr}
 1950              	.LCFI45:
 1951              		.cfi_def_cfa_offset 8
 1952              		.cfi_offset 3, -8
 1953              		.cfi_offset 14, -4
 979:Middlewares/Third_Party/FreeRTOS/Source/CMSIS_RTOS/cmsis_os.c ****   void *p = osPoolAlloc(pool_id);
 1954              		.loc 1 979 3 is_stmt 1 view .LVU470
 1955              		.loc 1 979 13 is_stmt 0 view .LVU471
 1956 0002 FFF7FEFF 		bl	osPoolAlloc
 1957              	.LVL154:
 980:Middlewares/Third_Party/FreeRTOS/Source/CMSIS_RTOS/cmsis_os.c ****   
 981:Middlewares/Third_Party/FreeRTOS/Source/CMSIS_RTOS/cmsis_os.c ****   if (p != NULL)
ARM GAS  C:\Users\seblo\AppData\Local\Temp\ccJuvw9h.s 			page 61


 1958              		.loc 1 981 3 is_stmt 1 view .LVU472
 1959              		.loc 1 981 6 is_stmt 0 view .LVU473
 1960 0006 08B1     		cbz	r0, .L133
 982:Middlewares/Third_Party/FreeRTOS/Source/CMSIS_RTOS/cmsis_os.c ****   {
 983:Middlewares/Third_Party/FreeRTOS/Source/CMSIS_RTOS/cmsis_os.c ****     memset(p, 0, sizeof(pool_id->pool_sz));
 1961              		.loc 1 983 5 is_stmt 1 view .LVU474
 1962 0008 0023     		movs	r3, #0
 1963 000a 0360     		str	r3, [r0]	@ unaligned
 984:Middlewares/Third_Party/FreeRTOS/Source/CMSIS_RTOS/cmsis_os.c ****   }
 985:Middlewares/Third_Party/FreeRTOS/Source/CMSIS_RTOS/cmsis_os.c ****   
 986:Middlewares/Third_Party/FreeRTOS/Source/CMSIS_RTOS/cmsis_os.c ****   return p;
 1964              		.loc 1 986 3 view .LVU475
 1965              	.L133:
 987:Middlewares/Third_Party/FreeRTOS/Source/CMSIS_RTOS/cmsis_os.c **** }
 1966              		.loc 1 987 1 is_stmt 0 view .LVU476
 1967 000c 08BD     		pop	{r3, pc}
 1968              		.cfi_endproc
 1969              	.LFE136:
 1971              		.section	.text.osPoolFree,"ax",%progbits
 1972              		.align	1
 1973              		.global	osPoolFree
 1974              		.syntax unified
 1975              		.thumb
 1976              		.thumb_func
 1977              		.fpu fpv5-sp-d16
 1979              	osPoolFree:
 1980              	.LVL155:
 1981              	.LFB137:
 988:Middlewares/Third_Party/FreeRTOS/Source/CMSIS_RTOS/cmsis_os.c **** 
 989:Middlewares/Third_Party/FreeRTOS/Source/CMSIS_RTOS/cmsis_os.c **** /**
 990:Middlewares/Third_Party/FreeRTOS/Source/CMSIS_RTOS/cmsis_os.c **** * @brief Return an allocated memory block back to a specific memory pool
 991:Middlewares/Third_Party/FreeRTOS/Source/CMSIS_RTOS/cmsis_os.c **** * @param  pool_id       memory pool ID obtain referenced with \ref osPoolCreate.
 992:Middlewares/Third_Party/FreeRTOS/Source/CMSIS_RTOS/cmsis_os.c **** * @param  block         address of the allocated memory block that is returned to the memory pool.
 993:Middlewares/Third_Party/FreeRTOS/Source/CMSIS_RTOS/cmsis_os.c **** * @retval  status code that indicates the execution status of the function.
 994:Middlewares/Third_Party/FreeRTOS/Source/CMSIS_RTOS/cmsis_os.c **** * @note   MUST REMAIN UNCHANGED: \b osPoolFree shall be consistent in every CMSIS-RTOS.
 995:Middlewares/Third_Party/FreeRTOS/Source/CMSIS_RTOS/cmsis_os.c **** */
 996:Middlewares/Third_Party/FreeRTOS/Source/CMSIS_RTOS/cmsis_os.c **** osStatus osPoolFree (osPoolId pool_id, void *block)
 997:Middlewares/Third_Party/FreeRTOS/Source/CMSIS_RTOS/cmsis_os.c **** {
 1982              		.loc 1 997 1 is_stmt 1 view -0
 1983              		.cfi_startproc
 1984              		@ args = 0, pretend = 0, frame = 0
 1985              		@ frame_needed = 0, uses_anonymous_args = 0
 1986              		@ link register save eliminated.
 998:Middlewares/Third_Party/FreeRTOS/Source/CMSIS_RTOS/cmsis_os.c ****   uint32_t index;
 1987              		.loc 1 998 3 view .LVU478
 999:Middlewares/Third_Party/FreeRTOS/Source/CMSIS_RTOS/cmsis_os.c ****   
1000:Middlewares/Third_Party/FreeRTOS/Source/CMSIS_RTOS/cmsis_os.c ****   if (pool_id == NULL) {
 1988              		.loc 1 1000 3 view .LVU479
 1989              		.loc 1 1000 6 is_stmt 0 view .LVU480
 1990 0000 0346     		mov	r3, r0
 1991 0002 98B1     		cbz	r0, .L138
1001:Middlewares/Third_Party/FreeRTOS/Source/CMSIS_RTOS/cmsis_os.c ****     return osErrorParameter;
1002:Middlewares/Third_Party/FreeRTOS/Source/CMSIS_RTOS/cmsis_os.c ****   }
1003:Middlewares/Third_Party/FreeRTOS/Source/CMSIS_RTOS/cmsis_os.c ****   
1004:Middlewares/Third_Party/FreeRTOS/Source/CMSIS_RTOS/cmsis_os.c ****   if (block == NULL) {
 1992              		.loc 1 1004 3 is_stmt 1 view .LVU481
 1993              		.loc 1 1004 6 is_stmt 0 view .LVU482
ARM GAS  C:\Users\seblo\AppData\Local\Temp\ccJuvw9h.s 			page 62


 1994 0004 A1B1     		cbz	r1, .L139
1005:Middlewares/Third_Party/FreeRTOS/Source/CMSIS_RTOS/cmsis_os.c ****     return osErrorParameter;
1006:Middlewares/Third_Party/FreeRTOS/Source/CMSIS_RTOS/cmsis_os.c ****   }
1007:Middlewares/Third_Party/FreeRTOS/Source/CMSIS_RTOS/cmsis_os.c ****   
1008:Middlewares/Third_Party/FreeRTOS/Source/CMSIS_RTOS/cmsis_os.c ****   if (block < pool_id->pool) {
 1995              		.loc 1 1008 3 is_stmt 1 view .LVU483
 1996              		.loc 1 1008 22 is_stmt 0 view .LVU484
 1997 0006 0268     		ldr	r2, [r0]
 1998              		.loc 1 1008 6 view .LVU485
 1999 0008 8A42     		cmp	r2, r1
 2000 000a 13D8     		bhi	.L140
1009:Middlewares/Third_Party/FreeRTOS/Source/CMSIS_RTOS/cmsis_os.c ****     return osErrorParameter;
1010:Middlewares/Third_Party/FreeRTOS/Source/CMSIS_RTOS/cmsis_os.c ****   }
1011:Middlewares/Third_Party/FreeRTOS/Source/CMSIS_RTOS/cmsis_os.c ****   
1012:Middlewares/Third_Party/FreeRTOS/Source/CMSIS_RTOS/cmsis_os.c ****   index = (uint32_t)block - (uint32_t)(pool_id->pool);
 2001              		.loc 1 1012 3 is_stmt 1 view .LVU486
 2002              		.loc 1 1012 9 is_stmt 0 view .LVU487
 2003 000c 891A     		subs	r1, r1, r2
 2004              	.LVL156:
1013:Middlewares/Third_Party/FreeRTOS/Source/CMSIS_RTOS/cmsis_os.c ****   if (index % pool_id->item_sz) {
 2005              		.loc 1 1013 3 is_stmt 1 view .LVU488
 2006              		.loc 1 1013 22 is_stmt 0 view .LVU489
 2007 000e C268     		ldr	r2, [r0, #12]
 2008              		.loc 1 1013 13 view .LVU490
 2009 0010 B1FBF2F0 		udiv	r0, r1, r2
 2010              	.LVL157:
 2011              		.loc 1 1013 13 view .LVU491
 2012 0014 02FB1010 		mls	r0, r2, r0, r1
 2013              		.loc 1 1013 6 view .LVU492
 2014 0018 70B9     		cbnz	r0, .L141
1014:Middlewares/Third_Party/FreeRTOS/Source/CMSIS_RTOS/cmsis_os.c ****     return osErrorParameter;
1015:Middlewares/Third_Party/FreeRTOS/Source/CMSIS_RTOS/cmsis_os.c ****   }
1016:Middlewares/Third_Party/FreeRTOS/Source/CMSIS_RTOS/cmsis_os.c ****   index = index / pool_id->item_sz;
 2015              		.loc 1 1016 3 is_stmt 1 view .LVU493
 2016              		.loc 1 1016 9 is_stmt 0 view .LVU494
 2017 001a B1FBF2F1 		udiv	r1, r1, r2
 2018              	.LVL158:
1017:Middlewares/Third_Party/FreeRTOS/Source/CMSIS_RTOS/cmsis_os.c ****   if (index >= pool_id->pool_sz) {
 2019              		.loc 1 1017 3 is_stmt 1 view .LVU495
 2020              		.loc 1 1017 23 is_stmt 0 view .LVU496
 2021 001e 9A68     		ldr	r2, [r3, #8]
 2022              		.loc 1 1017 6 view .LVU497
 2023 0020 8A42     		cmp	r2, r1
 2024 0022 0BD9     		bls	.L142
1018:Middlewares/Third_Party/FreeRTOS/Source/CMSIS_RTOS/cmsis_os.c ****     return osErrorParameter;
1019:Middlewares/Third_Party/FreeRTOS/Source/CMSIS_RTOS/cmsis_os.c ****   }
1020:Middlewares/Third_Party/FreeRTOS/Source/CMSIS_RTOS/cmsis_os.c ****   
1021:Middlewares/Third_Party/FreeRTOS/Source/CMSIS_RTOS/cmsis_os.c ****   pool_id->markers[index] = 0;
 2025              		.loc 1 1021 3 is_stmt 1 view .LVU498
 2026              		.loc 1 1021 10 is_stmt 0 view .LVU499
 2027 0024 5B68     		ldr	r3, [r3, #4]
 2028              	.LVL159:
 2029              		.loc 1 1021 27 view .LVU500
 2030 0026 0022     		movs	r2, #0
 2031 0028 5A54     		strb	r2, [r3, r1]
1022:Middlewares/Third_Party/FreeRTOS/Source/CMSIS_RTOS/cmsis_os.c ****   
1023:Middlewares/Third_Party/FreeRTOS/Source/CMSIS_RTOS/cmsis_os.c ****   return osOK;
ARM GAS  C:\Users\seblo\AppData\Local\Temp\ccJuvw9h.s 			page 63


 2032              		.loc 1 1023 3 is_stmt 1 view .LVU501
 2033              		.loc 1 1023 10 is_stmt 0 view .LVU502
 2034 002a 7047     		bx	lr
 2035              	.LVL160:
 2036              	.L138:
1001:Middlewares/Third_Party/FreeRTOS/Source/CMSIS_RTOS/cmsis_os.c ****   }
 2037              		.loc 1 1001 12 view .LVU503
 2038 002c 8020     		movs	r0, #128
 2039              	.LVL161:
1001:Middlewares/Third_Party/FreeRTOS/Source/CMSIS_RTOS/cmsis_os.c ****   }
 2040              		.loc 1 1001 12 view .LVU504
 2041 002e 7047     		bx	lr
 2042              	.LVL162:
 2043              	.L139:
1005:Middlewares/Third_Party/FreeRTOS/Source/CMSIS_RTOS/cmsis_os.c ****   }
 2044              		.loc 1 1005 12 view .LVU505
 2045 0030 8020     		movs	r0, #128
 2046              	.LVL163:
1005:Middlewares/Third_Party/FreeRTOS/Source/CMSIS_RTOS/cmsis_os.c ****   }
 2047              		.loc 1 1005 12 view .LVU506
 2048 0032 7047     		bx	lr
 2049              	.LVL164:
 2050              	.L140:
1009:Middlewares/Third_Party/FreeRTOS/Source/CMSIS_RTOS/cmsis_os.c ****   }
 2051              		.loc 1 1009 12 view .LVU507
 2052 0034 8020     		movs	r0, #128
 2053              	.LVL165:
1009:Middlewares/Third_Party/FreeRTOS/Source/CMSIS_RTOS/cmsis_os.c ****   }
 2054              		.loc 1 1009 12 view .LVU508
 2055 0036 7047     		bx	lr
 2056              	.LVL166:
 2057              	.L141:
1014:Middlewares/Third_Party/FreeRTOS/Source/CMSIS_RTOS/cmsis_os.c ****   }
 2058              		.loc 1 1014 12 view .LVU509
 2059 0038 8020     		movs	r0, #128
 2060 003a 7047     		bx	lr
 2061              	.L142:
1018:Middlewares/Third_Party/FreeRTOS/Source/CMSIS_RTOS/cmsis_os.c ****   }
 2062              		.loc 1 1018 12 view .LVU510
 2063 003c 8020     		movs	r0, #128
1024:Middlewares/Third_Party/FreeRTOS/Source/CMSIS_RTOS/cmsis_os.c **** }
 2064              		.loc 1 1024 1 view .LVU511
 2065 003e 7047     		bx	lr
 2066              		.cfi_endproc
 2067              	.LFE137:
 2069              		.section	.text.osMessageCreate,"ax",%progbits
 2070              		.align	1
 2071              		.global	osMessageCreate
 2072              		.syntax unified
 2073              		.thumb
 2074              		.thumb_func
 2075              		.fpu fpv5-sp-d16
 2077              	osMessageCreate:
 2078              	.LVL167:
 2079              	.LFB138:
1025:Middlewares/Third_Party/FreeRTOS/Source/CMSIS_RTOS/cmsis_os.c **** 
1026:Middlewares/Third_Party/FreeRTOS/Source/CMSIS_RTOS/cmsis_os.c **** 
ARM GAS  C:\Users\seblo\AppData\Local\Temp\ccJuvw9h.s 			page 64


1027:Middlewares/Third_Party/FreeRTOS/Source/CMSIS_RTOS/cmsis_os.c **** #endif   /* Use Memory Pool Management */
1028:Middlewares/Third_Party/FreeRTOS/Source/CMSIS_RTOS/cmsis_os.c **** 
1029:Middlewares/Third_Party/FreeRTOS/Source/CMSIS_RTOS/cmsis_os.c **** /*******************   Message Queue Management Functions  *********************/
1030:Middlewares/Third_Party/FreeRTOS/Source/CMSIS_RTOS/cmsis_os.c **** 
1031:Middlewares/Third_Party/FreeRTOS/Source/CMSIS_RTOS/cmsis_os.c **** #if (defined (osFeature_MessageQ)  &&  (osFeature_MessageQ != 0)) /* Use Message Queues */
1032:Middlewares/Third_Party/FreeRTOS/Source/CMSIS_RTOS/cmsis_os.c **** 
1033:Middlewares/Third_Party/FreeRTOS/Source/CMSIS_RTOS/cmsis_os.c **** /**
1034:Middlewares/Third_Party/FreeRTOS/Source/CMSIS_RTOS/cmsis_os.c **** * @brief Create and Initialize a Message Queue
1035:Middlewares/Third_Party/FreeRTOS/Source/CMSIS_RTOS/cmsis_os.c **** * @param queue_def     queue definition referenced with \ref osMessageQ.
1036:Middlewares/Third_Party/FreeRTOS/Source/CMSIS_RTOS/cmsis_os.c **** * @param  thread_id     thread ID (obtained by \ref osThreadCreate or \ref osThreadGetId) or NULL.
1037:Middlewares/Third_Party/FreeRTOS/Source/CMSIS_RTOS/cmsis_os.c **** * @retval  message queue ID for reference by other functions or NULL in case of error.
1038:Middlewares/Third_Party/FreeRTOS/Source/CMSIS_RTOS/cmsis_os.c **** * @note   MUST REMAIN UNCHANGED: \b osMessageCreate shall be consistent in every CMSIS-RTOS.
1039:Middlewares/Third_Party/FreeRTOS/Source/CMSIS_RTOS/cmsis_os.c **** */
1040:Middlewares/Third_Party/FreeRTOS/Source/CMSIS_RTOS/cmsis_os.c **** osMessageQId osMessageCreate (const osMessageQDef_t *queue_def, osThreadId thread_id)
1041:Middlewares/Third_Party/FreeRTOS/Source/CMSIS_RTOS/cmsis_os.c **** {
 2080              		.loc 1 1041 1 is_stmt 1 view -0
 2081              		.cfi_startproc
 2082              		@ args = 0, pretend = 0, frame = 0
 2083              		@ frame_needed = 0, uses_anonymous_args = 0
 2084              		.loc 1 1041 1 is_stmt 0 view .LVU513
 2085 0000 00B5     		push	{lr}
 2086              	.LCFI46:
 2087              		.cfi_def_cfa_offset 4
 2088              		.cfi_offset 14, -4
 2089 0002 83B0     		sub	sp, sp, #12
 2090              	.LCFI47:
 2091              		.cfi_def_cfa_offset 16
1042:Middlewares/Third_Party/FreeRTOS/Source/CMSIS_RTOS/cmsis_os.c ****   (void) thread_id;
 2092              		.loc 1 1042 3 is_stmt 1 view .LVU514
1043:Middlewares/Third_Party/FreeRTOS/Source/CMSIS_RTOS/cmsis_os.c ****   
1044:Middlewares/Third_Party/FreeRTOS/Source/CMSIS_RTOS/cmsis_os.c **** #if( configSUPPORT_STATIC_ALLOCATION == 1 ) && ( configSUPPORT_DYNAMIC_ALLOCATION == 1 )
1045:Middlewares/Third_Party/FreeRTOS/Source/CMSIS_RTOS/cmsis_os.c **** 
1046:Middlewares/Third_Party/FreeRTOS/Source/CMSIS_RTOS/cmsis_os.c ****   if ((queue_def->buffer != NULL) && (queue_def->controlblock != NULL)) {
 2093              		.loc 1 1046 3 view .LVU515
 2094              		.loc 1 1046 17 is_stmt 0 view .LVU516
 2095 0004 8268     		ldr	r2, [r0, #8]
 2096              		.loc 1 1046 6 view .LVU517
 2097 0006 42B1     		cbz	r2, .L144
 2098              		.loc 1 1046 48 discriminator 1 view .LVU518
 2099 0008 C368     		ldr	r3, [r0, #12]
 2100              		.loc 1 1046 35 discriminator 1 view .LVU519
 2101 000a 33B1     		cbz	r3, .L144
1047:Middlewares/Third_Party/FreeRTOS/Source/CMSIS_RTOS/cmsis_os.c ****     return xQueueCreateStatic(queue_def->queue_sz, queue_def->item_sz, queue_def->buffer, queue_def
 2102              		.loc 1 1047 5 is_stmt 1 view .LVU520
 2103              		.loc 1 1047 12 is_stmt 0 view .LVU521
 2104 000c 0021     		movs	r1, #0
 2105              	.LVL168:
 2106              		.loc 1 1047 12 view .LVU522
 2107 000e 0091     		str	r1, [sp]
 2108 0010 4168     		ldr	r1, [r0, #4]
 2109 0012 0068     		ldr	r0, [r0]
 2110              	.LVL169:
 2111              		.loc 1 1047 12 view .LVU523
 2112 0014 FFF7FEFF 		bl	xQueueGenericCreateStatic
 2113              	.LVL170:
 2114 0018 04E0     		b	.L143
 2115              	.LVL171:
ARM GAS  C:\Users\seblo\AppData\Local\Temp\ccJuvw9h.s 			page 65


 2116              	.L144:
1048:Middlewares/Third_Party/FreeRTOS/Source/CMSIS_RTOS/cmsis_os.c ****   }
1049:Middlewares/Third_Party/FreeRTOS/Source/CMSIS_RTOS/cmsis_os.c ****   else {
1050:Middlewares/Third_Party/FreeRTOS/Source/CMSIS_RTOS/cmsis_os.c ****     return xQueueCreate(queue_def->queue_sz, queue_def->item_sz);
 2117              		.loc 1 1050 5 is_stmt 1 view .LVU524
 2118              		.loc 1 1050 12 is_stmt 0 view .LVU525
 2119 001a 0022     		movs	r2, #0
 2120 001c 4168     		ldr	r1, [r0, #4]
 2121              	.LVL172:
 2122              		.loc 1 1050 12 view .LVU526
 2123 001e 0068     		ldr	r0, [r0]
 2124              	.LVL173:
 2125              		.loc 1 1050 12 view .LVU527
 2126 0020 FFF7FEFF 		bl	xQueueGenericCreate
 2127              	.LVL174:
 2128              	.L143:
1051:Middlewares/Third_Party/FreeRTOS/Source/CMSIS_RTOS/cmsis_os.c ****   }
1052:Middlewares/Third_Party/FreeRTOS/Source/CMSIS_RTOS/cmsis_os.c **** #elif ( configSUPPORT_STATIC_ALLOCATION == 1 )
1053:Middlewares/Third_Party/FreeRTOS/Source/CMSIS_RTOS/cmsis_os.c ****   return xQueueCreateStatic(queue_def->queue_sz, queue_def->item_sz, queue_def->buffer, queue_def->
1054:Middlewares/Third_Party/FreeRTOS/Source/CMSIS_RTOS/cmsis_os.c **** #else  
1055:Middlewares/Third_Party/FreeRTOS/Source/CMSIS_RTOS/cmsis_os.c ****   return xQueueCreate(queue_def->queue_sz, queue_def->item_sz);
1056:Middlewares/Third_Party/FreeRTOS/Source/CMSIS_RTOS/cmsis_os.c **** #endif
1057:Middlewares/Third_Party/FreeRTOS/Source/CMSIS_RTOS/cmsis_os.c **** }
 2129              		.loc 1 1057 1 view .LVU528
 2130 0024 03B0     		add	sp, sp, #12
 2131              	.LCFI48:
 2132              		.cfi_def_cfa_offset 4
 2133              		@ sp needed
 2134 0026 5DF804FB 		ldr	pc, [sp], #4
 2135              		.cfi_endproc
 2136              	.LFE138:
 2138              		.section	.text.osMessagePut,"ax",%progbits
 2139              		.align	1
 2140              		.global	osMessagePut
 2141              		.syntax unified
 2142              		.thumb
 2143              		.thumb_func
 2144              		.fpu fpv5-sp-d16
 2146              	osMessagePut:
 2147              	.LVL175:
 2148              	.LFB139:
1058:Middlewares/Third_Party/FreeRTOS/Source/CMSIS_RTOS/cmsis_os.c **** 
1059:Middlewares/Third_Party/FreeRTOS/Source/CMSIS_RTOS/cmsis_os.c **** /**
1060:Middlewares/Third_Party/FreeRTOS/Source/CMSIS_RTOS/cmsis_os.c **** * @brief Put a Message to a Queue.
1061:Middlewares/Third_Party/FreeRTOS/Source/CMSIS_RTOS/cmsis_os.c **** * @param  queue_id  message queue ID obtained with \ref osMessageCreate.
1062:Middlewares/Third_Party/FreeRTOS/Source/CMSIS_RTOS/cmsis_os.c **** * @param  info      message information.
1063:Middlewares/Third_Party/FreeRTOS/Source/CMSIS_RTOS/cmsis_os.c **** * @param  millisec  timeout value or 0 in case of no time-out.
1064:Middlewares/Third_Party/FreeRTOS/Source/CMSIS_RTOS/cmsis_os.c **** * @retval status code that indicates the execution status of the function.
1065:Middlewares/Third_Party/FreeRTOS/Source/CMSIS_RTOS/cmsis_os.c **** * @note   MUST REMAIN UNCHANGED: \b osMessagePut shall be consistent in every CMSIS-RTOS.
1066:Middlewares/Third_Party/FreeRTOS/Source/CMSIS_RTOS/cmsis_os.c **** */
1067:Middlewares/Third_Party/FreeRTOS/Source/CMSIS_RTOS/cmsis_os.c **** osStatus osMessagePut (osMessageQId queue_id, uint32_t info, uint32_t millisec)
1068:Middlewares/Third_Party/FreeRTOS/Source/CMSIS_RTOS/cmsis_os.c **** {
 2149              		.loc 1 1068 1 is_stmt 1 view -0
 2150              		.cfi_startproc
 2151              		@ args = 0, pretend = 0, frame = 16
 2152              		@ frame_needed = 0, uses_anonymous_args = 0
 2153              		.loc 1 1068 1 is_stmt 0 view .LVU530
ARM GAS  C:\Users\seblo\AppData\Local\Temp\ccJuvw9h.s 			page 66


 2154 0000 30B5     		push	{r4, r5, lr}
 2155              	.LCFI49:
 2156              		.cfi_def_cfa_offset 12
 2157              		.cfi_offset 4, -12
 2158              		.cfi_offset 5, -8
 2159              		.cfi_offset 14, -4
 2160 0002 85B0     		sub	sp, sp, #20
 2161              	.LCFI50:
 2162              		.cfi_def_cfa_offset 32
 2163 0004 0446     		mov	r4, r0
 2164 0006 0191     		str	r1, [sp, #4]
1069:Middlewares/Third_Party/FreeRTOS/Source/CMSIS_RTOS/cmsis_os.c ****   portBASE_TYPE taskWoken = pdFALSE;
 2165              		.loc 1 1069 3 is_stmt 1 view .LVU531
 2166              		.loc 1 1069 17 is_stmt 0 view .LVU532
 2167 0008 0023     		movs	r3, #0
 2168 000a 0393     		str	r3, [sp, #12]
1070:Middlewares/Third_Party/FreeRTOS/Source/CMSIS_RTOS/cmsis_os.c ****   TickType_t ticks;
 2169              		.loc 1 1070 3 is_stmt 1 view .LVU533
1071:Middlewares/Third_Party/FreeRTOS/Source/CMSIS_RTOS/cmsis_os.c ****   
1072:Middlewares/Third_Party/FreeRTOS/Source/CMSIS_RTOS/cmsis_os.c ****   ticks = millisec / portTICK_PERIOD_MS;
 2170              		.loc 1 1072 3 view .LVU534
 2171              	.LVL176:
1073:Middlewares/Third_Party/FreeRTOS/Source/CMSIS_RTOS/cmsis_os.c ****   if (ticks == 0) {
 2172              		.loc 1 1073 3 view .LVU535
 2173              		.loc 1 1073 6 is_stmt 0 view .LVU536
 2174 000c 1546     		mov	r5, r2
 2175 000e 02B9     		cbnz	r2, .L148
1074:Middlewares/Third_Party/FreeRTOS/Source/CMSIS_RTOS/cmsis_os.c ****     ticks = 1;
 2176              		.loc 1 1074 11 view .LVU537
 2177 0010 0125     		movs	r5, #1
 2178              	.L148:
 2179              	.LVL177:
1075:Middlewares/Third_Party/FreeRTOS/Source/CMSIS_RTOS/cmsis_os.c ****   }
1076:Middlewares/Third_Party/FreeRTOS/Source/CMSIS_RTOS/cmsis_os.c ****   
1077:Middlewares/Third_Party/FreeRTOS/Source/CMSIS_RTOS/cmsis_os.c ****   if (inHandlerMode()) {
 2180              		.loc 1 1077 3 is_stmt 1 view .LVU538
 2181              		.loc 1 1077 7 is_stmt 0 view .LVU539
 2182 0012 FFF7FEFF 		bl	inHandlerMode
 2183              	.LVL178:
 2184              		.loc 1 1077 6 view .LVU540
 2185 0016 A8B1     		cbz	r0, .L149
1078:Middlewares/Third_Party/FreeRTOS/Source/CMSIS_RTOS/cmsis_os.c ****     if (xQueueSendFromISR(queue_id, &info, &taskWoken) != pdTRUE) {
 2186              		.loc 1 1078 5 is_stmt 1 view .LVU541
 2187              		.loc 1 1078 9 is_stmt 0 view .LVU542
 2188 0018 0023     		movs	r3, #0
 2189 001a 03AA     		add	r2, sp, #12
 2190 001c 01A9     		add	r1, sp, #4
 2191 001e 2046     		mov	r0, r4
 2192 0020 FFF7FEFF 		bl	xQueueGenericSendFromISR
 2193              	.LVL179:
 2194              		.loc 1 1078 8 view .LVU543
 2195 0024 0128     		cmp	r0, #1
 2196 0026 18D1     		bne	.L152
1079:Middlewares/Third_Party/FreeRTOS/Source/CMSIS_RTOS/cmsis_os.c ****       return osErrorOS;
1080:Middlewares/Third_Party/FreeRTOS/Source/CMSIS_RTOS/cmsis_os.c ****     }
1081:Middlewares/Third_Party/FreeRTOS/Source/CMSIS_RTOS/cmsis_os.c ****     portEND_SWITCHING_ISR(taskWoken);
 2197              		.loc 1 1081 5 is_stmt 1 view .LVU544
ARM GAS  C:\Users\seblo\AppData\Local\Temp\ccJuvw9h.s 			page 67


 2198 0028 039B     		ldr	r3, [sp, #12]
 2199 002a C3B1     		cbz	r3, .L153
 2200              		.loc 1 1081 5 discriminator 1 view .LVU545
 2201 002c 4FF0E023 		mov	r3, #-536813568
 2202 0030 4FF08052 		mov	r2, #268435456
 2203 0034 C3F8042D 		str	r2, [r3, #3332]
 2204              		.loc 1 1081 5 discriminator 1 view .LVU546
 2205              		.syntax unified
 2206              	@ 1081 "Middlewares/Third_Party/FreeRTOS/Source/CMSIS_RTOS/cmsis_os.c" 1
 2207 0038 BFF34F8F 		dsb
 2208              	@ 0 "" 2
 2209              		.loc 1 1081 5 discriminator 1 view .LVU547
 2210              	@ 1081 "Middlewares/Third_Party/FreeRTOS/Source/CMSIS_RTOS/cmsis_os.c" 1
 2211 003c BFF36F8F 		isb
 2212              	@ 0 "" 2
1082:Middlewares/Third_Party/FreeRTOS/Source/CMSIS_RTOS/cmsis_os.c ****   }
1083:Middlewares/Third_Party/FreeRTOS/Source/CMSIS_RTOS/cmsis_os.c ****   else {
1084:Middlewares/Third_Party/FreeRTOS/Source/CMSIS_RTOS/cmsis_os.c ****     if (xQueueSend(queue_id, &info, ticks) != pdTRUE) {
1085:Middlewares/Third_Party/FreeRTOS/Source/CMSIS_RTOS/cmsis_os.c ****       return osErrorOS;
1086:Middlewares/Third_Party/FreeRTOS/Source/CMSIS_RTOS/cmsis_os.c ****     }
1087:Middlewares/Third_Party/FreeRTOS/Source/CMSIS_RTOS/cmsis_os.c ****   }
1088:Middlewares/Third_Party/FreeRTOS/Source/CMSIS_RTOS/cmsis_os.c ****   
1089:Middlewares/Third_Party/FreeRTOS/Source/CMSIS_RTOS/cmsis_os.c ****   return osOK;
 2213              		.loc 1 1089 10 is_stmt 0 discriminator 1 view .LVU548
 2214              		.thumb
 2215              		.syntax unified
 2216 0040 0020     		movs	r0, #0
 2217 0042 08E0     		b	.L147
 2218              	.L149:
1084:Middlewares/Third_Party/FreeRTOS/Source/CMSIS_RTOS/cmsis_os.c ****       return osErrorOS;
 2219              		.loc 1 1084 5 is_stmt 1 view .LVU549
1084:Middlewares/Third_Party/FreeRTOS/Source/CMSIS_RTOS/cmsis_os.c ****       return osErrorOS;
 2220              		.loc 1 1084 9 is_stmt 0 view .LVU550
 2221 0044 0023     		movs	r3, #0
 2222 0046 2A46     		mov	r2, r5
 2223 0048 01A9     		add	r1, sp, #4
 2224 004a 2046     		mov	r0, r4
 2225 004c FFF7FEFF 		bl	xQueueGenericSend
 2226              	.LVL180:
1084:Middlewares/Third_Party/FreeRTOS/Source/CMSIS_RTOS/cmsis_os.c ****       return osErrorOS;
 2227              		.loc 1 1084 8 view .LVU551
 2228 0050 0128     		cmp	r0, #1
 2229 0052 06D1     		bne	.L154
 2230              		.loc 1 1089 10 view .LVU552
 2231 0054 0020     		movs	r0, #0
 2232              	.L147:
1090:Middlewares/Third_Party/FreeRTOS/Source/CMSIS_RTOS/cmsis_os.c **** }
 2233              		.loc 1 1090 1 view .LVU553
 2234 0056 05B0     		add	sp, sp, #20
 2235              	.LCFI51:
 2236              		.cfi_remember_state
 2237              		.cfi_def_cfa_offset 12
 2238              		@ sp needed
 2239 0058 30BD     		pop	{r4, r5, pc}
 2240              	.LVL181:
 2241              	.L152:
 2242              	.LCFI52:
ARM GAS  C:\Users\seblo\AppData\Local\Temp\ccJuvw9h.s 			page 68


 2243              		.cfi_restore_state
1079:Middlewares/Third_Party/FreeRTOS/Source/CMSIS_RTOS/cmsis_os.c ****     }
 2244              		.loc 1 1079 14 view .LVU554
 2245 005a FF20     		movs	r0, #255
 2246 005c FBE7     		b	.L147
 2247              	.L153:
1089:Middlewares/Third_Party/FreeRTOS/Source/CMSIS_RTOS/cmsis_os.c **** }
 2248              		.loc 1 1089 10 view .LVU555
 2249 005e 0020     		movs	r0, #0
 2250 0060 F9E7     		b	.L147
 2251              	.L154:
1085:Middlewares/Third_Party/FreeRTOS/Source/CMSIS_RTOS/cmsis_os.c ****     }
 2252              		.loc 1 1085 14 view .LVU556
 2253 0062 FF20     		movs	r0, #255
 2254 0064 F7E7     		b	.L147
 2255              		.cfi_endproc
 2256              	.LFE139:
 2258              		.section	.text.osMessageGet,"ax",%progbits
 2259              		.align	1
 2260              		.global	osMessageGet
 2261              		.syntax unified
 2262              		.thumb
 2263              		.thumb_func
 2264              		.fpu fpv5-sp-d16
 2266              	osMessageGet:
 2267              	.LVL182:
 2268              	.LFB140:
1091:Middlewares/Third_Party/FreeRTOS/Source/CMSIS_RTOS/cmsis_os.c **** 
1092:Middlewares/Third_Party/FreeRTOS/Source/CMSIS_RTOS/cmsis_os.c **** /**
1093:Middlewares/Third_Party/FreeRTOS/Source/CMSIS_RTOS/cmsis_os.c **** * @brief Get a Message or Wait for a Message from a Queue.
1094:Middlewares/Third_Party/FreeRTOS/Source/CMSIS_RTOS/cmsis_os.c **** * @param  queue_id  message queue ID obtained with \ref osMessageCreate.
1095:Middlewares/Third_Party/FreeRTOS/Source/CMSIS_RTOS/cmsis_os.c **** * @param  millisec  timeout value or 0 in case of no time-out.
1096:Middlewares/Third_Party/FreeRTOS/Source/CMSIS_RTOS/cmsis_os.c **** * @retval event information that includes status code.
1097:Middlewares/Third_Party/FreeRTOS/Source/CMSIS_RTOS/cmsis_os.c **** * @note   MUST REMAIN UNCHANGED: \b osMessageGet shall be consistent in every CMSIS-RTOS.
1098:Middlewares/Third_Party/FreeRTOS/Source/CMSIS_RTOS/cmsis_os.c **** */
1099:Middlewares/Third_Party/FreeRTOS/Source/CMSIS_RTOS/cmsis_os.c **** osEvent osMessageGet (osMessageQId queue_id, uint32_t millisec)
1100:Middlewares/Third_Party/FreeRTOS/Source/CMSIS_RTOS/cmsis_os.c **** {
 2269              		.loc 1 1100 1 is_stmt 1 view -0
 2270              		.cfi_startproc
 2271              		@ args = 0, pretend = 0, frame = 16
 2272              		@ frame_needed = 0, uses_anonymous_args = 0
 2273              		.loc 1 1100 1 is_stmt 0 view .LVU558
 2274 0000 70B5     		push	{r4, r5, r6, lr}
 2275              	.LCFI53:
 2276              		.cfi_def_cfa_offset 16
 2277              		.cfi_offset 4, -16
 2278              		.cfi_offset 5, -12
 2279              		.cfi_offset 6, -8
 2280              		.cfi_offset 14, -4
 2281 0002 84B0     		sub	sp, sp, #16
 2282              	.LCFI54:
 2283              		.cfi_def_cfa_offset 32
 2284 0004 0446     		mov	r4, r0
1101:Middlewares/Third_Party/FreeRTOS/Source/CMSIS_RTOS/cmsis_os.c ****   portBASE_TYPE taskWoken;
 2285              		.loc 1 1101 3 is_stmt 1 view .LVU559
1102:Middlewares/Third_Party/FreeRTOS/Source/CMSIS_RTOS/cmsis_os.c ****   TickType_t ticks;
 2286              		.loc 1 1102 3 view .LVU560
ARM GAS  C:\Users\seblo\AppData\Local\Temp\ccJuvw9h.s 			page 69


1103:Middlewares/Third_Party/FreeRTOS/Source/CMSIS_RTOS/cmsis_os.c ****   osEvent event;
 2287              		.loc 1 1103 3 view .LVU561
1104:Middlewares/Third_Party/FreeRTOS/Source/CMSIS_RTOS/cmsis_os.c ****   
1105:Middlewares/Third_Party/FreeRTOS/Source/CMSIS_RTOS/cmsis_os.c ****   event.def.message_id = queue_id;
 2288              		.loc 1 1105 3 view .LVU562
 2289              		.loc 1 1105 24 is_stmt 0 view .LVU563
 2290 0006 0291     		str	r1, [sp, #8]
1106:Middlewares/Third_Party/FreeRTOS/Source/CMSIS_RTOS/cmsis_os.c ****   event.value.v = 0;
 2291              		.loc 1 1106 3 is_stmt 1 view .LVU564
 2292              		.loc 1 1106 17 is_stmt 0 view .LVU565
 2293 0008 0023     		movs	r3, #0
 2294 000a 0193     		str	r3, [sp, #4]
1107:Middlewares/Third_Party/FreeRTOS/Source/CMSIS_RTOS/cmsis_os.c ****   
1108:Middlewares/Third_Party/FreeRTOS/Source/CMSIS_RTOS/cmsis_os.c ****   if (queue_id == NULL) {
 2295              		.loc 1 1108 3 is_stmt 1 view .LVU566
 2296              		.loc 1 1108 6 is_stmt 0 view .LVU567
 2297 000c E1B1     		cbz	r1, .L167
 2298 000e 0D46     		mov	r5, r1
 2299 0010 1646     		mov	r6, r2
1109:Middlewares/Third_Party/FreeRTOS/Source/CMSIS_RTOS/cmsis_os.c ****     event.status = osErrorParameter;
1110:Middlewares/Third_Party/FreeRTOS/Source/CMSIS_RTOS/cmsis_os.c ****     return event;
1111:Middlewares/Third_Party/FreeRTOS/Source/CMSIS_RTOS/cmsis_os.c ****   }
1112:Middlewares/Third_Party/FreeRTOS/Source/CMSIS_RTOS/cmsis_os.c ****   
1113:Middlewares/Third_Party/FreeRTOS/Source/CMSIS_RTOS/cmsis_os.c ****   taskWoken = pdFALSE;
 2300              		.loc 1 1113 3 is_stmt 1 view .LVU568
 2301              		.loc 1 1113 13 is_stmt 0 view .LVU569
 2302 0012 0023     		movs	r3, #0
 2303 0014 0393     		str	r3, [sp, #12]
1114:Middlewares/Third_Party/FreeRTOS/Source/CMSIS_RTOS/cmsis_os.c ****   
1115:Middlewares/Third_Party/FreeRTOS/Source/CMSIS_RTOS/cmsis_os.c ****   ticks = 0;
 2304              		.loc 1 1115 3 is_stmt 1 view .LVU570
 2305              	.LVL183:
1116:Middlewares/Third_Party/FreeRTOS/Source/CMSIS_RTOS/cmsis_os.c ****   if (millisec == osWaitForever) {
 2306              		.loc 1 1116 3 view .LVU571
1117:Middlewares/Third_Party/FreeRTOS/Source/CMSIS_RTOS/cmsis_os.c ****     ticks = portMAX_DELAY;
1118:Middlewares/Third_Party/FreeRTOS/Source/CMSIS_RTOS/cmsis_os.c ****   }
1119:Middlewares/Third_Party/FreeRTOS/Source/CMSIS_RTOS/cmsis_os.c ****   else if (millisec != 0) {
1120:Middlewares/Third_Party/FreeRTOS/Source/CMSIS_RTOS/cmsis_os.c ****     ticks = millisec / portTICK_PERIOD_MS;
1121:Middlewares/Third_Party/FreeRTOS/Source/CMSIS_RTOS/cmsis_os.c ****     if (ticks == 0) {
1122:Middlewares/Third_Party/FreeRTOS/Source/CMSIS_RTOS/cmsis_os.c ****       ticks = 1;
1123:Middlewares/Third_Party/FreeRTOS/Source/CMSIS_RTOS/cmsis_os.c ****     }
1124:Middlewares/Third_Party/FreeRTOS/Source/CMSIS_RTOS/cmsis_os.c ****   }
1125:Middlewares/Third_Party/FreeRTOS/Source/CMSIS_RTOS/cmsis_os.c ****   
1126:Middlewares/Third_Party/FreeRTOS/Source/CMSIS_RTOS/cmsis_os.c ****   if (inHandlerMode()) {
 2307              		.loc 1 1126 3 view .LVU572
 2308              		.loc 1 1126 7 is_stmt 0 view .LVU573
 2309 0016 FFF7FEFF 		bl	inHandlerMode
 2310              	.LVL184:
 2311              		.loc 1 1126 6 view .LVU574
 2312 001a 00B3     		cbz	r0, .L159
1127:Middlewares/Third_Party/FreeRTOS/Source/CMSIS_RTOS/cmsis_os.c ****     if (xQueueReceiveFromISR(queue_id, &event.value.v, &taskWoken) == pdTRUE) {
 2313              		.loc 1 1127 5 is_stmt 1 view .LVU575
 2314              		.loc 1 1127 9 is_stmt 0 view .LVU576
 2315 001c 03AA     		add	r2, sp, #12
 2316 001e 01A9     		add	r1, sp, #4
 2317 0020 2846     		mov	r0, r5
 2318 0022 FFF7FEFF 		bl	xQueueReceiveFromISR
ARM GAS  C:\Users\seblo\AppData\Local\Temp\ccJuvw9h.s 			page 70


 2319              	.LVL185:
 2320              		.loc 1 1127 8 view .LVU577
 2321 0026 0128     		cmp	r0, #1
 2322 0028 16D0     		beq	.L168
1128:Middlewares/Third_Party/FreeRTOS/Source/CMSIS_RTOS/cmsis_os.c ****       /* We have mail */
1129:Middlewares/Third_Party/FreeRTOS/Source/CMSIS_RTOS/cmsis_os.c ****       event.status = osEventMessage;
1130:Middlewares/Third_Party/FreeRTOS/Source/CMSIS_RTOS/cmsis_os.c ****     }
1131:Middlewares/Third_Party/FreeRTOS/Source/CMSIS_RTOS/cmsis_os.c ****     else {
1132:Middlewares/Third_Party/FreeRTOS/Source/CMSIS_RTOS/cmsis_os.c ****       event.status = osOK;
 2323              		.loc 1 1132 7 is_stmt 1 view .LVU578
 2324              		.loc 1 1132 20 is_stmt 0 view .LVU579
 2325 002a 0023     		movs	r3, #0
 2326 002c 0093     		str	r3, [sp]
 2327              	.L161:
1133:Middlewares/Third_Party/FreeRTOS/Source/CMSIS_RTOS/cmsis_os.c ****     }
1134:Middlewares/Third_Party/FreeRTOS/Source/CMSIS_RTOS/cmsis_os.c ****     portEND_SWITCHING_ISR(taskWoken);
 2328              		.loc 1 1134 5 is_stmt 1 view .LVU580
 2329 002e 039B     		ldr	r3, [sp, #12]
 2330 0030 FBB1     		cbz	r3, .L162
 2331              		.loc 1 1134 5 discriminator 1 view .LVU581
 2332 0032 4FF0E023 		mov	r3, #-536813568
 2333 0036 4FF08052 		mov	r2, #268435456
 2334 003a C3F8042D 		str	r2, [r3, #3332]
 2335              		.loc 1 1134 5 discriminator 1 view .LVU582
 2336              		.syntax unified
 2337              	@ 1134 "Middlewares/Third_Party/FreeRTOS/Source/CMSIS_RTOS/cmsis_os.c" 1
 2338 003e BFF34F8F 		dsb
 2339              	@ 0 "" 2
 2340              		.loc 1 1134 5 discriminator 1 view .LVU583
 2341              	@ 1134 "Middlewares/Third_Party/FreeRTOS/Source/CMSIS_RTOS/cmsis_os.c" 1
 2342 0042 BFF36F8F 		isb
 2343              	@ 0 "" 2
 2344              		.thumb
 2345              		.syntax unified
 2346 0046 14E0     		b	.L162
 2347              	.LVL186:
 2348              	.L167:
1109:Middlewares/Third_Party/FreeRTOS/Source/CMSIS_RTOS/cmsis_os.c ****     return event;
 2349              		.loc 1 1109 5 view .LVU584
1109:Middlewares/Third_Party/FreeRTOS/Source/CMSIS_RTOS/cmsis_os.c ****     return event;
 2350              		.loc 1 1109 18 is_stmt 0 view .LVU585
 2351 0048 8023     		movs	r3, #128
 2352 004a 0093     		str	r3, [sp]
1110:Middlewares/Third_Party/FreeRTOS/Source/CMSIS_RTOS/cmsis_os.c ****   }
 2353              		.loc 1 1110 5 is_stmt 1 view .LVU586
1110:Middlewares/Third_Party/FreeRTOS/Source/CMSIS_RTOS/cmsis_os.c ****   }
 2354              		.loc 1 1110 12 is_stmt 0 view .LVU587
 2355 004c 6B46     		mov	r3, sp
 2356 004e 93E80700 		ldm	r3, {r0, r1, r2}
 2357              	.LVL187:
1110:Middlewares/Third_Party/FreeRTOS/Source/CMSIS_RTOS/cmsis_os.c ****   }
 2358              		.loc 1 1110 12 view .LVU588
 2359 0052 84E80700 		stm	r4, {r0, r1, r2}
 2360 0056 11E0     		b	.L156
 2361              	.LVL188:
 2362              	.L168:
1129:Middlewares/Third_Party/FreeRTOS/Source/CMSIS_RTOS/cmsis_os.c ****     }
ARM GAS  C:\Users\seblo\AppData\Local\Temp\ccJuvw9h.s 			page 71


 2363              		.loc 1 1129 7 is_stmt 1 view .LVU589
1129:Middlewares/Third_Party/FreeRTOS/Source/CMSIS_RTOS/cmsis_os.c ****     }
 2364              		.loc 1 1129 20 is_stmt 0 view .LVU590
 2365 0058 1023     		movs	r3, #16
 2366 005a 0093     		str	r3, [sp]
 2367 005c E7E7     		b	.L161
 2368              	.L159:
1135:Middlewares/Third_Party/FreeRTOS/Source/CMSIS_RTOS/cmsis_os.c ****   }
1136:Middlewares/Third_Party/FreeRTOS/Source/CMSIS_RTOS/cmsis_os.c ****   else {
1137:Middlewares/Third_Party/FreeRTOS/Source/CMSIS_RTOS/cmsis_os.c ****     if (xQueueReceive(queue_id, &event.value.v, ticks) == pdTRUE) {
 2369              		.loc 1 1137 5 is_stmt 1 view .LVU591
 2370              		.loc 1 1137 9 is_stmt 0 view .LVU592
 2371 005e 3246     		mov	r2, r6
 2372 0060 01A9     		add	r1, sp, #4
 2373 0062 2846     		mov	r0, r5
 2374 0064 FFF7FEFF 		bl	xQueueReceive
 2375              	.LVL189:
 2376              		.loc 1 1137 8 view .LVU593
 2377 0068 0128     		cmp	r0, #1
 2378 006a 0AD0     		beq	.L169
1138:Middlewares/Third_Party/FreeRTOS/Source/CMSIS_RTOS/cmsis_os.c ****       /* We have mail */
1139:Middlewares/Third_Party/FreeRTOS/Source/CMSIS_RTOS/cmsis_os.c ****       event.status = osEventMessage;
1140:Middlewares/Third_Party/FreeRTOS/Source/CMSIS_RTOS/cmsis_os.c ****     }
1141:Middlewares/Third_Party/FreeRTOS/Source/CMSIS_RTOS/cmsis_os.c ****     else {
1142:Middlewares/Third_Party/FreeRTOS/Source/CMSIS_RTOS/cmsis_os.c ****       event.status = (ticks == 0) ? osOK : osEventTimeout;
 2379              		.loc 1 1142 7 is_stmt 1 view .LVU594
 2380              		.loc 1 1142 42 is_stmt 0 view .LVU595
 2381 006c 06B1     		cbz	r6, .L164
 2382 006e 4026     		movs	r6, #64
 2383              	.LVL190:
 2384              	.L164:
 2385              		.loc 1 1142 20 discriminator 4 view .LVU596
 2386 0070 0096     		str	r6, [sp]
 2387              	.L162:
1143:Middlewares/Third_Party/FreeRTOS/Source/CMSIS_RTOS/cmsis_os.c ****     }
1144:Middlewares/Third_Party/FreeRTOS/Source/CMSIS_RTOS/cmsis_os.c ****   }
1145:Middlewares/Third_Party/FreeRTOS/Source/CMSIS_RTOS/cmsis_os.c ****   
1146:Middlewares/Third_Party/FreeRTOS/Source/CMSIS_RTOS/cmsis_os.c ****   return event;
 2388              		.loc 1 1146 3 is_stmt 1 view .LVU597
 2389              		.loc 1 1146 10 is_stmt 0 view .LVU598
 2390 0072 6B46     		mov	r3, sp
 2391 0074 93E80700 		ldm	r3, {r0, r1, r2}
 2392 0078 84E80700 		stm	r4, {r0, r1, r2}
 2393              	.LVL191:
 2394              	.L156:
1147:Middlewares/Third_Party/FreeRTOS/Source/CMSIS_RTOS/cmsis_os.c **** }
 2395              		.loc 1 1147 1 view .LVU599
 2396 007c 2046     		mov	r0, r4
 2397 007e 04B0     		add	sp, sp, #16
 2398              	.LCFI55:
 2399              		.cfi_remember_state
 2400              		.cfi_def_cfa_offset 16
 2401              		@ sp needed
 2402 0080 70BD     		pop	{r4, r5, r6, pc}
 2403              	.LVL192:
 2404              	.L169:
 2405              	.LCFI56:
ARM GAS  C:\Users\seblo\AppData\Local\Temp\ccJuvw9h.s 			page 72


 2406              		.cfi_restore_state
1139:Middlewares/Third_Party/FreeRTOS/Source/CMSIS_RTOS/cmsis_os.c ****     }
 2407              		.loc 1 1139 7 is_stmt 1 view .LVU600
1139:Middlewares/Third_Party/FreeRTOS/Source/CMSIS_RTOS/cmsis_os.c ****     }
 2408              		.loc 1 1139 20 is_stmt 0 view .LVU601
 2409 0082 1023     		movs	r3, #16
 2410 0084 0093     		str	r3, [sp]
 2411 0086 F4E7     		b	.L162
 2412              		.cfi_endproc
 2413              	.LFE140:
 2415              		.section	.text.osMailCreate,"ax",%progbits
 2416              		.align	1
 2417              		.global	osMailCreate
 2418              		.syntax unified
 2419              		.thumb
 2420              		.thumb_func
 2421              		.fpu fpv5-sp-d16
 2423              	osMailCreate:
 2424              	.LVL193:
 2425              	.LFB141:
1148:Middlewares/Third_Party/FreeRTOS/Source/CMSIS_RTOS/cmsis_os.c **** 
1149:Middlewares/Third_Party/FreeRTOS/Source/CMSIS_RTOS/cmsis_os.c **** #endif     /* Use Message Queues */
1150:Middlewares/Third_Party/FreeRTOS/Source/CMSIS_RTOS/cmsis_os.c **** 
1151:Middlewares/Third_Party/FreeRTOS/Source/CMSIS_RTOS/cmsis_os.c **** /********************   Mail Queue Management Functions  ***********************/
1152:Middlewares/Third_Party/FreeRTOS/Source/CMSIS_RTOS/cmsis_os.c **** #if (defined (osFeature_MailQ)  &&  (osFeature_MailQ != 0))  /* Use Mail Queues */
1153:Middlewares/Third_Party/FreeRTOS/Source/CMSIS_RTOS/cmsis_os.c **** 
1154:Middlewares/Third_Party/FreeRTOS/Source/CMSIS_RTOS/cmsis_os.c **** 
1155:Middlewares/Third_Party/FreeRTOS/Source/CMSIS_RTOS/cmsis_os.c **** typedef struct os_mailQ_cb {
1156:Middlewares/Third_Party/FreeRTOS/Source/CMSIS_RTOS/cmsis_os.c ****   const osMailQDef_t *queue_def;
1157:Middlewares/Third_Party/FreeRTOS/Source/CMSIS_RTOS/cmsis_os.c ****   QueueHandle_t handle;
1158:Middlewares/Third_Party/FreeRTOS/Source/CMSIS_RTOS/cmsis_os.c ****   osPoolId pool;
1159:Middlewares/Third_Party/FreeRTOS/Source/CMSIS_RTOS/cmsis_os.c **** } os_mailQ_cb_t;
1160:Middlewares/Third_Party/FreeRTOS/Source/CMSIS_RTOS/cmsis_os.c **** 
1161:Middlewares/Third_Party/FreeRTOS/Source/CMSIS_RTOS/cmsis_os.c **** /**
1162:Middlewares/Third_Party/FreeRTOS/Source/CMSIS_RTOS/cmsis_os.c **** * @brief Create and Initialize mail queue
1163:Middlewares/Third_Party/FreeRTOS/Source/CMSIS_RTOS/cmsis_os.c **** * @param  queue_def     reference to the mail queue definition obtain with \ref osMailQ
1164:Middlewares/Third_Party/FreeRTOS/Source/CMSIS_RTOS/cmsis_os.c **** * @param   thread_id     thread ID (obtained by \ref osThreadCreate or \ref osThreadGetId) or NULL.
1165:Middlewares/Third_Party/FreeRTOS/Source/CMSIS_RTOS/cmsis_os.c **** * @retval mail queue ID for reference by other functions or NULL in case of error.
1166:Middlewares/Third_Party/FreeRTOS/Source/CMSIS_RTOS/cmsis_os.c **** * @note   MUST REMAIN UNCHANGED: \b osMailCreate shall be consistent in every CMSIS-RTOS.
1167:Middlewares/Third_Party/FreeRTOS/Source/CMSIS_RTOS/cmsis_os.c **** */
1168:Middlewares/Third_Party/FreeRTOS/Source/CMSIS_RTOS/cmsis_os.c **** osMailQId osMailCreate (const osMailQDef_t *queue_def, osThreadId thread_id)
1169:Middlewares/Third_Party/FreeRTOS/Source/CMSIS_RTOS/cmsis_os.c **** {
 2426              		.loc 1 1169 1 is_stmt 1 view -0
 2427              		.cfi_startproc
 2428              		@ args = 0, pretend = 0, frame = 16
 2429              		@ frame_needed = 0, uses_anonymous_args = 0
 2430              		.loc 1 1169 1 is_stmt 0 view .LVU603
 2431 0000 70B5     		push	{r4, r5, r6, lr}
 2432              	.LCFI57:
 2433              		.cfi_def_cfa_offset 16
 2434              		.cfi_offset 4, -16
 2435              		.cfi_offset 5, -12
 2436              		.cfi_offset 6, -8
 2437              		.cfi_offset 14, -4
 2438 0002 84B0     		sub	sp, sp, #16
 2439              	.LCFI58:
 2440              		.cfi_def_cfa_offset 32
ARM GAS  C:\Users\seblo\AppData\Local\Temp\ccJuvw9h.s 			page 73


 2441 0004 0446     		mov	r4, r0
1170:Middlewares/Third_Party/FreeRTOS/Source/CMSIS_RTOS/cmsis_os.c **** #if (configSUPPORT_DYNAMIC_ALLOCATION == 1)
1171:Middlewares/Third_Party/FreeRTOS/Source/CMSIS_RTOS/cmsis_os.c ****   (void) thread_id;
 2442              		.loc 1 1171 3 is_stmt 1 view .LVU604
1172:Middlewares/Third_Party/FreeRTOS/Source/CMSIS_RTOS/cmsis_os.c ****   
1173:Middlewares/Third_Party/FreeRTOS/Source/CMSIS_RTOS/cmsis_os.c ****   osPoolDef_t pool_def = {queue_def->queue_sz, queue_def->item_sz, NULL};
 2443              		.loc 1 1173 3 view .LVU605
 2444              		.loc 1 1173 36 is_stmt 0 view .LVU606
 2445 0006 0368     		ldr	r3, [r0]
 2446              		.loc 1 1173 15 view .LVU607
 2447 0008 0193     		str	r3, [sp, #4]
 2448              		.loc 1 1173 57 view .LVU608
 2449 000a 4368     		ldr	r3, [r0, #4]
 2450              		.loc 1 1173 15 view .LVU609
 2451 000c 0293     		str	r3, [sp, #8]
 2452 000e 0023     		movs	r3, #0
 2453 0010 0393     		str	r3, [sp, #12]
1174:Middlewares/Third_Party/FreeRTOS/Source/CMSIS_RTOS/cmsis_os.c ****   
1175:Middlewares/Third_Party/FreeRTOS/Source/CMSIS_RTOS/cmsis_os.c ****   /* Create a mail queue control block */
1176:Middlewares/Third_Party/FreeRTOS/Source/CMSIS_RTOS/cmsis_os.c **** 
1177:Middlewares/Third_Party/FreeRTOS/Source/CMSIS_RTOS/cmsis_os.c ****   *(queue_def->cb) = pvPortMalloc(sizeof(struct os_mailQ_cb));
 2454              		.loc 1 1177 3 is_stmt 1 view .LVU610
 2455              		.loc 1 1177 14 is_stmt 0 view .LVU611
 2456 0012 8568     		ldr	r5, [r0, #8]
 2457              		.loc 1 1177 22 view .LVU612
 2458 0014 0C20     		movs	r0, #12
 2459              	.LVL194:
 2460              		.loc 1 1177 22 view .LVU613
 2461 0016 FFF7FEFF 		bl	pvPortMalloc
 2462              	.LVL195:
 2463              		.loc 1 1177 20 view .LVU614
 2464 001a 2860     		str	r0, [r5]
1178:Middlewares/Third_Party/FreeRTOS/Source/CMSIS_RTOS/cmsis_os.c **** 
1179:Middlewares/Third_Party/FreeRTOS/Source/CMSIS_RTOS/cmsis_os.c ****   if (*(queue_def->cb) == NULL) {
 2465              		.loc 1 1179 3 is_stmt 1 view .LVU615
 2466              		.loc 1 1179 18 is_stmt 0 view .LVU616
 2467 001c A368     		ldr	r3, [r4, #8]
 2468              		.loc 1 1179 7 view .LVU617
 2469 001e 1D68     		ldr	r5, [r3]
 2470              		.loc 1 1179 6 view .LVU618
 2471 0020 A5B1     		cbz	r5, .L170
1180:Middlewares/Third_Party/FreeRTOS/Source/CMSIS_RTOS/cmsis_os.c ****     return NULL;
1181:Middlewares/Third_Party/FreeRTOS/Source/CMSIS_RTOS/cmsis_os.c ****   }
1182:Middlewares/Third_Party/FreeRTOS/Source/CMSIS_RTOS/cmsis_os.c ****   (*(queue_def->cb))->queue_def = queue_def;
 2472              		.loc 1 1182 3 is_stmt 1 view .LVU619
 2473              		.loc 1 1182 33 is_stmt 0 view .LVU620
 2474 0022 2C60     		str	r4, [r5]
1183:Middlewares/Third_Party/FreeRTOS/Source/CMSIS_RTOS/cmsis_os.c ****   
1184:Middlewares/Third_Party/FreeRTOS/Source/CMSIS_RTOS/cmsis_os.c ****   /* Create a queue in FreeRTOS */
1185:Middlewares/Third_Party/FreeRTOS/Source/CMSIS_RTOS/cmsis_os.c ****   (*(queue_def->cb))->handle = xQueueCreate(queue_def->queue_sz, sizeof(void *));
 2475              		.loc 1 1185 3 is_stmt 1 view .LVU621
 2476              		.loc 1 1185 15 is_stmt 0 view .LVU622
 2477 0024 A368     		ldr	r3, [r4, #8]
 2478              		.loc 1 1185 4 view .LVU623
 2479 0026 1D68     		ldr	r5, [r3]
 2480              		.loc 1 1185 32 view .LVU624
 2481 0028 0022     		movs	r2, #0
ARM GAS  C:\Users\seblo\AppData\Local\Temp\ccJuvw9h.s 			page 74


 2482 002a 0421     		movs	r1, #4
 2483 002c 2068     		ldr	r0, [r4]
 2484 002e FFF7FEFF 		bl	xQueueGenericCreate
 2485              	.LVL196:
 2486              		.loc 1 1185 30 view .LVU625
 2487 0032 6860     		str	r0, [r5, #4]
1186:Middlewares/Third_Party/FreeRTOS/Source/CMSIS_RTOS/cmsis_os.c **** 
1187:Middlewares/Third_Party/FreeRTOS/Source/CMSIS_RTOS/cmsis_os.c **** 
1188:Middlewares/Third_Party/FreeRTOS/Source/CMSIS_RTOS/cmsis_os.c ****   if ((*(queue_def->cb))->handle == NULL) {
 2488              		.loc 1 1188 3 is_stmt 1 view .LVU626
 2489              		.loc 1 1188 19 is_stmt 0 view .LVU627
 2490 0034 A368     		ldr	r3, [r4, #8]
 2491              		.loc 1 1188 8 view .LVU628
 2492 0036 1E68     		ldr	r6, [r3]
 2493              		.loc 1 1188 25 view .LVU629
 2494 0038 7568     		ldr	r5, [r6, #4]
 2495              		.loc 1 1188 6 view .LVU630
 2496 003a 55B1     		cbz	r5, .L174
1189:Middlewares/Third_Party/FreeRTOS/Source/CMSIS_RTOS/cmsis_os.c ****     vPortFree(*(queue_def->cb));
1190:Middlewares/Third_Party/FreeRTOS/Source/CMSIS_RTOS/cmsis_os.c ****     return NULL;
1191:Middlewares/Third_Party/FreeRTOS/Source/CMSIS_RTOS/cmsis_os.c ****   }
1192:Middlewares/Third_Party/FreeRTOS/Source/CMSIS_RTOS/cmsis_os.c ****   
1193:Middlewares/Third_Party/FreeRTOS/Source/CMSIS_RTOS/cmsis_os.c ****   /* Create a mail pool */
1194:Middlewares/Third_Party/FreeRTOS/Source/CMSIS_RTOS/cmsis_os.c ****   (*(queue_def->cb))->pool = osPoolCreate(&pool_def);
 2497              		.loc 1 1194 3 is_stmt 1 view .LVU631
 2498              		.loc 1 1194 30 is_stmt 0 view .LVU632
 2499 003c 01A8     		add	r0, sp, #4
 2500 003e FFF7FEFF 		bl	osPoolCreate
 2501              	.LVL197:
 2502              		.loc 1 1194 28 view .LVU633
 2503 0042 B060     		str	r0, [r6, #8]
1195:Middlewares/Third_Party/FreeRTOS/Source/CMSIS_RTOS/cmsis_os.c ****   if ((*(queue_def->cb))->pool == NULL) {
 2504              		.loc 1 1195 3 is_stmt 1 view .LVU634
 2505              		.loc 1 1195 19 is_stmt 0 view .LVU635
 2506 0044 A368     		ldr	r3, [r4, #8]
 2507              		.loc 1 1195 8 view .LVU636
 2508 0046 1D68     		ldr	r5, [r3]
 2509              		.loc 1 1195 25 view .LVU637
 2510 0048 AC68     		ldr	r4, [r5, #8]
 2511              	.LVL198:
 2512              		.loc 1 1195 6 view .LVU638
 2513 004a 34B1     		cbz	r4, .L175
 2514              	.L170:
1196:Middlewares/Third_Party/FreeRTOS/Source/CMSIS_RTOS/cmsis_os.c ****     //TODO: Delete queue. How to do it in FreeRTOS?
1197:Middlewares/Third_Party/FreeRTOS/Source/CMSIS_RTOS/cmsis_os.c ****     vPortFree(*(queue_def->cb));
1198:Middlewares/Third_Party/FreeRTOS/Source/CMSIS_RTOS/cmsis_os.c ****     return NULL;
1199:Middlewares/Third_Party/FreeRTOS/Source/CMSIS_RTOS/cmsis_os.c ****   }
1200:Middlewares/Third_Party/FreeRTOS/Source/CMSIS_RTOS/cmsis_os.c ****   
1201:Middlewares/Third_Party/FreeRTOS/Source/CMSIS_RTOS/cmsis_os.c ****   return *(queue_def->cb);
1202:Middlewares/Third_Party/FreeRTOS/Source/CMSIS_RTOS/cmsis_os.c **** #else
1203:Middlewares/Third_Party/FreeRTOS/Source/CMSIS_RTOS/cmsis_os.c ****   return NULL;
1204:Middlewares/Third_Party/FreeRTOS/Source/CMSIS_RTOS/cmsis_os.c **** #endif
1205:Middlewares/Third_Party/FreeRTOS/Source/CMSIS_RTOS/cmsis_os.c **** }
 2515              		.loc 1 1205 1 view .LVU639
 2516 004c 2846     		mov	r0, r5
 2517 004e 04B0     		add	sp, sp, #16
 2518              	.LCFI59:
ARM GAS  C:\Users\seblo\AppData\Local\Temp\ccJuvw9h.s 			page 75


 2519              		.cfi_remember_state
 2520              		.cfi_def_cfa_offset 16
 2521              		@ sp needed
 2522 0050 70BD     		pop	{r4, r5, r6, pc}
 2523              	.LVL199:
 2524              	.L174:
 2525              	.LCFI60:
 2526              		.cfi_restore_state
1189:Middlewares/Third_Party/FreeRTOS/Source/CMSIS_RTOS/cmsis_os.c ****     return NULL;
 2527              		.loc 1 1189 5 is_stmt 1 view .LVU640
 2528 0052 3046     		mov	r0, r6
 2529 0054 FFF7FEFF 		bl	vPortFree
 2530              	.LVL200:
1190:Middlewares/Third_Party/FreeRTOS/Source/CMSIS_RTOS/cmsis_os.c ****   }
 2531              		.loc 1 1190 5 view .LVU641
1190:Middlewares/Third_Party/FreeRTOS/Source/CMSIS_RTOS/cmsis_os.c ****   }
 2532              		.loc 1 1190 12 is_stmt 0 view .LVU642
 2533 0058 F8E7     		b	.L170
 2534              	.LVL201:
 2535              	.L175:
1197:Middlewares/Third_Party/FreeRTOS/Source/CMSIS_RTOS/cmsis_os.c ****     return NULL;
 2536              		.loc 1 1197 5 is_stmt 1 view .LVU643
 2537 005a 2846     		mov	r0, r5
 2538 005c FFF7FEFF 		bl	vPortFree
 2539              	.LVL202:
1198:Middlewares/Third_Party/FreeRTOS/Source/CMSIS_RTOS/cmsis_os.c ****   }
 2540              		.loc 1 1198 5 view .LVU644
1198:Middlewares/Third_Party/FreeRTOS/Source/CMSIS_RTOS/cmsis_os.c ****   }
 2541              		.loc 1 1198 12 is_stmt 0 view .LVU645
 2542 0060 2546     		mov	r5, r4
 2543 0062 F3E7     		b	.L170
 2544              		.cfi_endproc
 2545              	.LFE141:
 2547              		.section	.text.osMailAlloc,"ax",%progbits
 2548              		.align	1
 2549              		.global	osMailAlloc
 2550              		.syntax unified
 2551              		.thumb
 2552              		.thumb_func
 2553              		.fpu fpv5-sp-d16
 2555              	osMailAlloc:
 2556              	.LVL203:
 2557              	.LFB142:
1206:Middlewares/Third_Party/FreeRTOS/Source/CMSIS_RTOS/cmsis_os.c **** 
1207:Middlewares/Third_Party/FreeRTOS/Source/CMSIS_RTOS/cmsis_os.c **** /**
1208:Middlewares/Third_Party/FreeRTOS/Source/CMSIS_RTOS/cmsis_os.c **** * @brief Allocate a memory block from a mail
1209:Middlewares/Third_Party/FreeRTOS/Source/CMSIS_RTOS/cmsis_os.c **** * @param  queue_id      mail queue ID obtained with \ref osMailCreate.
1210:Middlewares/Third_Party/FreeRTOS/Source/CMSIS_RTOS/cmsis_os.c **** * @param  millisec      timeout value or 0 in case of no time-out.
1211:Middlewares/Third_Party/FreeRTOS/Source/CMSIS_RTOS/cmsis_os.c **** * @retval pointer to memory block that can be filled with mail or NULL in case error.
1212:Middlewares/Third_Party/FreeRTOS/Source/CMSIS_RTOS/cmsis_os.c **** * @note   MUST REMAIN UNCHANGED: \b osMailAlloc shall be consistent in every CMSIS-RTOS.
1213:Middlewares/Third_Party/FreeRTOS/Source/CMSIS_RTOS/cmsis_os.c **** */
1214:Middlewares/Third_Party/FreeRTOS/Source/CMSIS_RTOS/cmsis_os.c **** void *osMailAlloc (osMailQId queue_id, uint32_t millisec)
1215:Middlewares/Third_Party/FreeRTOS/Source/CMSIS_RTOS/cmsis_os.c **** {
 2558              		.loc 1 1215 1 is_stmt 1 view -0
 2559              		.cfi_startproc
 2560              		@ args = 0, pretend = 0, frame = 0
 2561              		@ frame_needed = 0, uses_anonymous_args = 0
ARM GAS  C:\Users\seblo\AppData\Local\Temp\ccJuvw9h.s 			page 76


 2562              		.loc 1 1215 1 is_stmt 0 view .LVU647
 2563 0000 08B5     		push	{r3, lr}
 2564              	.LCFI61:
 2565              		.cfi_def_cfa_offset 8
 2566              		.cfi_offset 3, -8
 2567              		.cfi_offset 14, -4
1216:Middlewares/Third_Party/FreeRTOS/Source/CMSIS_RTOS/cmsis_os.c ****   (void) millisec;
 2568              		.loc 1 1216 3 is_stmt 1 view .LVU648
1217:Middlewares/Third_Party/FreeRTOS/Source/CMSIS_RTOS/cmsis_os.c ****   void *p;
 2569              		.loc 1 1217 3 view .LVU649
1218:Middlewares/Third_Party/FreeRTOS/Source/CMSIS_RTOS/cmsis_os.c ****   
1219:Middlewares/Third_Party/FreeRTOS/Source/CMSIS_RTOS/cmsis_os.c ****   
1220:Middlewares/Third_Party/FreeRTOS/Source/CMSIS_RTOS/cmsis_os.c ****   if (queue_id == NULL) {
 2570              		.loc 1 1220 3 view .LVU650
 2571              		.loc 1 1220 6 is_stmt 0 view .LVU651
 2572 0002 10B1     		cbz	r0, .L176
1221:Middlewares/Third_Party/FreeRTOS/Source/CMSIS_RTOS/cmsis_os.c ****     return NULL;
1222:Middlewares/Third_Party/FreeRTOS/Source/CMSIS_RTOS/cmsis_os.c ****   }
1223:Middlewares/Third_Party/FreeRTOS/Source/CMSIS_RTOS/cmsis_os.c ****   
1224:Middlewares/Third_Party/FreeRTOS/Source/CMSIS_RTOS/cmsis_os.c ****   p = osPoolAlloc(queue_id->pool);
 2573              		.loc 1 1224 3 is_stmt 1 view .LVU652
 2574              		.loc 1 1224 7 is_stmt 0 view .LVU653
 2575 0004 8068     		ldr	r0, [r0, #8]
 2576              	.LVL204:
 2577              		.loc 1 1224 7 view .LVU654
 2578 0006 FFF7FEFF 		bl	osPoolAlloc
 2579              	.LVL205:
1225:Middlewares/Third_Party/FreeRTOS/Source/CMSIS_RTOS/cmsis_os.c ****   
1226:Middlewares/Third_Party/FreeRTOS/Source/CMSIS_RTOS/cmsis_os.c ****   return p;
 2580              		.loc 1 1226 3 is_stmt 1 view .LVU655
 2581              	.L176:
1227:Middlewares/Third_Party/FreeRTOS/Source/CMSIS_RTOS/cmsis_os.c **** }
 2582              		.loc 1 1227 1 is_stmt 0 view .LVU656
 2583 000a 08BD     		pop	{r3, pc}
 2584              		.cfi_endproc
 2585              	.LFE142:
 2587              		.section	.text.osMailCAlloc,"ax",%progbits
 2588              		.align	1
 2589              		.global	osMailCAlloc
 2590              		.syntax unified
 2591              		.thumb
 2592              		.thumb_func
 2593              		.fpu fpv5-sp-d16
 2595              	osMailCAlloc:
 2596              	.LVL206:
 2597              	.LFB143:
1228:Middlewares/Third_Party/FreeRTOS/Source/CMSIS_RTOS/cmsis_os.c **** 
1229:Middlewares/Third_Party/FreeRTOS/Source/CMSIS_RTOS/cmsis_os.c **** /**
1230:Middlewares/Third_Party/FreeRTOS/Source/CMSIS_RTOS/cmsis_os.c **** * @brief Allocate a memory block from a mail and set memory block to zero
1231:Middlewares/Third_Party/FreeRTOS/Source/CMSIS_RTOS/cmsis_os.c **** * @param  queue_id      mail queue ID obtained with \ref osMailCreate.
1232:Middlewares/Third_Party/FreeRTOS/Source/CMSIS_RTOS/cmsis_os.c **** * @param  millisec      timeout value or 0 in case of no time-out.
1233:Middlewares/Third_Party/FreeRTOS/Source/CMSIS_RTOS/cmsis_os.c **** * @retval pointer to memory block that can be filled with mail or NULL in case error.
1234:Middlewares/Third_Party/FreeRTOS/Source/CMSIS_RTOS/cmsis_os.c **** * @note   MUST REMAIN UNCHANGED: \b osMailCAlloc shall be consistent in every CMSIS-RTOS.
1235:Middlewares/Third_Party/FreeRTOS/Source/CMSIS_RTOS/cmsis_os.c **** */
1236:Middlewares/Third_Party/FreeRTOS/Source/CMSIS_RTOS/cmsis_os.c **** void *osMailCAlloc (osMailQId queue_id, uint32_t millisec)
1237:Middlewares/Third_Party/FreeRTOS/Source/CMSIS_RTOS/cmsis_os.c **** {
 2598              		.loc 1 1237 1 is_stmt 1 view -0
ARM GAS  C:\Users\seblo\AppData\Local\Temp\ccJuvw9h.s 			page 77


 2599              		.cfi_startproc
 2600              		@ args = 0, pretend = 0, frame = 0
 2601              		@ frame_needed = 0, uses_anonymous_args = 0
 2602              		.loc 1 1237 1 is_stmt 0 view .LVU658
 2603 0000 10B5     		push	{r4, lr}
 2604              	.LCFI62:
 2605              		.cfi_def_cfa_offset 8
 2606              		.cfi_offset 4, -8
 2607              		.cfi_offset 14, -4
 2608 0002 0446     		mov	r4, r0
1238:Middlewares/Third_Party/FreeRTOS/Source/CMSIS_RTOS/cmsis_os.c ****   uint32_t i;
 2609              		.loc 1 1238 3 is_stmt 1 view .LVU659
1239:Middlewares/Third_Party/FreeRTOS/Source/CMSIS_RTOS/cmsis_os.c ****   void *p = osMailAlloc(queue_id, millisec);
 2610              		.loc 1 1239 3 view .LVU660
 2611              		.loc 1 1239 13 is_stmt 0 view .LVU661
 2612 0004 FFF7FEFF 		bl	osMailAlloc
 2613              	.LVL207:
1240:Middlewares/Third_Party/FreeRTOS/Source/CMSIS_RTOS/cmsis_os.c ****   
1241:Middlewares/Third_Party/FreeRTOS/Source/CMSIS_RTOS/cmsis_os.c ****   if (p) {
 2614              		.loc 1 1241 3 is_stmt 1 view .LVU662
 2615              		.loc 1 1241 6 is_stmt 0 view .LVU663
 2616 0008 0146     		mov	r1, r0
 2617 000a 40B1     		cbz	r0, .L180
1242:Middlewares/Third_Party/FreeRTOS/Source/CMSIS_RTOS/cmsis_os.c ****     for (i = 0; i < queue_id->queue_def->item_sz; i++) {
 2618              		.loc 1 1242 12 view .LVU664
 2619 000c 0023     		movs	r3, #0
 2620 000e 02E0     		b	.L181
 2621              	.LVL208:
 2622              	.L183:
1243:Middlewares/Third_Party/FreeRTOS/Source/CMSIS_RTOS/cmsis_os.c ****       ((uint8_t *)p)[i] = 0;
 2623              		.loc 1 1243 7 is_stmt 1 discriminator 3 view .LVU665
 2624              		.loc 1 1243 25 is_stmt 0 discriminator 3 view .LVU666
 2625 0010 0022     		movs	r2, #0
 2626 0012 CA54     		strb	r2, [r1, r3]
1242:Middlewares/Third_Party/FreeRTOS/Source/CMSIS_RTOS/cmsis_os.c ****     for (i = 0; i < queue_id->queue_def->item_sz; i++) {
 2627              		.loc 1 1242 51 is_stmt 1 discriminator 3 view .LVU667
1242:Middlewares/Third_Party/FreeRTOS/Source/CMSIS_RTOS/cmsis_os.c ****     for (i = 0; i < queue_id->queue_def->item_sz; i++) {
 2628              		.loc 1 1242 52 is_stmt 0 discriminator 3 view .LVU668
 2629 0014 0133     		adds	r3, r3, #1
 2630              	.LVL209:
 2631              	.L181:
1242:Middlewares/Third_Party/FreeRTOS/Source/CMSIS_RTOS/cmsis_os.c ****     for (i = 0; i < queue_id->queue_def->item_sz; i++) {
 2632              		.loc 1 1242 17 is_stmt 1 discriminator 1 view .LVU669
1242:Middlewares/Third_Party/FreeRTOS/Source/CMSIS_RTOS/cmsis_os.c ****     for (i = 0; i < queue_id->queue_def->item_sz; i++) {
 2633              		.loc 1 1242 29 is_stmt 0 discriminator 1 view .LVU670
 2634 0016 2268     		ldr	r2, [r4]
1242:Middlewares/Third_Party/FreeRTOS/Source/CMSIS_RTOS/cmsis_os.c ****     for (i = 0; i < queue_id->queue_def->item_sz; i++) {
 2635              		.loc 1 1242 40 discriminator 1 view .LVU671
 2636 0018 5268     		ldr	r2, [r2, #4]
1242:Middlewares/Third_Party/FreeRTOS/Source/CMSIS_RTOS/cmsis_os.c ****     for (i = 0; i < queue_id->queue_def->item_sz; i++) {
 2637              		.loc 1 1242 5 discriminator 1 view .LVU672
 2638 001a 9A42     		cmp	r2, r3
 2639 001c F8D8     		bhi	.L183
 2640              	.LVL210:
 2641              	.L180:
1244:Middlewares/Third_Party/FreeRTOS/Source/CMSIS_RTOS/cmsis_os.c ****     }
1245:Middlewares/Third_Party/FreeRTOS/Source/CMSIS_RTOS/cmsis_os.c ****   }
ARM GAS  C:\Users\seblo\AppData\Local\Temp\ccJuvw9h.s 			page 78


1246:Middlewares/Third_Party/FreeRTOS/Source/CMSIS_RTOS/cmsis_os.c ****   
1247:Middlewares/Third_Party/FreeRTOS/Source/CMSIS_RTOS/cmsis_os.c ****   return p;
1248:Middlewares/Third_Party/FreeRTOS/Source/CMSIS_RTOS/cmsis_os.c **** }
 2642              		.loc 1 1248 1 view .LVU673
 2643 001e 0846     		mov	r0, r1
 2644              	.LVL211:
 2645              		.loc 1 1248 1 view .LVU674
 2646 0020 10BD     		pop	{r4, pc}
 2647              		.loc 1 1248 1 view .LVU675
 2648              		.cfi_endproc
 2649              	.LFE143:
 2651              		.section	.text.osMailPut,"ax",%progbits
 2652              		.align	1
 2653              		.global	osMailPut
 2654              		.syntax unified
 2655              		.thumb
 2656              		.thumb_func
 2657              		.fpu fpv5-sp-d16
 2659              	osMailPut:
 2660              	.LVL212:
 2661              	.LFB144:
1249:Middlewares/Third_Party/FreeRTOS/Source/CMSIS_RTOS/cmsis_os.c **** 
1250:Middlewares/Third_Party/FreeRTOS/Source/CMSIS_RTOS/cmsis_os.c **** /**
1251:Middlewares/Third_Party/FreeRTOS/Source/CMSIS_RTOS/cmsis_os.c **** * @brief Put a mail to a queue
1252:Middlewares/Third_Party/FreeRTOS/Source/CMSIS_RTOS/cmsis_os.c **** * @param  queue_id      mail queue ID obtained with \ref osMailCreate.
1253:Middlewares/Third_Party/FreeRTOS/Source/CMSIS_RTOS/cmsis_os.c **** * @param  mail          memory block previously allocated with \ref osMailAlloc or \ref osMailCAllo
1254:Middlewares/Third_Party/FreeRTOS/Source/CMSIS_RTOS/cmsis_os.c **** * @retval status code that indicates the execution status of the function.
1255:Middlewares/Third_Party/FreeRTOS/Source/CMSIS_RTOS/cmsis_os.c **** * @note   MUST REMAIN UNCHANGED: \b osMailPut shall be consistent in every CMSIS-RTOS.
1256:Middlewares/Third_Party/FreeRTOS/Source/CMSIS_RTOS/cmsis_os.c **** */
1257:Middlewares/Third_Party/FreeRTOS/Source/CMSIS_RTOS/cmsis_os.c **** osStatus osMailPut (osMailQId queue_id, void *mail)
1258:Middlewares/Third_Party/FreeRTOS/Source/CMSIS_RTOS/cmsis_os.c **** {
 2662              		.loc 1 1258 1 is_stmt 1 view -0
 2663              		.cfi_startproc
 2664              		@ args = 0, pretend = 0, frame = 16
 2665              		@ frame_needed = 0, uses_anonymous_args = 0
 2666              		.loc 1 1258 1 is_stmt 0 view .LVU677
 2667 0000 10B5     		push	{r4, lr}
 2668              	.LCFI63:
 2669              		.cfi_def_cfa_offset 8
 2670              		.cfi_offset 4, -8
 2671              		.cfi_offset 14, -4
 2672 0002 84B0     		sub	sp, sp, #16
 2673              	.LCFI64:
 2674              		.cfi_def_cfa_offset 24
 2675 0004 0191     		str	r1, [sp, #4]
1259:Middlewares/Third_Party/FreeRTOS/Source/CMSIS_RTOS/cmsis_os.c ****   portBASE_TYPE taskWoken;
 2676              		.loc 1 1259 3 is_stmt 1 view .LVU678
1260:Middlewares/Third_Party/FreeRTOS/Source/CMSIS_RTOS/cmsis_os.c ****   
1261:Middlewares/Third_Party/FreeRTOS/Source/CMSIS_RTOS/cmsis_os.c ****   
1262:Middlewares/Third_Party/FreeRTOS/Source/CMSIS_RTOS/cmsis_os.c ****   if (queue_id == NULL) {
 2677              		.loc 1 1262 3 view .LVU679
 2678              		.loc 1 1262 6 is_stmt 0 view .LVU680
 2679 0006 30B3     		cbz	r0, .L189
 2680 0008 0446     		mov	r4, r0
1263:Middlewares/Third_Party/FreeRTOS/Source/CMSIS_RTOS/cmsis_os.c ****     return osErrorParameter;
1264:Middlewares/Third_Party/FreeRTOS/Source/CMSIS_RTOS/cmsis_os.c ****   }
1265:Middlewares/Third_Party/FreeRTOS/Source/CMSIS_RTOS/cmsis_os.c ****   
ARM GAS  C:\Users\seblo\AppData\Local\Temp\ccJuvw9h.s 			page 79


1266:Middlewares/Third_Party/FreeRTOS/Source/CMSIS_RTOS/cmsis_os.c ****   taskWoken = pdFALSE;
 2681              		.loc 1 1266 3 is_stmt 1 view .LVU681
 2682              		.loc 1 1266 13 is_stmt 0 view .LVU682
 2683 000a 0023     		movs	r3, #0
 2684 000c 0393     		str	r3, [sp, #12]
1267:Middlewares/Third_Party/FreeRTOS/Source/CMSIS_RTOS/cmsis_os.c ****   
1268:Middlewares/Third_Party/FreeRTOS/Source/CMSIS_RTOS/cmsis_os.c ****   if (inHandlerMode()) {
 2685              		.loc 1 1268 3 is_stmt 1 view .LVU683
 2686              		.loc 1 1268 7 is_stmt 0 view .LVU684
 2687 000e FFF7FEFF 		bl	inHandlerMode
 2688              	.LVL213:
 2689              		.loc 1 1268 6 view .LVU685
 2690 0012 A8B1     		cbz	r0, .L188
1269:Middlewares/Third_Party/FreeRTOS/Source/CMSIS_RTOS/cmsis_os.c ****     if (xQueueSendFromISR(queue_id->handle, &mail, &taskWoken) != pdTRUE) {
 2691              		.loc 1 1269 5 is_stmt 1 view .LVU686
 2692              		.loc 1 1269 9 is_stmt 0 view .LVU687
 2693 0014 0023     		movs	r3, #0
 2694 0016 03AA     		add	r2, sp, #12
 2695 0018 01A9     		add	r1, sp, #4
 2696 001a 6068     		ldr	r0, [r4, #4]
 2697 001c FFF7FEFF 		bl	xQueueGenericSendFromISR
 2698              	.LVL214:
 2699              		.loc 1 1269 8 view .LVU688
 2700 0020 0128     		cmp	r0, #1
 2701 0022 1AD1     		bne	.L190
1270:Middlewares/Third_Party/FreeRTOS/Source/CMSIS_RTOS/cmsis_os.c ****       return osErrorOS;
1271:Middlewares/Third_Party/FreeRTOS/Source/CMSIS_RTOS/cmsis_os.c ****     }
1272:Middlewares/Third_Party/FreeRTOS/Source/CMSIS_RTOS/cmsis_os.c ****     portEND_SWITCHING_ISR(taskWoken);
 2702              		.loc 1 1272 5 is_stmt 1 view .LVU689
 2703 0024 039B     		ldr	r3, [sp, #12]
 2704 0026 D3B1     		cbz	r3, .L191
 2705              		.loc 1 1272 5 discriminator 1 view .LVU690
 2706 0028 4FF0E023 		mov	r3, #-536813568
 2707 002c 4FF08052 		mov	r2, #268435456
 2708 0030 C3F8042D 		str	r2, [r3, #3332]
 2709              		.loc 1 1272 5 discriminator 1 view .LVU691
 2710              		.syntax unified
 2711              	@ 1272 "Middlewares/Third_Party/FreeRTOS/Source/CMSIS_RTOS/cmsis_os.c" 1
 2712 0034 BFF34F8F 		dsb
 2713              	@ 0 "" 2
 2714              		.loc 1 1272 5 discriminator 1 view .LVU692
 2715              	@ 1272 "Middlewares/Third_Party/FreeRTOS/Source/CMSIS_RTOS/cmsis_os.c" 1
 2716 0038 BFF36F8F 		isb
 2717              	@ 0 "" 2
1273:Middlewares/Third_Party/FreeRTOS/Source/CMSIS_RTOS/cmsis_os.c ****   }
1274:Middlewares/Third_Party/FreeRTOS/Source/CMSIS_RTOS/cmsis_os.c ****   else {
1275:Middlewares/Third_Party/FreeRTOS/Source/CMSIS_RTOS/cmsis_os.c ****     if (xQueueSend(queue_id->handle, &mail, 0) != pdTRUE) { 
1276:Middlewares/Third_Party/FreeRTOS/Source/CMSIS_RTOS/cmsis_os.c ****       return osErrorOS;
1277:Middlewares/Third_Party/FreeRTOS/Source/CMSIS_RTOS/cmsis_os.c ****     }
1278:Middlewares/Third_Party/FreeRTOS/Source/CMSIS_RTOS/cmsis_os.c ****   }
1279:Middlewares/Third_Party/FreeRTOS/Source/CMSIS_RTOS/cmsis_os.c ****   
1280:Middlewares/Third_Party/FreeRTOS/Source/CMSIS_RTOS/cmsis_os.c ****   return osOK;
 2718              		.loc 1 1280 10 is_stmt 0 discriminator 1 view .LVU693
 2719              		.thumb
 2720              		.syntax unified
 2721 003c 0020     		movs	r0, #0
 2722 003e 08E0     		b	.L186
ARM GAS  C:\Users\seblo\AppData\Local\Temp\ccJuvw9h.s 			page 80


 2723              	.L188:
1275:Middlewares/Third_Party/FreeRTOS/Source/CMSIS_RTOS/cmsis_os.c ****       return osErrorOS;
 2724              		.loc 1 1275 5 is_stmt 1 view .LVU694
1275:Middlewares/Third_Party/FreeRTOS/Source/CMSIS_RTOS/cmsis_os.c ****       return osErrorOS;
 2725              		.loc 1 1275 9 is_stmt 0 view .LVU695
 2726 0040 0023     		movs	r3, #0
 2727 0042 1A46     		mov	r2, r3
 2728 0044 01A9     		add	r1, sp, #4
 2729 0046 6068     		ldr	r0, [r4, #4]
 2730 0048 FFF7FEFF 		bl	xQueueGenericSend
 2731              	.LVL215:
1275:Middlewares/Third_Party/FreeRTOS/Source/CMSIS_RTOS/cmsis_os.c ****       return osErrorOS;
 2732              		.loc 1 1275 8 view .LVU696
 2733 004c 0128     		cmp	r0, #1
 2734 004e 08D1     		bne	.L192
 2735              		.loc 1 1280 10 view .LVU697
 2736 0050 0020     		movs	r0, #0
 2737              	.LVL216:
 2738              	.L186:
1281:Middlewares/Third_Party/FreeRTOS/Source/CMSIS_RTOS/cmsis_os.c **** }
 2739              		.loc 1 1281 1 view .LVU698
 2740 0052 04B0     		add	sp, sp, #16
 2741              	.LCFI65:
 2742              		.cfi_remember_state
 2743              		.cfi_def_cfa_offset 8
 2744              		@ sp needed
 2745 0054 10BD     		pop	{r4, pc}
 2746              	.LVL217:
 2747              	.L189:
 2748              	.LCFI66:
 2749              		.cfi_restore_state
1263:Middlewares/Third_Party/FreeRTOS/Source/CMSIS_RTOS/cmsis_os.c ****   }
 2750              		.loc 1 1263 12 view .LVU699
 2751 0056 8020     		movs	r0, #128
 2752              	.LVL218:
1263:Middlewares/Third_Party/FreeRTOS/Source/CMSIS_RTOS/cmsis_os.c ****   }
 2753              		.loc 1 1263 12 view .LVU700
 2754 0058 FBE7     		b	.L186
 2755              	.LVL219:
 2756              	.L190:
1270:Middlewares/Third_Party/FreeRTOS/Source/CMSIS_RTOS/cmsis_os.c ****     }
 2757              		.loc 1 1270 14 view .LVU701
 2758 005a FF20     		movs	r0, #255
 2759 005c F9E7     		b	.L186
 2760              	.L191:
1280:Middlewares/Third_Party/FreeRTOS/Source/CMSIS_RTOS/cmsis_os.c **** }
 2761              		.loc 1 1280 10 view .LVU702
 2762 005e 0020     		movs	r0, #0
 2763 0060 F7E7     		b	.L186
 2764              	.L192:
1276:Middlewares/Third_Party/FreeRTOS/Source/CMSIS_RTOS/cmsis_os.c ****     }
 2765              		.loc 1 1276 14 view .LVU703
 2766 0062 FF20     		movs	r0, #255
 2767 0064 F5E7     		b	.L186
 2768              		.cfi_endproc
 2769              	.LFE144:
 2771              		.section	.text.osMailGet,"ax",%progbits
ARM GAS  C:\Users\seblo\AppData\Local\Temp\ccJuvw9h.s 			page 81


 2772              		.align	1
 2773              		.global	osMailGet
 2774              		.syntax unified
 2775              		.thumb
 2776              		.thumb_func
 2777              		.fpu fpv5-sp-d16
 2779              	osMailGet:
 2780              	.LVL220:
 2781              	.LFB145:
1282:Middlewares/Third_Party/FreeRTOS/Source/CMSIS_RTOS/cmsis_os.c **** 
1283:Middlewares/Third_Party/FreeRTOS/Source/CMSIS_RTOS/cmsis_os.c **** /**
1284:Middlewares/Third_Party/FreeRTOS/Source/CMSIS_RTOS/cmsis_os.c **** * @brief Get a mail from a queue
1285:Middlewares/Third_Party/FreeRTOS/Source/CMSIS_RTOS/cmsis_os.c **** * @param  queue_id   mail queue ID obtained with \ref osMailCreate.
1286:Middlewares/Third_Party/FreeRTOS/Source/CMSIS_RTOS/cmsis_os.c **** * @param millisec    timeout value or 0 in case of no time-out
1287:Middlewares/Third_Party/FreeRTOS/Source/CMSIS_RTOS/cmsis_os.c **** * @retval event that contains mail information or error code.
1288:Middlewares/Third_Party/FreeRTOS/Source/CMSIS_RTOS/cmsis_os.c **** * @note   MUST REMAIN UNCHANGED: \b osMailGet shall be consistent in every CMSIS-RTOS.
1289:Middlewares/Third_Party/FreeRTOS/Source/CMSIS_RTOS/cmsis_os.c **** */
1290:Middlewares/Third_Party/FreeRTOS/Source/CMSIS_RTOS/cmsis_os.c **** osEvent osMailGet (osMailQId queue_id, uint32_t millisec)
1291:Middlewares/Third_Party/FreeRTOS/Source/CMSIS_RTOS/cmsis_os.c **** {
 2782              		.loc 1 1291 1 is_stmt 1 view -0
 2783              		.cfi_startproc
 2784              		@ args = 0, pretend = 0, frame = 16
 2785              		@ frame_needed = 0, uses_anonymous_args = 0
 2786              		.loc 1 1291 1 is_stmt 0 view .LVU705
 2787 0000 70B5     		push	{r4, r5, r6, lr}
 2788              	.LCFI67:
 2789              		.cfi_def_cfa_offset 16
 2790              		.cfi_offset 4, -16
 2791              		.cfi_offset 5, -12
 2792              		.cfi_offset 6, -8
 2793              		.cfi_offset 14, -4
 2794 0002 84B0     		sub	sp, sp, #16
 2795              	.LCFI68:
 2796              		.cfi_def_cfa_offset 32
 2797 0004 0446     		mov	r4, r0
1292:Middlewares/Third_Party/FreeRTOS/Source/CMSIS_RTOS/cmsis_os.c ****   portBASE_TYPE taskWoken;
 2798              		.loc 1 1292 3 is_stmt 1 view .LVU706
1293:Middlewares/Third_Party/FreeRTOS/Source/CMSIS_RTOS/cmsis_os.c ****   TickType_t ticks;
 2799              		.loc 1 1293 3 view .LVU707
1294:Middlewares/Third_Party/FreeRTOS/Source/CMSIS_RTOS/cmsis_os.c ****   osEvent event;
 2800              		.loc 1 1294 3 view .LVU708
1295:Middlewares/Third_Party/FreeRTOS/Source/CMSIS_RTOS/cmsis_os.c ****   
1296:Middlewares/Third_Party/FreeRTOS/Source/CMSIS_RTOS/cmsis_os.c ****   event.def.mail_id = queue_id;
 2801              		.loc 1 1296 3 view .LVU709
 2802              		.loc 1 1296 21 is_stmt 0 view .LVU710
 2803 0006 0291     		str	r1, [sp, #8]
1297:Middlewares/Third_Party/FreeRTOS/Source/CMSIS_RTOS/cmsis_os.c ****   
1298:Middlewares/Third_Party/FreeRTOS/Source/CMSIS_RTOS/cmsis_os.c ****   if (queue_id == NULL) {
 2804              		.loc 1 1298 3 is_stmt 1 view .LVU711
 2805              		.loc 1 1298 6 is_stmt 0 view .LVU712
 2806 0008 E1B1     		cbz	r1, .L205
 2807 000a 0D46     		mov	r5, r1
 2808 000c 1646     		mov	r6, r2
1299:Middlewares/Third_Party/FreeRTOS/Source/CMSIS_RTOS/cmsis_os.c ****     event.status = osErrorParameter;
1300:Middlewares/Third_Party/FreeRTOS/Source/CMSIS_RTOS/cmsis_os.c ****     return event;
1301:Middlewares/Third_Party/FreeRTOS/Source/CMSIS_RTOS/cmsis_os.c ****   }
1302:Middlewares/Third_Party/FreeRTOS/Source/CMSIS_RTOS/cmsis_os.c ****   
ARM GAS  C:\Users\seblo\AppData\Local\Temp\ccJuvw9h.s 			page 82


1303:Middlewares/Third_Party/FreeRTOS/Source/CMSIS_RTOS/cmsis_os.c ****   taskWoken = pdFALSE;
 2809              		.loc 1 1303 3 is_stmt 1 view .LVU713
 2810              		.loc 1 1303 13 is_stmt 0 view .LVU714
 2811 000e 0023     		movs	r3, #0
 2812 0010 0393     		str	r3, [sp, #12]
1304:Middlewares/Third_Party/FreeRTOS/Source/CMSIS_RTOS/cmsis_os.c ****   
1305:Middlewares/Third_Party/FreeRTOS/Source/CMSIS_RTOS/cmsis_os.c ****   ticks = 0;
 2813              		.loc 1 1305 3 is_stmt 1 view .LVU715
 2814              	.LVL221:
1306:Middlewares/Third_Party/FreeRTOS/Source/CMSIS_RTOS/cmsis_os.c ****   if (millisec == osWaitForever) {
 2815              		.loc 1 1306 3 view .LVU716
1307:Middlewares/Third_Party/FreeRTOS/Source/CMSIS_RTOS/cmsis_os.c ****     ticks = portMAX_DELAY;
1308:Middlewares/Third_Party/FreeRTOS/Source/CMSIS_RTOS/cmsis_os.c ****   }
1309:Middlewares/Third_Party/FreeRTOS/Source/CMSIS_RTOS/cmsis_os.c ****   else if (millisec != 0) {
1310:Middlewares/Third_Party/FreeRTOS/Source/CMSIS_RTOS/cmsis_os.c ****     ticks = millisec / portTICK_PERIOD_MS;
1311:Middlewares/Third_Party/FreeRTOS/Source/CMSIS_RTOS/cmsis_os.c ****     if (ticks == 0) {
1312:Middlewares/Third_Party/FreeRTOS/Source/CMSIS_RTOS/cmsis_os.c ****       ticks = 1;
1313:Middlewares/Third_Party/FreeRTOS/Source/CMSIS_RTOS/cmsis_os.c ****     }
1314:Middlewares/Third_Party/FreeRTOS/Source/CMSIS_RTOS/cmsis_os.c ****   }
1315:Middlewares/Third_Party/FreeRTOS/Source/CMSIS_RTOS/cmsis_os.c ****   
1316:Middlewares/Third_Party/FreeRTOS/Source/CMSIS_RTOS/cmsis_os.c ****   if (inHandlerMode()) {
 2816              		.loc 1 1316 3 view .LVU717
 2817              		.loc 1 1316 7 is_stmt 0 view .LVU718
 2818 0012 FFF7FEFF 		bl	inHandlerMode
 2819              	.LVL222:
 2820              		.loc 1 1316 6 view .LVU719
 2821 0016 00B3     		cbz	r0, .L197
1317:Middlewares/Third_Party/FreeRTOS/Source/CMSIS_RTOS/cmsis_os.c ****     if (xQueueReceiveFromISR(queue_id->handle, &event.value.p, &taskWoken) == pdTRUE) {
 2822              		.loc 1 1317 5 is_stmt 1 view .LVU720
 2823              		.loc 1 1317 9 is_stmt 0 view .LVU721
 2824 0018 03AA     		add	r2, sp, #12
 2825 001a 01A9     		add	r1, sp, #4
 2826 001c 6868     		ldr	r0, [r5, #4]
 2827 001e FFF7FEFF 		bl	xQueueReceiveFromISR
 2828              	.LVL223:
 2829              		.loc 1 1317 8 view .LVU722
 2830 0022 0128     		cmp	r0, #1
 2831 0024 16D0     		beq	.L206
1318:Middlewares/Third_Party/FreeRTOS/Source/CMSIS_RTOS/cmsis_os.c ****       /* We have mail */
1319:Middlewares/Third_Party/FreeRTOS/Source/CMSIS_RTOS/cmsis_os.c ****       event.status = osEventMail;
1320:Middlewares/Third_Party/FreeRTOS/Source/CMSIS_RTOS/cmsis_os.c ****     }
1321:Middlewares/Third_Party/FreeRTOS/Source/CMSIS_RTOS/cmsis_os.c ****     else {
1322:Middlewares/Third_Party/FreeRTOS/Source/CMSIS_RTOS/cmsis_os.c ****       event.status = osOK;
 2832              		.loc 1 1322 7 is_stmt 1 view .LVU723
 2833              		.loc 1 1322 20 is_stmt 0 view .LVU724
 2834 0026 0023     		movs	r3, #0
 2835 0028 0093     		str	r3, [sp]
 2836              	.L199:
1323:Middlewares/Third_Party/FreeRTOS/Source/CMSIS_RTOS/cmsis_os.c ****     }
1324:Middlewares/Third_Party/FreeRTOS/Source/CMSIS_RTOS/cmsis_os.c ****     portEND_SWITCHING_ISR(taskWoken);
 2837              		.loc 1 1324 5 is_stmt 1 view .LVU725
 2838 002a 039B     		ldr	r3, [sp, #12]
 2839 002c FBB1     		cbz	r3, .L200
 2840              		.loc 1 1324 5 discriminator 1 view .LVU726
 2841 002e 4FF0E023 		mov	r3, #-536813568
 2842 0032 4FF08052 		mov	r2, #268435456
 2843 0036 C3F8042D 		str	r2, [r3, #3332]
ARM GAS  C:\Users\seblo\AppData\Local\Temp\ccJuvw9h.s 			page 83


 2844              		.loc 1 1324 5 discriminator 1 view .LVU727
 2845              		.syntax unified
 2846              	@ 1324 "Middlewares/Third_Party/FreeRTOS/Source/CMSIS_RTOS/cmsis_os.c" 1
 2847 003a BFF34F8F 		dsb
 2848              	@ 0 "" 2
 2849              		.loc 1 1324 5 discriminator 1 view .LVU728
 2850              	@ 1324 "Middlewares/Third_Party/FreeRTOS/Source/CMSIS_RTOS/cmsis_os.c" 1
 2851 003e BFF36F8F 		isb
 2852              	@ 0 "" 2
 2853              		.thumb
 2854              		.syntax unified
 2855 0042 14E0     		b	.L200
 2856              	.LVL224:
 2857              	.L205:
1299:Middlewares/Third_Party/FreeRTOS/Source/CMSIS_RTOS/cmsis_os.c ****     return event;
 2858              		.loc 1 1299 5 view .LVU729
1299:Middlewares/Third_Party/FreeRTOS/Source/CMSIS_RTOS/cmsis_os.c ****     return event;
 2859              		.loc 1 1299 18 is_stmt 0 view .LVU730
 2860 0044 8023     		movs	r3, #128
 2861 0046 0093     		str	r3, [sp]
1300:Middlewares/Third_Party/FreeRTOS/Source/CMSIS_RTOS/cmsis_os.c ****   }
 2862              		.loc 1 1300 5 is_stmt 1 view .LVU731
1300:Middlewares/Third_Party/FreeRTOS/Source/CMSIS_RTOS/cmsis_os.c ****   }
 2863              		.loc 1 1300 12 is_stmt 0 view .LVU732
 2864 0048 6B46     		mov	r3, sp
 2865 004a 93E80700 		ldm	r3, {r0, r1, r2}
 2866              	.LVL225:
1300:Middlewares/Third_Party/FreeRTOS/Source/CMSIS_RTOS/cmsis_os.c ****   }
 2867              		.loc 1 1300 12 view .LVU733
 2868 004e 84E80700 		stm	r4, {r0, r1, r2}
 2869 0052 11E0     		b	.L194
 2870              	.LVL226:
 2871              	.L206:
1319:Middlewares/Third_Party/FreeRTOS/Source/CMSIS_RTOS/cmsis_os.c ****     }
 2872              		.loc 1 1319 7 is_stmt 1 view .LVU734
1319:Middlewares/Third_Party/FreeRTOS/Source/CMSIS_RTOS/cmsis_os.c ****     }
 2873              		.loc 1 1319 20 is_stmt 0 view .LVU735
 2874 0054 2023     		movs	r3, #32
 2875 0056 0093     		str	r3, [sp]
 2876 0058 E7E7     		b	.L199
 2877              	.L197:
1325:Middlewares/Third_Party/FreeRTOS/Source/CMSIS_RTOS/cmsis_os.c ****   }
1326:Middlewares/Third_Party/FreeRTOS/Source/CMSIS_RTOS/cmsis_os.c ****   else {
1327:Middlewares/Third_Party/FreeRTOS/Source/CMSIS_RTOS/cmsis_os.c ****     if (xQueueReceive(queue_id->handle, &event.value.p, ticks) == pdTRUE) {
 2878              		.loc 1 1327 5 is_stmt 1 view .LVU736
 2879              		.loc 1 1327 9 is_stmt 0 view .LVU737
 2880 005a 3246     		mov	r2, r6
 2881 005c 01A9     		add	r1, sp, #4
 2882 005e 6868     		ldr	r0, [r5, #4]
 2883 0060 FFF7FEFF 		bl	xQueueReceive
 2884              	.LVL227:
 2885              		.loc 1 1327 8 view .LVU738
 2886 0064 0128     		cmp	r0, #1
 2887 0066 0AD0     		beq	.L207
1328:Middlewares/Third_Party/FreeRTOS/Source/CMSIS_RTOS/cmsis_os.c ****       /* We have mail */
1329:Middlewares/Third_Party/FreeRTOS/Source/CMSIS_RTOS/cmsis_os.c ****       event.status = osEventMail;
1330:Middlewares/Third_Party/FreeRTOS/Source/CMSIS_RTOS/cmsis_os.c ****     }
ARM GAS  C:\Users\seblo\AppData\Local\Temp\ccJuvw9h.s 			page 84


1331:Middlewares/Third_Party/FreeRTOS/Source/CMSIS_RTOS/cmsis_os.c ****     else {
1332:Middlewares/Third_Party/FreeRTOS/Source/CMSIS_RTOS/cmsis_os.c ****       event.status = (ticks == 0) ? osOK : osEventTimeout;
 2888              		.loc 1 1332 7 is_stmt 1 view .LVU739
 2889              		.loc 1 1332 42 is_stmt 0 view .LVU740
 2890 0068 06B1     		cbz	r6, .L202
 2891 006a 4026     		movs	r6, #64
 2892              	.LVL228:
 2893              	.L202:
 2894              		.loc 1 1332 20 discriminator 4 view .LVU741
 2895 006c 0096     		str	r6, [sp]
 2896              	.L200:
1333:Middlewares/Third_Party/FreeRTOS/Source/CMSIS_RTOS/cmsis_os.c ****     }
1334:Middlewares/Third_Party/FreeRTOS/Source/CMSIS_RTOS/cmsis_os.c ****   }
1335:Middlewares/Third_Party/FreeRTOS/Source/CMSIS_RTOS/cmsis_os.c ****   
1336:Middlewares/Third_Party/FreeRTOS/Source/CMSIS_RTOS/cmsis_os.c ****   return event;
 2897              		.loc 1 1336 3 is_stmt 1 view .LVU742
 2898              		.loc 1 1336 10 is_stmt 0 view .LVU743
 2899 006e 6B46     		mov	r3, sp
 2900 0070 93E80700 		ldm	r3, {r0, r1, r2}
 2901 0074 84E80700 		stm	r4, {r0, r1, r2}
 2902              	.LVL229:
 2903              	.L194:
1337:Middlewares/Third_Party/FreeRTOS/Source/CMSIS_RTOS/cmsis_os.c **** }
 2904              		.loc 1 1337 1 view .LVU744
 2905 0078 2046     		mov	r0, r4
 2906 007a 04B0     		add	sp, sp, #16
 2907              	.LCFI69:
 2908              		.cfi_remember_state
 2909              		.cfi_def_cfa_offset 16
 2910              		@ sp needed
 2911 007c 70BD     		pop	{r4, r5, r6, pc}
 2912              	.LVL230:
 2913              	.L207:
 2914              	.LCFI70:
 2915              		.cfi_restore_state
1329:Middlewares/Third_Party/FreeRTOS/Source/CMSIS_RTOS/cmsis_os.c ****     }
 2916              		.loc 1 1329 7 is_stmt 1 view .LVU745
1329:Middlewares/Third_Party/FreeRTOS/Source/CMSIS_RTOS/cmsis_os.c ****     }
 2917              		.loc 1 1329 20 is_stmt 0 view .LVU746
 2918 007e 2023     		movs	r3, #32
 2919 0080 0093     		str	r3, [sp]
 2920 0082 F4E7     		b	.L200
 2921              		.cfi_endproc
 2922              	.LFE145:
 2924              		.section	.text.osMailFree,"ax",%progbits
 2925              		.align	1
 2926              		.global	osMailFree
 2927              		.syntax unified
 2928              		.thumb
 2929              		.thumb_func
 2930              		.fpu fpv5-sp-d16
 2932              	osMailFree:
 2933              	.LVL231:
 2934              	.LFB146:
1338:Middlewares/Third_Party/FreeRTOS/Source/CMSIS_RTOS/cmsis_os.c **** 
1339:Middlewares/Third_Party/FreeRTOS/Source/CMSIS_RTOS/cmsis_os.c **** /**
1340:Middlewares/Third_Party/FreeRTOS/Source/CMSIS_RTOS/cmsis_os.c **** * @brief Free a memory block from a mail
ARM GAS  C:\Users\seblo\AppData\Local\Temp\ccJuvw9h.s 			page 85


1341:Middlewares/Third_Party/FreeRTOS/Source/CMSIS_RTOS/cmsis_os.c **** * @param  queue_id mail queue ID obtained with \ref osMailCreate.
1342:Middlewares/Third_Party/FreeRTOS/Source/CMSIS_RTOS/cmsis_os.c **** * @param  mail     pointer to the memory block that was obtained with \ref osMailGet.
1343:Middlewares/Third_Party/FreeRTOS/Source/CMSIS_RTOS/cmsis_os.c **** * @retval status code that indicates the execution status of the function.
1344:Middlewares/Third_Party/FreeRTOS/Source/CMSIS_RTOS/cmsis_os.c **** * @note   MUST REMAIN UNCHANGED: \b osMailFree shall be consistent in every CMSIS-RTOS.
1345:Middlewares/Third_Party/FreeRTOS/Source/CMSIS_RTOS/cmsis_os.c **** */
1346:Middlewares/Third_Party/FreeRTOS/Source/CMSIS_RTOS/cmsis_os.c **** osStatus osMailFree (osMailQId queue_id, void *mail)
1347:Middlewares/Third_Party/FreeRTOS/Source/CMSIS_RTOS/cmsis_os.c **** {
 2935              		.loc 1 1347 1 is_stmt 1 view -0
 2936              		.cfi_startproc
 2937              		@ args = 0, pretend = 0, frame = 0
 2938              		@ frame_needed = 0, uses_anonymous_args = 0
1348:Middlewares/Third_Party/FreeRTOS/Source/CMSIS_RTOS/cmsis_os.c ****   if (queue_id == NULL) {
 2939              		.loc 1 1348 3 view .LVU748
 2940              		.loc 1 1348 6 is_stmt 0 view .LVU749
 2941 0000 20B1     		cbz	r0, .L210
1347:Middlewares/Third_Party/FreeRTOS/Source/CMSIS_RTOS/cmsis_os.c ****   if (queue_id == NULL) {
 2942              		.loc 1 1347 1 view .LVU750
 2943 0002 08B5     		push	{r3, lr}
 2944              	.LCFI71:
 2945              		.cfi_def_cfa_offset 8
 2946              		.cfi_offset 3, -8
 2947              		.cfi_offset 14, -4
1349:Middlewares/Third_Party/FreeRTOS/Source/CMSIS_RTOS/cmsis_os.c ****     return osErrorParameter;
1350:Middlewares/Third_Party/FreeRTOS/Source/CMSIS_RTOS/cmsis_os.c ****   }
1351:Middlewares/Third_Party/FreeRTOS/Source/CMSIS_RTOS/cmsis_os.c ****   
1352:Middlewares/Third_Party/FreeRTOS/Source/CMSIS_RTOS/cmsis_os.c ****   return osPoolFree(queue_id->pool, mail);
 2948              		.loc 1 1352 3 is_stmt 1 view .LVU751
 2949              		.loc 1 1352 10 is_stmt 0 view .LVU752
 2950 0004 8068     		ldr	r0, [r0, #8]
 2951              	.LVL232:
 2952              		.loc 1 1352 10 view .LVU753
 2953 0006 FFF7FEFF 		bl	osPoolFree
 2954              	.LVL233:
1353:Middlewares/Third_Party/FreeRTOS/Source/CMSIS_RTOS/cmsis_os.c **** }
 2955              		.loc 1 1353 1 view .LVU754
 2956 000a 08BD     		pop	{r3, pc}
 2957              	.LVL234:
 2958              	.L210:
 2959              	.LCFI72:
 2960              		.cfi_def_cfa_offset 0
 2961              		.cfi_restore 3
 2962              		.cfi_restore 14
1349:Middlewares/Third_Party/FreeRTOS/Source/CMSIS_RTOS/cmsis_os.c ****     return osErrorParameter;
 2963              		.loc 1 1349 12 view .LVU755
 2964 000c 8020     		movs	r0, #128
 2965              	.LVL235:
 2966              		.loc 1 1353 1 view .LVU756
 2967 000e 7047     		bx	lr
 2968              		.cfi_endproc
 2969              	.LFE146:
 2971              		.section	.text.osSystickHandler,"ax",%progbits
 2972              		.align	1
 2973              		.global	osSystickHandler
 2974              		.syntax unified
 2975              		.thumb
 2976              		.thumb_func
 2977              		.fpu fpv5-sp-d16
ARM GAS  C:\Users\seblo\AppData\Local\Temp\ccJuvw9h.s 			page 86


 2979              	osSystickHandler:
 2980              	.LFB147:
1354:Middlewares/Third_Party/FreeRTOS/Source/CMSIS_RTOS/cmsis_os.c **** #endif  /* Use Mail Queues */
1355:Middlewares/Third_Party/FreeRTOS/Source/CMSIS_RTOS/cmsis_os.c **** 
1356:Middlewares/Third_Party/FreeRTOS/Source/CMSIS_RTOS/cmsis_os.c **** /*************************** Additional specific APIs to Free RTOS ************/
1357:Middlewares/Third_Party/FreeRTOS/Source/CMSIS_RTOS/cmsis_os.c **** /**
1358:Middlewares/Third_Party/FreeRTOS/Source/CMSIS_RTOS/cmsis_os.c **** * @brief  Handles the tick increment
1359:Middlewares/Third_Party/FreeRTOS/Source/CMSIS_RTOS/cmsis_os.c **** * @param  none.
1360:Middlewares/Third_Party/FreeRTOS/Source/CMSIS_RTOS/cmsis_os.c **** * @retval none.
1361:Middlewares/Third_Party/FreeRTOS/Source/CMSIS_RTOS/cmsis_os.c **** */
1362:Middlewares/Third_Party/FreeRTOS/Source/CMSIS_RTOS/cmsis_os.c **** void osSystickHandler(void)
1363:Middlewares/Third_Party/FreeRTOS/Source/CMSIS_RTOS/cmsis_os.c **** {
 2981              		.loc 1 1363 1 is_stmt 1 view -0
 2982              		.cfi_startproc
 2983              		@ args = 0, pretend = 0, frame = 0
 2984              		@ frame_needed = 0, uses_anonymous_args = 0
 2985 0000 08B5     		push	{r3, lr}
 2986              	.LCFI73:
 2987              		.cfi_def_cfa_offset 8
 2988              		.cfi_offset 3, -8
 2989              		.cfi_offset 14, -4
1364:Middlewares/Third_Party/FreeRTOS/Source/CMSIS_RTOS/cmsis_os.c **** 
1365:Middlewares/Third_Party/FreeRTOS/Source/CMSIS_RTOS/cmsis_os.c **** #if (INCLUDE_xTaskGetSchedulerState  == 1 )
1366:Middlewares/Third_Party/FreeRTOS/Source/CMSIS_RTOS/cmsis_os.c ****   if (xTaskGetSchedulerState() != taskSCHEDULER_NOT_STARTED)
 2990              		.loc 1 1366 3 view .LVU758
 2991              		.loc 1 1366 7 is_stmt 0 view .LVU759
 2992 0002 FFF7FEFF 		bl	xTaskGetSchedulerState
 2993              	.LVL236:
 2994              		.loc 1 1366 6 view .LVU760
 2995 0006 0128     		cmp	r0, #1
 2996 0008 00D1     		bne	.L218
 2997              	.L215:
1367:Middlewares/Third_Party/FreeRTOS/Source/CMSIS_RTOS/cmsis_os.c ****   {
1368:Middlewares/Third_Party/FreeRTOS/Source/CMSIS_RTOS/cmsis_os.c **** #endif  /* INCLUDE_xTaskGetSchedulerState */  
1369:Middlewares/Third_Party/FreeRTOS/Source/CMSIS_RTOS/cmsis_os.c ****     xPortSysTickHandler();
1370:Middlewares/Third_Party/FreeRTOS/Source/CMSIS_RTOS/cmsis_os.c **** #if (INCLUDE_xTaskGetSchedulerState  == 1 )
1371:Middlewares/Third_Party/FreeRTOS/Source/CMSIS_RTOS/cmsis_os.c ****   }
1372:Middlewares/Third_Party/FreeRTOS/Source/CMSIS_RTOS/cmsis_os.c **** #endif  /* INCLUDE_xTaskGetSchedulerState */  
1373:Middlewares/Third_Party/FreeRTOS/Source/CMSIS_RTOS/cmsis_os.c **** }
 2998              		.loc 1 1373 1 view .LVU761
 2999 000a 08BD     		pop	{r3, pc}
 3000              	.L218:
1369:Middlewares/Third_Party/FreeRTOS/Source/CMSIS_RTOS/cmsis_os.c **** #if (INCLUDE_xTaskGetSchedulerState  == 1 )
 3001              		.loc 1 1369 5 is_stmt 1 view .LVU762
 3002 000c FFF7FEFF 		bl	SysTick_Handler
 3003              	.LVL237:
 3004              		.loc 1 1373 1 is_stmt 0 view .LVU763
 3005 0010 FBE7     		b	.L215
 3006              		.cfi_endproc
 3007              	.LFE147:
 3009              		.section	.text.osThreadSuspend,"ax",%progbits
 3010              		.align	1
 3011              		.global	osThreadSuspend
 3012              		.syntax unified
 3013              		.thumb
 3014              		.thumb_func
 3015              		.fpu fpv5-sp-d16
ARM GAS  C:\Users\seblo\AppData\Local\Temp\ccJuvw9h.s 			page 87


 3017              	osThreadSuspend:
 3018              	.LVL238:
 3019              	.LFB148:
1374:Middlewares/Third_Party/FreeRTOS/Source/CMSIS_RTOS/cmsis_os.c **** 
1375:Middlewares/Third_Party/FreeRTOS/Source/CMSIS_RTOS/cmsis_os.c **** #if ( INCLUDE_eTaskGetState == 1 )
1376:Middlewares/Third_Party/FreeRTOS/Source/CMSIS_RTOS/cmsis_os.c **** /**
1377:Middlewares/Third_Party/FreeRTOS/Source/CMSIS_RTOS/cmsis_os.c **** * @brief  Obtain the state of any thread.
1378:Middlewares/Third_Party/FreeRTOS/Source/CMSIS_RTOS/cmsis_os.c **** * @param   thread_id   thread ID obtained by \ref osThreadCreate or \ref osThreadGetId.
1379:Middlewares/Third_Party/FreeRTOS/Source/CMSIS_RTOS/cmsis_os.c **** * @retval  the stae of the thread, states are encoded by the osThreadState enumerated type.
1380:Middlewares/Third_Party/FreeRTOS/Source/CMSIS_RTOS/cmsis_os.c **** */
1381:Middlewares/Third_Party/FreeRTOS/Source/CMSIS_RTOS/cmsis_os.c **** osThreadState osThreadGetState(osThreadId thread_id)
1382:Middlewares/Third_Party/FreeRTOS/Source/CMSIS_RTOS/cmsis_os.c **** {
1383:Middlewares/Third_Party/FreeRTOS/Source/CMSIS_RTOS/cmsis_os.c ****   eTaskState ThreadState;
1384:Middlewares/Third_Party/FreeRTOS/Source/CMSIS_RTOS/cmsis_os.c ****   osThreadState result;
1385:Middlewares/Third_Party/FreeRTOS/Source/CMSIS_RTOS/cmsis_os.c ****   
1386:Middlewares/Third_Party/FreeRTOS/Source/CMSIS_RTOS/cmsis_os.c ****   ThreadState = eTaskGetState(thread_id);
1387:Middlewares/Third_Party/FreeRTOS/Source/CMSIS_RTOS/cmsis_os.c ****   
1388:Middlewares/Third_Party/FreeRTOS/Source/CMSIS_RTOS/cmsis_os.c ****   switch (ThreadState)
1389:Middlewares/Third_Party/FreeRTOS/Source/CMSIS_RTOS/cmsis_os.c ****   {
1390:Middlewares/Third_Party/FreeRTOS/Source/CMSIS_RTOS/cmsis_os.c ****   case eRunning :
1391:Middlewares/Third_Party/FreeRTOS/Source/CMSIS_RTOS/cmsis_os.c ****     result = osThreadRunning;
1392:Middlewares/Third_Party/FreeRTOS/Source/CMSIS_RTOS/cmsis_os.c ****     break;
1393:Middlewares/Third_Party/FreeRTOS/Source/CMSIS_RTOS/cmsis_os.c ****   case eReady :
1394:Middlewares/Third_Party/FreeRTOS/Source/CMSIS_RTOS/cmsis_os.c ****     result = osThreadReady;
1395:Middlewares/Third_Party/FreeRTOS/Source/CMSIS_RTOS/cmsis_os.c ****     break;
1396:Middlewares/Third_Party/FreeRTOS/Source/CMSIS_RTOS/cmsis_os.c ****   case eBlocked :
1397:Middlewares/Third_Party/FreeRTOS/Source/CMSIS_RTOS/cmsis_os.c ****     result = osThreadBlocked;
1398:Middlewares/Third_Party/FreeRTOS/Source/CMSIS_RTOS/cmsis_os.c ****     break;
1399:Middlewares/Third_Party/FreeRTOS/Source/CMSIS_RTOS/cmsis_os.c ****   case eSuspended :
1400:Middlewares/Third_Party/FreeRTOS/Source/CMSIS_RTOS/cmsis_os.c ****     result = osThreadSuspended;
1401:Middlewares/Third_Party/FreeRTOS/Source/CMSIS_RTOS/cmsis_os.c ****     break;
1402:Middlewares/Third_Party/FreeRTOS/Source/CMSIS_RTOS/cmsis_os.c ****   case eDeleted :
1403:Middlewares/Third_Party/FreeRTOS/Source/CMSIS_RTOS/cmsis_os.c ****     result = osThreadDeleted;
1404:Middlewares/Third_Party/FreeRTOS/Source/CMSIS_RTOS/cmsis_os.c ****     break;
1405:Middlewares/Third_Party/FreeRTOS/Source/CMSIS_RTOS/cmsis_os.c ****   default:
1406:Middlewares/Third_Party/FreeRTOS/Source/CMSIS_RTOS/cmsis_os.c ****     result = osThreadError;
1407:Middlewares/Third_Party/FreeRTOS/Source/CMSIS_RTOS/cmsis_os.c ****   } 
1408:Middlewares/Third_Party/FreeRTOS/Source/CMSIS_RTOS/cmsis_os.c ****   
1409:Middlewares/Third_Party/FreeRTOS/Source/CMSIS_RTOS/cmsis_os.c ****   return result;
1410:Middlewares/Third_Party/FreeRTOS/Source/CMSIS_RTOS/cmsis_os.c **** }
1411:Middlewares/Third_Party/FreeRTOS/Source/CMSIS_RTOS/cmsis_os.c **** #endif /* INCLUDE_eTaskGetState */
1412:Middlewares/Third_Party/FreeRTOS/Source/CMSIS_RTOS/cmsis_os.c **** 
1413:Middlewares/Third_Party/FreeRTOS/Source/CMSIS_RTOS/cmsis_os.c **** #if (INCLUDE_eTaskGetState == 1)
1414:Middlewares/Third_Party/FreeRTOS/Source/CMSIS_RTOS/cmsis_os.c **** /**
1415:Middlewares/Third_Party/FreeRTOS/Source/CMSIS_RTOS/cmsis_os.c **** * @brief Check if a thread is already suspended or not.
1416:Middlewares/Third_Party/FreeRTOS/Source/CMSIS_RTOS/cmsis_os.c **** * @param thread_id thread ID obtained by \ref osThreadCreate or \ref osThreadGetId.
1417:Middlewares/Third_Party/FreeRTOS/Source/CMSIS_RTOS/cmsis_os.c **** * @retval status code that indicates the execution status of the function.
1418:Middlewares/Third_Party/FreeRTOS/Source/CMSIS_RTOS/cmsis_os.c **** */
1419:Middlewares/Third_Party/FreeRTOS/Source/CMSIS_RTOS/cmsis_os.c **** osStatus osThreadIsSuspended(osThreadId thread_id)
1420:Middlewares/Third_Party/FreeRTOS/Source/CMSIS_RTOS/cmsis_os.c **** {
1421:Middlewares/Third_Party/FreeRTOS/Source/CMSIS_RTOS/cmsis_os.c ****   if (eTaskGetState(thread_id) == eSuspended)
1422:Middlewares/Third_Party/FreeRTOS/Source/CMSIS_RTOS/cmsis_os.c ****     return osOK;
1423:Middlewares/Third_Party/FreeRTOS/Source/CMSIS_RTOS/cmsis_os.c ****   else
1424:Middlewares/Third_Party/FreeRTOS/Source/CMSIS_RTOS/cmsis_os.c ****     return osErrorOS;
1425:Middlewares/Third_Party/FreeRTOS/Source/CMSIS_RTOS/cmsis_os.c **** }
1426:Middlewares/Third_Party/FreeRTOS/Source/CMSIS_RTOS/cmsis_os.c **** #endif /* INCLUDE_eTaskGetState */
1427:Middlewares/Third_Party/FreeRTOS/Source/CMSIS_RTOS/cmsis_os.c **** /**
ARM GAS  C:\Users\seblo\AppData\Local\Temp\ccJuvw9h.s 			page 88


1428:Middlewares/Third_Party/FreeRTOS/Source/CMSIS_RTOS/cmsis_os.c **** * @brief  Suspend execution of a thread.
1429:Middlewares/Third_Party/FreeRTOS/Source/CMSIS_RTOS/cmsis_os.c **** * @param   thread_id   thread ID obtained by \ref osThreadCreate or \ref osThreadGetId.
1430:Middlewares/Third_Party/FreeRTOS/Source/CMSIS_RTOS/cmsis_os.c **** * @retval  status code that indicates the execution status of the function.
1431:Middlewares/Third_Party/FreeRTOS/Source/CMSIS_RTOS/cmsis_os.c **** */
1432:Middlewares/Third_Party/FreeRTOS/Source/CMSIS_RTOS/cmsis_os.c **** osStatus osThreadSuspend (osThreadId thread_id)
1433:Middlewares/Third_Party/FreeRTOS/Source/CMSIS_RTOS/cmsis_os.c **** {
 3020              		.loc 1 1433 1 is_stmt 1 view -0
 3021              		.cfi_startproc
 3022              		@ args = 0, pretend = 0, frame = 0
 3023              		@ frame_needed = 0, uses_anonymous_args = 0
 3024              		.loc 1 1433 1 is_stmt 0 view .LVU765
 3025 0000 08B5     		push	{r3, lr}
 3026              	.LCFI74:
 3027              		.cfi_def_cfa_offset 8
 3028              		.cfi_offset 3, -8
 3029              		.cfi_offset 14, -4
1434:Middlewares/Third_Party/FreeRTOS/Source/CMSIS_RTOS/cmsis_os.c **** #if (INCLUDE_vTaskSuspend == 1)
1435:Middlewares/Third_Party/FreeRTOS/Source/CMSIS_RTOS/cmsis_os.c ****     vTaskSuspend(thread_id);
 3030              		.loc 1 1435 5 is_stmt 1 view .LVU766
 3031 0002 FFF7FEFF 		bl	vTaskSuspend
 3032              	.LVL239:
1436:Middlewares/Third_Party/FreeRTOS/Source/CMSIS_RTOS/cmsis_os.c ****   
1437:Middlewares/Third_Party/FreeRTOS/Source/CMSIS_RTOS/cmsis_os.c ****   return osOK;
 3033              		.loc 1 1437 3 view .LVU767
1438:Middlewares/Third_Party/FreeRTOS/Source/CMSIS_RTOS/cmsis_os.c **** #else
1439:Middlewares/Third_Party/FreeRTOS/Source/CMSIS_RTOS/cmsis_os.c ****   return osErrorResource;
1440:Middlewares/Third_Party/FreeRTOS/Source/CMSIS_RTOS/cmsis_os.c **** #endif
1441:Middlewares/Third_Party/FreeRTOS/Source/CMSIS_RTOS/cmsis_os.c **** }
 3034              		.loc 1 1441 1 is_stmt 0 view .LVU768
 3035 0006 0020     		movs	r0, #0
 3036 0008 08BD     		pop	{r3, pc}
 3037              		.cfi_endproc
 3038              	.LFE148:
 3040              		.section	.text.osThreadResume,"ax",%progbits
 3041              		.align	1
 3042              		.global	osThreadResume
 3043              		.syntax unified
 3044              		.thumb
 3045              		.thumb_func
 3046              		.fpu fpv5-sp-d16
 3048              	osThreadResume:
 3049              	.LVL240:
 3050              	.LFB149:
1442:Middlewares/Third_Party/FreeRTOS/Source/CMSIS_RTOS/cmsis_os.c **** 
1443:Middlewares/Third_Party/FreeRTOS/Source/CMSIS_RTOS/cmsis_os.c **** /**
1444:Middlewares/Third_Party/FreeRTOS/Source/CMSIS_RTOS/cmsis_os.c **** * @brief  Resume execution of a suspended thread.
1445:Middlewares/Third_Party/FreeRTOS/Source/CMSIS_RTOS/cmsis_os.c **** * @param   thread_id   thread ID obtained by \ref osThreadCreate or \ref osThreadGetId.
1446:Middlewares/Third_Party/FreeRTOS/Source/CMSIS_RTOS/cmsis_os.c **** * @retval  status code that indicates the execution status of the function.
1447:Middlewares/Third_Party/FreeRTOS/Source/CMSIS_RTOS/cmsis_os.c **** */
1448:Middlewares/Third_Party/FreeRTOS/Source/CMSIS_RTOS/cmsis_os.c **** osStatus osThreadResume (osThreadId thread_id)
1449:Middlewares/Third_Party/FreeRTOS/Source/CMSIS_RTOS/cmsis_os.c **** {
 3051              		.loc 1 1449 1 is_stmt 1 view -0
 3052              		.cfi_startproc
 3053              		@ args = 0, pretend = 0, frame = 0
 3054              		@ frame_needed = 0, uses_anonymous_args = 0
 3055              		.loc 1 1449 1 is_stmt 0 view .LVU770
 3056 0000 10B5     		push	{r4, lr}
ARM GAS  C:\Users\seblo\AppData\Local\Temp\ccJuvw9h.s 			page 89


 3057              	.LCFI75:
 3058              		.cfi_def_cfa_offset 8
 3059              		.cfi_offset 4, -8
 3060              		.cfi_offset 14, -4
 3061 0002 0446     		mov	r4, r0
1450:Middlewares/Third_Party/FreeRTOS/Source/CMSIS_RTOS/cmsis_os.c **** #if (INCLUDE_vTaskSuspend == 1)  
1451:Middlewares/Third_Party/FreeRTOS/Source/CMSIS_RTOS/cmsis_os.c ****   if(inHandlerMode())
 3062              		.loc 1 1451 3 is_stmt 1 view .LVU771
 3063              		.loc 1 1451 6 is_stmt 0 view .LVU772
 3064 0004 FFF7FEFF 		bl	inHandlerMode
 3065              	.LVL241:
 3066              		.loc 1 1451 5 view .LVU773
 3067 0008 78B1     		cbz	r0, .L222
1452:Middlewares/Third_Party/FreeRTOS/Source/CMSIS_RTOS/cmsis_os.c ****   {
1453:Middlewares/Third_Party/FreeRTOS/Source/CMSIS_RTOS/cmsis_os.c ****     if (xTaskResumeFromISR(thread_id) == pdTRUE)
 3068              		.loc 1 1453 5 is_stmt 1 view .LVU774
 3069              		.loc 1 1453 9 is_stmt 0 view .LVU775
 3070 000a 2046     		mov	r0, r4
 3071 000c FFF7FEFF 		bl	xTaskResumeFromISR
 3072              	.LVL242:
 3073              		.loc 1 1453 8 view .LVU776
 3074 0010 0128     		cmp	r0, #1
 3075 0012 0DD1     		bne	.L223
1454:Middlewares/Third_Party/FreeRTOS/Source/CMSIS_RTOS/cmsis_os.c ****     {
1455:Middlewares/Third_Party/FreeRTOS/Source/CMSIS_RTOS/cmsis_os.c ****       portYIELD_FROM_ISR(pdTRUE);
 3076              		.loc 1 1455 7 is_stmt 1 discriminator 1 view .LVU777
 3077              		.loc 1 1455 7 discriminator 1 view .LVU778
 3078 0014 4FF0E023 		mov	r3, #-536813568
 3079 0018 4FF08052 		mov	r2, #268435456
 3080 001c C3F8042D 		str	r2, [r3, #3332]
 3081              		.loc 1 1455 7 discriminator 1 view .LVU779
 3082              		.syntax unified
 3083              	@ 1455 "Middlewares/Third_Party/FreeRTOS/Source/CMSIS_RTOS/cmsis_os.c" 1
 3084 0020 BFF34F8F 		dsb
 3085              	@ 0 "" 2
 3086              		.loc 1 1455 7 discriminator 1 view .LVU780
 3087              	@ 1455 "Middlewares/Third_Party/FreeRTOS/Source/CMSIS_RTOS/cmsis_os.c" 1
 3088 0024 BFF36F8F 		isb
 3089              	@ 0 "" 2
 3090              		.thumb
 3091              		.syntax unified
 3092 0028 02E0     		b	.L223
 3093              	.L222:
1456:Middlewares/Third_Party/FreeRTOS/Source/CMSIS_RTOS/cmsis_os.c ****     }
1457:Middlewares/Third_Party/FreeRTOS/Source/CMSIS_RTOS/cmsis_os.c ****   }
1458:Middlewares/Third_Party/FreeRTOS/Source/CMSIS_RTOS/cmsis_os.c ****   else
1459:Middlewares/Third_Party/FreeRTOS/Source/CMSIS_RTOS/cmsis_os.c ****   {
1460:Middlewares/Third_Party/FreeRTOS/Source/CMSIS_RTOS/cmsis_os.c ****     vTaskResume(thread_id);
 3094              		.loc 1 1460 5 view .LVU781
 3095 002a 2046     		mov	r0, r4
 3096 002c FFF7FEFF 		bl	vTaskResume
 3097              	.LVL243:
 3098              	.L223:
1461:Middlewares/Third_Party/FreeRTOS/Source/CMSIS_RTOS/cmsis_os.c ****   }
1462:Middlewares/Third_Party/FreeRTOS/Source/CMSIS_RTOS/cmsis_os.c ****   return osOK;
 3099              		.loc 1 1462 3 view .LVU782
1463:Middlewares/Third_Party/FreeRTOS/Source/CMSIS_RTOS/cmsis_os.c **** #else
ARM GAS  C:\Users\seblo\AppData\Local\Temp\ccJuvw9h.s 			page 90


1464:Middlewares/Third_Party/FreeRTOS/Source/CMSIS_RTOS/cmsis_os.c ****   return osErrorResource;
1465:Middlewares/Third_Party/FreeRTOS/Source/CMSIS_RTOS/cmsis_os.c **** #endif
1466:Middlewares/Third_Party/FreeRTOS/Source/CMSIS_RTOS/cmsis_os.c **** }
 3100              		.loc 1 1466 1 is_stmt 0 view .LVU783
 3101 0030 0020     		movs	r0, #0
 3102 0032 10BD     		pop	{r4, pc}
 3103              		.loc 1 1466 1 view .LVU784
 3104              		.cfi_endproc
 3105              	.LFE149:
 3107              		.section	.text.osThreadSuspendAll,"ax",%progbits
 3108              		.align	1
 3109              		.global	osThreadSuspendAll
 3110              		.syntax unified
 3111              		.thumb
 3112              		.thumb_func
 3113              		.fpu fpv5-sp-d16
 3115              	osThreadSuspendAll:
 3116              	.LFB150:
1467:Middlewares/Third_Party/FreeRTOS/Source/CMSIS_RTOS/cmsis_os.c **** 
1468:Middlewares/Third_Party/FreeRTOS/Source/CMSIS_RTOS/cmsis_os.c **** /**
1469:Middlewares/Third_Party/FreeRTOS/Source/CMSIS_RTOS/cmsis_os.c **** * @brief  Suspend execution of a all active threads.
1470:Middlewares/Third_Party/FreeRTOS/Source/CMSIS_RTOS/cmsis_os.c **** * @retval  status code that indicates the execution status of the function.
1471:Middlewares/Third_Party/FreeRTOS/Source/CMSIS_RTOS/cmsis_os.c **** */
1472:Middlewares/Third_Party/FreeRTOS/Source/CMSIS_RTOS/cmsis_os.c **** osStatus osThreadSuspendAll (void)
1473:Middlewares/Third_Party/FreeRTOS/Source/CMSIS_RTOS/cmsis_os.c **** {
 3117              		.loc 1 1473 1 is_stmt 1 view -0
 3118              		.cfi_startproc
 3119              		@ args = 0, pretend = 0, frame = 0
 3120              		@ frame_needed = 0, uses_anonymous_args = 0
 3121 0000 08B5     		push	{r3, lr}
 3122              	.LCFI76:
 3123              		.cfi_def_cfa_offset 8
 3124              		.cfi_offset 3, -8
 3125              		.cfi_offset 14, -4
1474:Middlewares/Third_Party/FreeRTOS/Source/CMSIS_RTOS/cmsis_os.c ****   vTaskSuspendAll();
 3126              		.loc 1 1474 3 view .LVU786
 3127 0002 FFF7FEFF 		bl	vTaskSuspendAll
 3128              	.LVL244:
1475:Middlewares/Third_Party/FreeRTOS/Source/CMSIS_RTOS/cmsis_os.c ****   
1476:Middlewares/Third_Party/FreeRTOS/Source/CMSIS_RTOS/cmsis_os.c ****   return osOK;
 3129              		.loc 1 1476 3 view .LVU787
1477:Middlewares/Third_Party/FreeRTOS/Source/CMSIS_RTOS/cmsis_os.c **** }
 3130              		.loc 1 1477 1 is_stmt 0 view .LVU788
 3131 0006 0020     		movs	r0, #0
 3132 0008 08BD     		pop	{r3, pc}
 3133              		.cfi_endproc
 3134              	.LFE150:
 3136              		.section	.text.osThreadResumeAll,"ax",%progbits
 3137              		.align	1
 3138              		.global	osThreadResumeAll
 3139              		.syntax unified
 3140              		.thumb
 3141              		.thumb_func
 3142              		.fpu fpv5-sp-d16
 3144              	osThreadResumeAll:
 3145              	.LFB151:
1478:Middlewares/Third_Party/FreeRTOS/Source/CMSIS_RTOS/cmsis_os.c **** 
ARM GAS  C:\Users\seblo\AppData\Local\Temp\ccJuvw9h.s 			page 91


1479:Middlewares/Third_Party/FreeRTOS/Source/CMSIS_RTOS/cmsis_os.c **** /**
1480:Middlewares/Third_Party/FreeRTOS/Source/CMSIS_RTOS/cmsis_os.c **** * @brief  Resume execution of a all suspended threads.
1481:Middlewares/Third_Party/FreeRTOS/Source/CMSIS_RTOS/cmsis_os.c **** * @retval  status code that indicates the execution status of the function.
1482:Middlewares/Third_Party/FreeRTOS/Source/CMSIS_RTOS/cmsis_os.c **** */
1483:Middlewares/Third_Party/FreeRTOS/Source/CMSIS_RTOS/cmsis_os.c **** osStatus osThreadResumeAll (void)
1484:Middlewares/Third_Party/FreeRTOS/Source/CMSIS_RTOS/cmsis_os.c **** {
 3146              		.loc 1 1484 1 is_stmt 1 view -0
 3147              		.cfi_startproc
 3148              		@ args = 0, pretend = 0, frame = 0
 3149              		@ frame_needed = 0, uses_anonymous_args = 0
 3150 0000 08B5     		push	{r3, lr}
 3151              	.LCFI77:
 3152              		.cfi_def_cfa_offset 8
 3153              		.cfi_offset 3, -8
 3154              		.cfi_offset 14, -4
1485:Middlewares/Third_Party/FreeRTOS/Source/CMSIS_RTOS/cmsis_os.c ****   if (xTaskResumeAll() == pdTRUE)
 3155              		.loc 1 1485 3 view .LVU790
 3156              		.loc 1 1485 7 is_stmt 0 view .LVU791
 3157 0002 FFF7FEFF 		bl	xTaskResumeAll
 3158              	.LVL245:
 3159              		.loc 1 1485 6 view .LVU792
 3160 0006 0128     		cmp	r0, #1
 3161 0008 01D0     		beq	.L231
1486:Middlewares/Third_Party/FreeRTOS/Source/CMSIS_RTOS/cmsis_os.c ****     return osOK;
1487:Middlewares/Third_Party/FreeRTOS/Source/CMSIS_RTOS/cmsis_os.c ****   else
1488:Middlewares/Third_Party/FreeRTOS/Source/CMSIS_RTOS/cmsis_os.c ****     return osErrorOS;
 3162              		.loc 1 1488 12 view .LVU793
 3163 000a FF20     		movs	r0, #255
 3164              	.L227:
1489:Middlewares/Third_Party/FreeRTOS/Source/CMSIS_RTOS/cmsis_os.c ****   
1490:Middlewares/Third_Party/FreeRTOS/Source/CMSIS_RTOS/cmsis_os.c **** }
 3165              		.loc 1 1490 1 view .LVU794
 3166 000c 08BD     		pop	{r3, pc}
 3167              	.L231:
1486:Middlewares/Third_Party/FreeRTOS/Source/CMSIS_RTOS/cmsis_os.c ****     return osOK;
 3168              		.loc 1 1486 12 view .LVU795
 3169 000e 0020     		movs	r0, #0
 3170 0010 FCE7     		b	.L227
 3171              		.cfi_endproc
 3172              	.LFE151:
 3174              		.section	.text.osDelayUntil,"ax",%progbits
 3175              		.align	1
 3176              		.global	osDelayUntil
 3177              		.syntax unified
 3178              		.thumb
 3179              		.thumb_func
 3180              		.fpu fpv5-sp-d16
 3182              	osDelayUntil:
 3183              	.LVL246:
 3184              	.LFB152:
1491:Middlewares/Third_Party/FreeRTOS/Source/CMSIS_RTOS/cmsis_os.c **** 
1492:Middlewares/Third_Party/FreeRTOS/Source/CMSIS_RTOS/cmsis_os.c **** /**
1493:Middlewares/Third_Party/FreeRTOS/Source/CMSIS_RTOS/cmsis_os.c **** * @brief  Delay a task until a specified time
1494:Middlewares/Third_Party/FreeRTOS/Source/CMSIS_RTOS/cmsis_os.c **** * @param   PreviousWakeTime   Pointer to a variable that holds the time at which the 
1495:Middlewares/Third_Party/FreeRTOS/Source/CMSIS_RTOS/cmsis_os.c **** *          task was last unblocked. PreviousWakeTime must be initialised with the current time
1496:Middlewares/Third_Party/FreeRTOS/Source/CMSIS_RTOS/cmsis_os.c **** *          prior to its first use (PreviousWakeTime = osKernelSysTick() )
1497:Middlewares/Third_Party/FreeRTOS/Source/CMSIS_RTOS/cmsis_os.c **** * @param   millisec    time delay value
ARM GAS  C:\Users\seblo\AppData\Local\Temp\ccJuvw9h.s 			page 92


1498:Middlewares/Third_Party/FreeRTOS/Source/CMSIS_RTOS/cmsis_os.c **** * @retval  status code that indicates the execution status of the function.
1499:Middlewares/Third_Party/FreeRTOS/Source/CMSIS_RTOS/cmsis_os.c **** */
1500:Middlewares/Third_Party/FreeRTOS/Source/CMSIS_RTOS/cmsis_os.c **** osStatus osDelayUntil (uint32_t *PreviousWakeTime, uint32_t millisec)
1501:Middlewares/Third_Party/FreeRTOS/Source/CMSIS_RTOS/cmsis_os.c **** {
 3185              		.loc 1 1501 1 is_stmt 1 view -0
 3186              		.cfi_startproc
 3187              		@ args = 0, pretend = 0, frame = 0
 3188              		@ frame_needed = 0, uses_anonymous_args = 0
 3189              		@ link register save eliminated.
1502:Middlewares/Third_Party/FreeRTOS/Source/CMSIS_RTOS/cmsis_os.c **** #if INCLUDE_vTaskDelayUntil
1503:Middlewares/Third_Party/FreeRTOS/Source/CMSIS_RTOS/cmsis_os.c ****   TickType_t ticks = (millisec / portTICK_PERIOD_MS);
1504:Middlewares/Third_Party/FreeRTOS/Source/CMSIS_RTOS/cmsis_os.c ****   vTaskDelayUntil((TickType_t *) PreviousWakeTime, ticks ? ticks : 1);
1505:Middlewares/Third_Party/FreeRTOS/Source/CMSIS_RTOS/cmsis_os.c ****   
1506:Middlewares/Third_Party/FreeRTOS/Source/CMSIS_RTOS/cmsis_os.c ****   return osOK;
1507:Middlewares/Third_Party/FreeRTOS/Source/CMSIS_RTOS/cmsis_os.c **** #else
1508:Middlewares/Third_Party/FreeRTOS/Source/CMSIS_RTOS/cmsis_os.c ****   (void) millisec;
 3190              		.loc 1 1508 3 view .LVU797
1509:Middlewares/Third_Party/FreeRTOS/Source/CMSIS_RTOS/cmsis_os.c ****   (void) PreviousWakeTime;
 3191              		.loc 1 1509 3 view .LVU798
1510:Middlewares/Third_Party/FreeRTOS/Source/CMSIS_RTOS/cmsis_os.c ****   
1511:Middlewares/Third_Party/FreeRTOS/Source/CMSIS_RTOS/cmsis_os.c ****   return osErrorResource;
 3192              		.loc 1 1511 3 view .LVU799
1512:Middlewares/Third_Party/FreeRTOS/Source/CMSIS_RTOS/cmsis_os.c **** #endif
1513:Middlewares/Third_Party/FreeRTOS/Source/CMSIS_RTOS/cmsis_os.c **** }
 3193              		.loc 1 1513 1 is_stmt 0 view .LVU800
 3194 0000 8120     		movs	r0, #129
 3195              	.LVL247:
 3196              		.loc 1 1513 1 view .LVU801
 3197 0002 7047     		bx	lr
 3198              		.cfi_endproc
 3199              	.LFE152:
 3201              		.section	.text.osAbortDelay,"ax",%progbits
 3202              		.align	1
 3203              		.global	osAbortDelay
 3204              		.syntax unified
 3205              		.thumb
 3206              		.thumb_func
 3207              		.fpu fpv5-sp-d16
 3209              	osAbortDelay:
 3210              	.LVL248:
 3211              	.LFB153:
1514:Middlewares/Third_Party/FreeRTOS/Source/CMSIS_RTOS/cmsis_os.c **** 
1515:Middlewares/Third_Party/FreeRTOS/Source/CMSIS_RTOS/cmsis_os.c **** /**
1516:Middlewares/Third_Party/FreeRTOS/Source/CMSIS_RTOS/cmsis_os.c **** * @brief   Abort the delay for a specific thread
1517:Middlewares/Third_Party/FreeRTOS/Source/CMSIS_RTOS/cmsis_os.c **** * @param   thread_id   thread ID obtained by \ref osThreadCreate or \ref osThreadGetId   
1518:Middlewares/Third_Party/FreeRTOS/Source/CMSIS_RTOS/cmsis_os.c **** * @retval  status code that indicates the execution status of the function.
1519:Middlewares/Third_Party/FreeRTOS/Source/CMSIS_RTOS/cmsis_os.c **** */
1520:Middlewares/Third_Party/FreeRTOS/Source/CMSIS_RTOS/cmsis_os.c **** osStatus osAbortDelay(osThreadId thread_id)
1521:Middlewares/Third_Party/FreeRTOS/Source/CMSIS_RTOS/cmsis_os.c **** {
 3212              		.loc 1 1521 1 is_stmt 1 view -0
 3213              		.cfi_startproc
 3214              		@ args = 0, pretend = 0, frame = 0
 3215              		@ frame_needed = 0, uses_anonymous_args = 0
 3216              		@ link register save eliminated.
1522:Middlewares/Third_Party/FreeRTOS/Source/CMSIS_RTOS/cmsis_os.c **** #if INCLUDE_xTaskAbortDelay
1523:Middlewares/Third_Party/FreeRTOS/Source/CMSIS_RTOS/cmsis_os.c ****   
1524:Middlewares/Third_Party/FreeRTOS/Source/CMSIS_RTOS/cmsis_os.c ****   xTaskAbortDelay(thread_id);
ARM GAS  C:\Users\seblo\AppData\Local\Temp\ccJuvw9h.s 			page 93


1525:Middlewares/Third_Party/FreeRTOS/Source/CMSIS_RTOS/cmsis_os.c ****   
1526:Middlewares/Third_Party/FreeRTOS/Source/CMSIS_RTOS/cmsis_os.c ****   return osOK;
1527:Middlewares/Third_Party/FreeRTOS/Source/CMSIS_RTOS/cmsis_os.c **** #else
1528:Middlewares/Third_Party/FreeRTOS/Source/CMSIS_RTOS/cmsis_os.c ****   (void) thread_id;
 3217              		.loc 1 1528 3 view .LVU803
1529:Middlewares/Third_Party/FreeRTOS/Source/CMSIS_RTOS/cmsis_os.c ****   
1530:Middlewares/Third_Party/FreeRTOS/Source/CMSIS_RTOS/cmsis_os.c ****   return osErrorResource;
 3218              		.loc 1 1530 3 view .LVU804
1531:Middlewares/Third_Party/FreeRTOS/Source/CMSIS_RTOS/cmsis_os.c **** #endif
1532:Middlewares/Third_Party/FreeRTOS/Source/CMSIS_RTOS/cmsis_os.c **** }
 3219              		.loc 1 1532 1 is_stmt 0 view .LVU805
 3220 0000 8120     		movs	r0, #129
 3221              	.LVL249:
 3222              		.loc 1 1532 1 view .LVU806
 3223 0002 7047     		bx	lr
 3224              		.cfi_endproc
 3225              	.LFE153:
 3227              		.section	.text.osThreadList,"ax",%progbits
 3228              		.align	1
 3229              		.global	osThreadList
 3230              		.syntax unified
 3231              		.thumb
 3232              		.thumb_func
 3233              		.fpu fpv5-sp-d16
 3235              	osThreadList:
 3236              	.LVL250:
 3237              	.LFB154:
1533:Middlewares/Third_Party/FreeRTOS/Source/CMSIS_RTOS/cmsis_os.c **** 
1534:Middlewares/Third_Party/FreeRTOS/Source/CMSIS_RTOS/cmsis_os.c **** /**
1535:Middlewares/Third_Party/FreeRTOS/Source/CMSIS_RTOS/cmsis_os.c **** * @brief   Lists all the current threads, along with their current state 
1536:Middlewares/Third_Party/FreeRTOS/Source/CMSIS_RTOS/cmsis_os.c **** *          and stack usage high water mark.
1537:Middlewares/Third_Party/FreeRTOS/Source/CMSIS_RTOS/cmsis_os.c **** * @param   buffer   A buffer into which the above mentioned details
1538:Middlewares/Third_Party/FreeRTOS/Source/CMSIS_RTOS/cmsis_os.c **** *          will be written
1539:Middlewares/Third_Party/FreeRTOS/Source/CMSIS_RTOS/cmsis_os.c **** * @retval  status code that indicates the execution status of the function.
1540:Middlewares/Third_Party/FreeRTOS/Source/CMSIS_RTOS/cmsis_os.c **** */
1541:Middlewares/Third_Party/FreeRTOS/Source/CMSIS_RTOS/cmsis_os.c **** osStatus osThreadList (uint8_t *buffer)
1542:Middlewares/Third_Party/FreeRTOS/Source/CMSIS_RTOS/cmsis_os.c **** {
 3238              		.loc 1 1542 1 is_stmt 1 view -0
 3239              		.cfi_startproc
 3240              		@ args = 0, pretend = 0, frame = 0
 3241              		@ frame_needed = 0, uses_anonymous_args = 0
 3242              		@ link register save eliminated.
1543:Middlewares/Third_Party/FreeRTOS/Source/CMSIS_RTOS/cmsis_os.c **** #if ( ( configUSE_TRACE_FACILITY == 1 ) && ( configUSE_STATS_FORMATTING_FUNCTIONS == 1 ) )
1544:Middlewares/Third_Party/FreeRTOS/Source/CMSIS_RTOS/cmsis_os.c ****   vTaskList((char *)buffer);
1545:Middlewares/Third_Party/FreeRTOS/Source/CMSIS_RTOS/cmsis_os.c **** #endif
1546:Middlewares/Third_Party/FreeRTOS/Source/CMSIS_RTOS/cmsis_os.c ****   return osOK;
 3243              		.loc 1 1546 3 view .LVU808
1547:Middlewares/Third_Party/FreeRTOS/Source/CMSIS_RTOS/cmsis_os.c **** }
 3244              		.loc 1 1547 1 is_stmt 0 view .LVU809
 3245 0000 0020     		movs	r0, #0
 3246              	.LVL251:
 3247              		.loc 1 1547 1 view .LVU810
 3248 0002 7047     		bx	lr
 3249              		.cfi_endproc
 3250              	.LFE154:
 3252              		.section	.text.osMessagePeek,"ax",%progbits
 3253              		.align	1
ARM GAS  C:\Users\seblo\AppData\Local\Temp\ccJuvw9h.s 			page 94


 3254              		.global	osMessagePeek
 3255              		.syntax unified
 3256              		.thumb
 3257              		.thumb_func
 3258              		.fpu fpv5-sp-d16
 3260              	osMessagePeek:
 3261              	.LVL252:
 3262              	.LFB155:
1548:Middlewares/Third_Party/FreeRTOS/Source/CMSIS_RTOS/cmsis_os.c **** 
1549:Middlewares/Third_Party/FreeRTOS/Source/CMSIS_RTOS/cmsis_os.c **** /**
1550:Middlewares/Third_Party/FreeRTOS/Source/CMSIS_RTOS/cmsis_os.c **** * @brief  Receive an item from a queue without removing the item from the queue.
1551:Middlewares/Third_Party/FreeRTOS/Source/CMSIS_RTOS/cmsis_os.c **** * @param  queue_id  message queue ID obtained with \ref osMessageCreate.
1552:Middlewares/Third_Party/FreeRTOS/Source/CMSIS_RTOS/cmsis_os.c **** * @param  millisec  timeout value or 0 in case of no time-out.
1553:Middlewares/Third_Party/FreeRTOS/Source/CMSIS_RTOS/cmsis_os.c **** * @retval event information that includes status code.
1554:Middlewares/Third_Party/FreeRTOS/Source/CMSIS_RTOS/cmsis_os.c **** */
1555:Middlewares/Third_Party/FreeRTOS/Source/CMSIS_RTOS/cmsis_os.c **** osEvent osMessagePeek (osMessageQId queue_id, uint32_t millisec)
1556:Middlewares/Third_Party/FreeRTOS/Source/CMSIS_RTOS/cmsis_os.c **** {
 3263              		.loc 1 1556 1 is_stmt 1 view -0
 3264              		.cfi_startproc
 3265              		@ args = 0, pretend = 0, frame = 16
 3266              		@ frame_needed = 0, uses_anonymous_args = 0
 3267              		.loc 1 1556 1 is_stmt 0 view .LVU812
 3268 0000 30B5     		push	{r4, r5, lr}
 3269              	.LCFI78:
 3270              		.cfi_def_cfa_offset 12
 3271              		.cfi_offset 4, -12
 3272              		.cfi_offset 5, -8
 3273              		.cfi_offset 14, -4
 3274 0002 85B0     		sub	sp, sp, #20
 3275              	.LCFI79:
 3276              		.cfi_def_cfa_offset 32
 3277 0004 0446     		mov	r4, r0
1557:Middlewares/Third_Party/FreeRTOS/Source/CMSIS_RTOS/cmsis_os.c ****   TickType_t ticks;
 3278              		.loc 1 1557 3 is_stmt 1 view .LVU813
1558:Middlewares/Third_Party/FreeRTOS/Source/CMSIS_RTOS/cmsis_os.c ****   osEvent event;
 3279              		.loc 1 1558 3 view .LVU814
1559:Middlewares/Third_Party/FreeRTOS/Source/CMSIS_RTOS/cmsis_os.c ****   
1560:Middlewares/Third_Party/FreeRTOS/Source/CMSIS_RTOS/cmsis_os.c ****   event.def.message_id = queue_id;
 3280              		.loc 1 1560 3 view .LVU815
 3281              		.loc 1 1560 24 is_stmt 0 view .LVU816
 3282 0006 0391     		str	r1, [sp, #12]
1561:Middlewares/Third_Party/FreeRTOS/Source/CMSIS_RTOS/cmsis_os.c ****   
1562:Middlewares/Third_Party/FreeRTOS/Source/CMSIS_RTOS/cmsis_os.c ****   if (queue_id == NULL) {
 3283              		.loc 1 1562 3 is_stmt 1 view .LVU817
 3284              		.loc 1 1562 6 is_stmt 0 view .LVU818
 3285 0008 89B1     		cbz	r1, .L243
 3286 000a 0846     		mov	r0, r1
 3287              	.LVL253:
 3288              		.loc 1 1562 6 view .LVU819
 3289 000c 1546     		mov	r5, r2
1563:Middlewares/Third_Party/FreeRTOS/Source/CMSIS_RTOS/cmsis_os.c ****     event.status = osErrorParameter;
1564:Middlewares/Third_Party/FreeRTOS/Source/CMSIS_RTOS/cmsis_os.c ****     return event;
1565:Middlewares/Third_Party/FreeRTOS/Source/CMSIS_RTOS/cmsis_os.c ****   }
1566:Middlewares/Third_Party/FreeRTOS/Source/CMSIS_RTOS/cmsis_os.c ****   
1567:Middlewares/Third_Party/FreeRTOS/Source/CMSIS_RTOS/cmsis_os.c ****   ticks = 0;
 3290              		.loc 1 1567 3 is_stmt 1 view .LVU820
 3291              	.LVL254:
ARM GAS  C:\Users\seblo\AppData\Local\Temp\ccJuvw9h.s 			page 95


1568:Middlewares/Third_Party/FreeRTOS/Source/CMSIS_RTOS/cmsis_os.c ****   if (millisec == osWaitForever) {
 3292              		.loc 1 1568 3 view .LVU821
1569:Middlewares/Third_Party/FreeRTOS/Source/CMSIS_RTOS/cmsis_os.c ****     ticks = portMAX_DELAY;
1570:Middlewares/Third_Party/FreeRTOS/Source/CMSIS_RTOS/cmsis_os.c ****   }
1571:Middlewares/Third_Party/FreeRTOS/Source/CMSIS_RTOS/cmsis_os.c ****   else if (millisec != 0) {
1572:Middlewares/Third_Party/FreeRTOS/Source/CMSIS_RTOS/cmsis_os.c ****     ticks = millisec / portTICK_PERIOD_MS;
1573:Middlewares/Third_Party/FreeRTOS/Source/CMSIS_RTOS/cmsis_os.c ****     if (ticks == 0) {
1574:Middlewares/Third_Party/FreeRTOS/Source/CMSIS_RTOS/cmsis_os.c ****       ticks = 1;
1575:Middlewares/Third_Party/FreeRTOS/Source/CMSIS_RTOS/cmsis_os.c ****     }
1576:Middlewares/Third_Party/FreeRTOS/Source/CMSIS_RTOS/cmsis_os.c ****   }
1577:Middlewares/Third_Party/FreeRTOS/Source/CMSIS_RTOS/cmsis_os.c ****   
1578:Middlewares/Third_Party/FreeRTOS/Source/CMSIS_RTOS/cmsis_os.c ****   if (xQueuePeek(queue_id, &event.value.v, ticks) == pdTRUE) 
 3293              		.loc 1 1578 3 view .LVU822
 3294              		.loc 1 1578 7 is_stmt 0 view .LVU823
 3295 000e 02A9     		add	r1, sp, #8
 3296              	.LVL255:
 3297              		.loc 1 1578 7 view .LVU824
 3298 0010 FFF7FEFF 		bl	xQueuePeek
 3299              	.LVL256:
 3300              		.loc 1 1578 6 view .LVU825
 3301 0014 0128     		cmp	r0, #1
 3302 0016 12D0     		beq	.L244
1579:Middlewares/Third_Party/FreeRTOS/Source/CMSIS_RTOS/cmsis_os.c ****   {
1580:Middlewares/Third_Party/FreeRTOS/Source/CMSIS_RTOS/cmsis_os.c ****     /* We have mail */
1581:Middlewares/Third_Party/FreeRTOS/Source/CMSIS_RTOS/cmsis_os.c ****     event.status = osEventMessage;
1582:Middlewares/Third_Party/FreeRTOS/Source/CMSIS_RTOS/cmsis_os.c ****   }
1583:Middlewares/Third_Party/FreeRTOS/Source/CMSIS_RTOS/cmsis_os.c ****   else 
1584:Middlewares/Third_Party/FreeRTOS/Source/CMSIS_RTOS/cmsis_os.c ****   {
1585:Middlewares/Third_Party/FreeRTOS/Source/CMSIS_RTOS/cmsis_os.c ****     event.status = (ticks == 0) ? osOK : osEventTimeout;
 3303              		.loc 1 1585 5 is_stmt 1 view .LVU826
 3304              		.loc 1 1585 40 is_stmt 0 view .LVU827
 3305 0018 05B1     		cbz	r5, .L240
 3306 001a 4025     		movs	r5, #64
 3307              	.LVL257:
 3308              	.L240:
 3309              		.loc 1 1585 18 discriminator 4 view .LVU828
 3310 001c 0195     		str	r5, [sp, #4]
 3311              	.L239:
1586:Middlewares/Third_Party/FreeRTOS/Source/CMSIS_RTOS/cmsis_os.c ****   }
1587:Middlewares/Third_Party/FreeRTOS/Source/CMSIS_RTOS/cmsis_os.c ****   
1588:Middlewares/Third_Party/FreeRTOS/Source/CMSIS_RTOS/cmsis_os.c ****   return event;
 3312              		.loc 1 1588 3 is_stmt 1 view .LVU829
 3313              		.loc 1 1588 10 is_stmt 0 view .LVU830
 3314 001e 04AB     		add	r3, sp, #16
 3315 0020 13E90700 		ldmdb	r3, {r0, r1, r2}
 3316 0024 84E80700 		stm	r4, {r0, r1, r2}
 3317              	.LVL258:
 3318              	.L235:
1589:Middlewares/Third_Party/FreeRTOS/Source/CMSIS_RTOS/cmsis_os.c **** }
 3319              		.loc 1 1589 1 view .LVU831
 3320 0028 2046     		mov	r0, r4
 3321 002a 05B0     		add	sp, sp, #20
 3322              	.LCFI80:
 3323              		.cfi_remember_state
 3324              		.cfi_def_cfa_offset 12
 3325              		@ sp needed
 3326 002c 30BD     		pop	{r4, r5, pc}
ARM GAS  C:\Users\seblo\AppData\Local\Temp\ccJuvw9h.s 			page 96


 3327              	.LVL259:
 3328              	.L243:
 3329              	.LCFI81:
 3330              		.cfi_restore_state
1563:Middlewares/Third_Party/FreeRTOS/Source/CMSIS_RTOS/cmsis_os.c ****     return event;
 3331              		.loc 1 1563 5 is_stmt 1 view .LVU832
1563:Middlewares/Third_Party/FreeRTOS/Source/CMSIS_RTOS/cmsis_os.c ****     return event;
 3332              		.loc 1 1563 18 is_stmt 0 view .LVU833
 3333 002e 8023     		movs	r3, #128
 3334 0030 0193     		str	r3, [sp, #4]
1564:Middlewares/Third_Party/FreeRTOS/Source/CMSIS_RTOS/cmsis_os.c ****   }
 3335              		.loc 1 1564 5 is_stmt 1 view .LVU834
1564:Middlewares/Third_Party/FreeRTOS/Source/CMSIS_RTOS/cmsis_os.c ****   }
 3336              		.loc 1 1564 12 is_stmt 0 view .LVU835
 3337 0032 04AB     		add	r3, sp, #16
 3338 0034 13E90700 		ldmdb	r3, {r0, r1, r2}
 3339              	.LVL260:
1564:Middlewares/Third_Party/FreeRTOS/Source/CMSIS_RTOS/cmsis_os.c ****   }
 3340              		.loc 1 1564 12 view .LVU836
 3341 0038 84E80700 		stm	r4, {r0, r1, r2}
 3342 003c F4E7     		b	.L235
 3343              	.LVL261:
 3344              	.L244:
1581:Middlewares/Third_Party/FreeRTOS/Source/CMSIS_RTOS/cmsis_os.c ****   }
 3345              		.loc 1 1581 5 is_stmt 1 view .LVU837
1581:Middlewares/Third_Party/FreeRTOS/Source/CMSIS_RTOS/cmsis_os.c ****   }
 3346              		.loc 1 1581 18 is_stmt 0 view .LVU838
 3347 003e 1023     		movs	r3, #16
 3348 0040 0193     		str	r3, [sp, #4]
 3349 0042 ECE7     		b	.L239
 3350              		.cfi_endproc
 3351              	.LFE155:
 3353              		.section	.text.osMessageWaiting,"ax",%progbits
 3354              		.align	1
 3355              		.global	osMessageWaiting
 3356              		.syntax unified
 3357              		.thumb
 3358              		.thumb_func
 3359              		.fpu fpv5-sp-d16
 3361              	osMessageWaiting:
 3362              	.LVL262:
 3363              	.LFB156:
1590:Middlewares/Third_Party/FreeRTOS/Source/CMSIS_RTOS/cmsis_os.c **** 
1591:Middlewares/Third_Party/FreeRTOS/Source/CMSIS_RTOS/cmsis_os.c **** /**
1592:Middlewares/Third_Party/FreeRTOS/Source/CMSIS_RTOS/cmsis_os.c **** * @brief  Get the number of messaged stored in a queue.
1593:Middlewares/Third_Party/FreeRTOS/Source/CMSIS_RTOS/cmsis_os.c **** * @param  queue_id  message queue ID obtained with \ref osMessageCreate.
1594:Middlewares/Third_Party/FreeRTOS/Source/CMSIS_RTOS/cmsis_os.c **** * @retval number of messages stored in a queue.
1595:Middlewares/Third_Party/FreeRTOS/Source/CMSIS_RTOS/cmsis_os.c **** */
1596:Middlewares/Third_Party/FreeRTOS/Source/CMSIS_RTOS/cmsis_os.c **** uint32_t osMessageWaiting(osMessageQId queue_id)
1597:Middlewares/Third_Party/FreeRTOS/Source/CMSIS_RTOS/cmsis_os.c **** {
 3364              		.loc 1 1597 1 is_stmt 1 view -0
 3365              		.cfi_startproc
 3366              		@ args = 0, pretend = 0, frame = 0
 3367              		@ frame_needed = 0, uses_anonymous_args = 0
 3368              		.loc 1 1597 1 is_stmt 0 view .LVU840
 3369 0000 10B5     		push	{r4, lr}
 3370              	.LCFI82:
ARM GAS  C:\Users\seblo\AppData\Local\Temp\ccJuvw9h.s 			page 97


 3371              		.cfi_def_cfa_offset 8
 3372              		.cfi_offset 4, -8
 3373              		.cfi_offset 14, -4
 3374 0002 0446     		mov	r4, r0
1598:Middlewares/Third_Party/FreeRTOS/Source/CMSIS_RTOS/cmsis_os.c ****   if (inHandlerMode()) {
 3375              		.loc 1 1598 3 is_stmt 1 view .LVU841
 3376              		.loc 1 1598 7 is_stmt 0 view .LVU842
 3377 0004 FFF7FEFF 		bl	inHandlerMode
 3378              	.LVL263:
 3379              		.loc 1 1598 6 view .LVU843
 3380 0008 18B1     		cbz	r0, .L246
1599:Middlewares/Third_Party/FreeRTOS/Source/CMSIS_RTOS/cmsis_os.c ****     return uxQueueMessagesWaitingFromISR(queue_id);
 3381              		.loc 1 1599 5 is_stmt 1 view .LVU844
 3382              		.loc 1 1599 12 is_stmt 0 view .LVU845
 3383 000a 2046     		mov	r0, r4
 3384 000c FFF7FEFF 		bl	uxQueueMessagesWaitingFromISR
 3385              	.LVL264:
 3386              	.L245:
1600:Middlewares/Third_Party/FreeRTOS/Source/CMSIS_RTOS/cmsis_os.c ****   }
1601:Middlewares/Third_Party/FreeRTOS/Source/CMSIS_RTOS/cmsis_os.c ****   else
1602:Middlewares/Third_Party/FreeRTOS/Source/CMSIS_RTOS/cmsis_os.c ****   {
1603:Middlewares/Third_Party/FreeRTOS/Source/CMSIS_RTOS/cmsis_os.c ****     return uxQueueMessagesWaiting(queue_id);
1604:Middlewares/Third_Party/FreeRTOS/Source/CMSIS_RTOS/cmsis_os.c ****   }
1605:Middlewares/Third_Party/FreeRTOS/Source/CMSIS_RTOS/cmsis_os.c **** }
 3387              		.loc 1 1605 1 view .LVU846
 3388 0010 10BD     		pop	{r4, pc}
 3389              	.LVL265:
 3390              	.L246:
1603:Middlewares/Third_Party/FreeRTOS/Source/CMSIS_RTOS/cmsis_os.c ****   }
 3391              		.loc 1 1603 5 is_stmt 1 view .LVU847
1603:Middlewares/Third_Party/FreeRTOS/Source/CMSIS_RTOS/cmsis_os.c ****   }
 3392              		.loc 1 1603 12 is_stmt 0 view .LVU848
 3393 0012 2046     		mov	r0, r4
 3394 0014 FFF7FEFF 		bl	uxQueueMessagesWaiting
 3395              	.LVL266:
 3396 0018 FAE7     		b	.L245
 3397              		.cfi_endproc
 3398              	.LFE156:
 3400              		.section	.text.osMessageAvailableSpace,"ax",%progbits
 3401              		.align	1
 3402              		.global	osMessageAvailableSpace
 3403              		.syntax unified
 3404              		.thumb
 3405              		.thumb_func
 3406              		.fpu fpv5-sp-d16
 3408              	osMessageAvailableSpace:
 3409              	.LVL267:
 3410              	.LFB157:
1606:Middlewares/Third_Party/FreeRTOS/Source/CMSIS_RTOS/cmsis_os.c **** 
1607:Middlewares/Third_Party/FreeRTOS/Source/CMSIS_RTOS/cmsis_os.c **** /**
1608:Middlewares/Third_Party/FreeRTOS/Source/CMSIS_RTOS/cmsis_os.c **** * @brief  Get the available space in a message queue.
1609:Middlewares/Third_Party/FreeRTOS/Source/CMSIS_RTOS/cmsis_os.c **** * @param  queue_id  message queue ID obtained with \ref osMessageCreate.
1610:Middlewares/Third_Party/FreeRTOS/Source/CMSIS_RTOS/cmsis_os.c **** * @retval available space in a message queue.
1611:Middlewares/Third_Party/FreeRTOS/Source/CMSIS_RTOS/cmsis_os.c **** */
1612:Middlewares/Third_Party/FreeRTOS/Source/CMSIS_RTOS/cmsis_os.c **** uint32_t osMessageAvailableSpace(osMessageQId queue_id)  
1613:Middlewares/Third_Party/FreeRTOS/Source/CMSIS_RTOS/cmsis_os.c **** {
 3411              		.loc 1 1613 1 is_stmt 1 view -0
ARM GAS  C:\Users\seblo\AppData\Local\Temp\ccJuvw9h.s 			page 98


 3412              		.cfi_startproc
 3413              		@ args = 0, pretend = 0, frame = 0
 3414              		@ frame_needed = 0, uses_anonymous_args = 0
 3415              		.loc 1 1613 1 is_stmt 0 view .LVU850
 3416 0000 08B5     		push	{r3, lr}
 3417              	.LCFI83:
 3418              		.cfi_def_cfa_offset 8
 3419              		.cfi_offset 3, -8
 3420              		.cfi_offset 14, -4
1614:Middlewares/Third_Party/FreeRTOS/Source/CMSIS_RTOS/cmsis_os.c ****   return uxQueueSpacesAvailable(queue_id);
 3421              		.loc 1 1614 3 is_stmt 1 view .LVU851
 3422              		.loc 1 1614 10 is_stmt 0 view .LVU852
 3423 0002 FFF7FEFF 		bl	uxQueueSpacesAvailable
 3424              	.LVL268:
1615:Middlewares/Third_Party/FreeRTOS/Source/CMSIS_RTOS/cmsis_os.c **** }
 3425              		.loc 1 1615 1 view .LVU853
 3426 0006 08BD     		pop	{r3, pc}
 3427              		.cfi_endproc
 3428              	.LFE157:
 3430              		.section	.text.osMessageDelete,"ax",%progbits
 3431              		.align	1
 3432              		.global	osMessageDelete
 3433              		.syntax unified
 3434              		.thumb
 3435              		.thumb_func
 3436              		.fpu fpv5-sp-d16
 3438              	osMessageDelete:
 3439              	.LVL269:
 3440              	.LFB158:
1616:Middlewares/Third_Party/FreeRTOS/Source/CMSIS_RTOS/cmsis_os.c **** 
1617:Middlewares/Third_Party/FreeRTOS/Source/CMSIS_RTOS/cmsis_os.c **** /**
1618:Middlewares/Third_Party/FreeRTOS/Source/CMSIS_RTOS/cmsis_os.c **** * @brief Delete a Message Queue
1619:Middlewares/Third_Party/FreeRTOS/Source/CMSIS_RTOS/cmsis_os.c **** * @param  queue_id  message queue ID obtained with \ref osMessageCreate.
1620:Middlewares/Third_Party/FreeRTOS/Source/CMSIS_RTOS/cmsis_os.c **** * @retval  status code that indicates the execution status of the function.
1621:Middlewares/Third_Party/FreeRTOS/Source/CMSIS_RTOS/cmsis_os.c **** */
1622:Middlewares/Third_Party/FreeRTOS/Source/CMSIS_RTOS/cmsis_os.c **** osStatus osMessageDelete (osMessageQId queue_id)
1623:Middlewares/Third_Party/FreeRTOS/Source/CMSIS_RTOS/cmsis_os.c **** {
 3441              		.loc 1 1623 1 is_stmt 1 view -0
 3442              		.cfi_startproc
 3443              		@ args = 0, pretend = 0, frame = 0
 3444              		@ frame_needed = 0, uses_anonymous_args = 0
 3445              		.loc 1 1623 1 is_stmt 0 view .LVU855
 3446 0000 10B5     		push	{r4, lr}
 3447              	.LCFI84:
 3448              		.cfi_def_cfa_offset 8
 3449              		.cfi_offset 4, -8
 3450              		.cfi_offset 14, -4
 3451 0002 0446     		mov	r4, r0
1624:Middlewares/Third_Party/FreeRTOS/Source/CMSIS_RTOS/cmsis_os.c ****   if (inHandlerMode()) {
 3452              		.loc 1 1624 3 is_stmt 1 view .LVU856
 3453              		.loc 1 1624 7 is_stmt 0 view .LVU857
 3454 0004 FFF7FEFF 		bl	inHandlerMode
 3455              	.LVL270:
 3456              		.loc 1 1624 6 view .LVU858
 3457 0008 20B9     		cbnz	r0, .L253
1625:Middlewares/Third_Party/FreeRTOS/Source/CMSIS_RTOS/cmsis_os.c ****     return osErrorISR;
1626:Middlewares/Third_Party/FreeRTOS/Source/CMSIS_RTOS/cmsis_os.c ****   }
ARM GAS  C:\Users\seblo\AppData\Local\Temp\ccJuvw9h.s 			page 99


1627:Middlewares/Third_Party/FreeRTOS/Source/CMSIS_RTOS/cmsis_os.c **** 
1628:Middlewares/Third_Party/FreeRTOS/Source/CMSIS_RTOS/cmsis_os.c ****   vQueueDelete(queue_id);
 3458              		.loc 1 1628 3 is_stmt 1 view .LVU859
 3459 000a 2046     		mov	r0, r4
 3460 000c FFF7FEFF 		bl	vQueueDelete
 3461              	.LVL271:
1629:Middlewares/Third_Party/FreeRTOS/Source/CMSIS_RTOS/cmsis_os.c **** 
1630:Middlewares/Third_Party/FreeRTOS/Source/CMSIS_RTOS/cmsis_os.c ****   return osOK; 
 3462              		.loc 1 1630 3 view .LVU860
 3463              		.loc 1 1630 10 is_stmt 0 view .LVU861
 3464 0010 0020     		movs	r0, #0
 3465              	.L251:
1631:Middlewares/Third_Party/FreeRTOS/Source/CMSIS_RTOS/cmsis_os.c **** }
 3466              		.loc 1 1631 1 view .LVU862
 3467 0012 10BD     		pop	{r4, pc}
 3468              	.LVL272:
 3469              	.L253:
1625:Middlewares/Third_Party/FreeRTOS/Source/CMSIS_RTOS/cmsis_os.c ****     return osErrorISR;
 3470              		.loc 1 1625 12 view .LVU863
 3471 0014 8220     		movs	r0, #130
 3472 0016 FCE7     		b	.L251
 3473              		.cfi_endproc
 3474              	.LFE158:
 3476              		.section	.text.osRecursiveMutexCreate,"ax",%progbits
 3477              		.align	1
 3478              		.global	osRecursiveMutexCreate
 3479              		.syntax unified
 3480              		.thumb
 3481              		.thumb_func
 3482              		.fpu fpv5-sp-d16
 3484              	osRecursiveMutexCreate:
 3485              	.LVL273:
 3486              	.LFB159:
1632:Middlewares/Third_Party/FreeRTOS/Source/CMSIS_RTOS/cmsis_os.c **** 
1633:Middlewares/Third_Party/FreeRTOS/Source/CMSIS_RTOS/cmsis_os.c **** /**
1634:Middlewares/Third_Party/FreeRTOS/Source/CMSIS_RTOS/cmsis_os.c **** * @brief  Create and Initialize a Recursive Mutex
1635:Middlewares/Third_Party/FreeRTOS/Source/CMSIS_RTOS/cmsis_os.c **** * @param  mutex_def     mutex definition referenced with \ref osMutex.
1636:Middlewares/Third_Party/FreeRTOS/Source/CMSIS_RTOS/cmsis_os.c **** * @retval  mutex ID for reference by other functions or NULL in case of error..
1637:Middlewares/Third_Party/FreeRTOS/Source/CMSIS_RTOS/cmsis_os.c **** */
1638:Middlewares/Third_Party/FreeRTOS/Source/CMSIS_RTOS/cmsis_os.c **** osMutexId osRecursiveMutexCreate (const osMutexDef_t *mutex_def)
1639:Middlewares/Third_Party/FreeRTOS/Source/CMSIS_RTOS/cmsis_os.c **** {
 3487              		.loc 1 1639 1 is_stmt 1 view -0
 3488              		.cfi_startproc
 3489              		@ args = 0, pretend = 0, frame = 0
 3490              		@ frame_needed = 0, uses_anonymous_args = 0
 3491              		.loc 1 1639 1 is_stmt 0 view .LVU865
 3492 0000 08B5     		push	{r3, lr}
 3493              	.LCFI85:
 3494              		.cfi_def_cfa_offset 8
 3495              		.cfi_offset 3, -8
 3496              		.cfi_offset 14, -4
1640:Middlewares/Third_Party/FreeRTOS/Source/CMSIS_RTOS/cmsis_os.c **** #if (configUSE_RECURSIVE_MUTEXES == 1)
1641:Middlewares/Third_Party/FreeRTOS/Source/CMSIS_RTOS/cmsis_os.c **** #if( configSUPPORT_STATIC_ALLOCATION == 1 ) && ( configSUPPORT_DYNAMIC_ALLOCATION == 1 )
1642:Middlewares/Third_Party/FreeRTOS/Source/CMSIS_RTOS/cmsis_os.c **** 
1643:Middlewares/Third_Party/FreeRTOS/Source/CMSIS_RTOS/cmsis_os.c ****   if (mutex_def->controlblock != NULL){
 3497              		.loc 1 1643 3 is_stmt 1 view .LVU866
 3498              		.loc 1 1643 16 is_stmt 0 view .LVU867
ARM GAS  C:\Users\seblo\AppData\Local\Temp\ccJuvw9h.s 			page 100


 3499 0002 4168     		ldr	r1, [r0, #4]
 3500              		.loc 1 1643 6 view .LVU868
 3501 0004 19B1     		cbz	r1, .L256
1644:Middlewares/Third_Party/FreeRTOS/Source/CMSIS_RTOS/cmsis_os.c ****     return xSemaphoreCreateRecursiveMutexStatic( mutex_def->controlblock );
 3502              		.loc 1 1644 5 is_stmt 1 view .LVU869
 3503              		.loc 1 1644 12 is_stmt 0 view .LVU870
 3504 0006 0420     		movs	r0, #4
 3505              	.LVL274:
 3506              		.loc 1 1644 12 view .LVU871
 3507 0008 FFF7FEFF 		bl	xQueueCreateMutexStatic
 3508              	.LVL275:
 3509              	.L255:
1645:Middlewares/Third_Party/FreeRTOS/Source/CMSIS_RTOS/cmsis_os.c ****   }
1646:Middlewares/Third_Party/FreeRTOS/Source/CMSIS_RTOS/cmsis_os.c ****   else {
1647:Middlewares/Third_Party/FreeRTOS/Source/CMSIS_RTOS/cmsis_os.c ****     return xSemaphoreCreateRecursiveMutex();
1648:Middlewares/Third_Party/FreeRTOS/Source/CMSIS_RTOS/cmsis_os.c ****   }
1649:Middlewares/Third_Party/FreeRTOS/Source/CMSIS_RTOS/cmsis_os.c **** #elif ( configSUPPORT_STATIC_ALLOCATION == 1 )
1650:Middlewares/Third_Party/FreeRTOS/Source/CMSIS_RTOS/cmsis_os.c ****   return xSemaphoreCreateRecursiveMutexStatic( mutex_def->controlblock );
1651:Middlewares/Third_Party/FreeRTOS/Source/CMSIS_RTOS/cmsis_os.c **** #else 
1652:Middlewares/Third_Party/FreeRTOS/Source/CMSIS_RTOS/cmsis_os.c ****   return xSemaphoreCreateRecursiveMutex();
1653:Middlewares/Third_Party/FreeRTOS/Source/CMSIS_RTOS/cmsis_os.c **** #endif
1654:Middlewares/Third_Party/FreeRTOS/Source/CMSIS_RTOS/cmsis_os.c **** #else
1655:Middlewares/Third_Party/FreeRTOS/Source/CMSIS_RTOS/cmsis_os.c ****   return NULL;
1656:Middlewares/Third_Party/FreeRTOS/Source/CMSIS_RTOS/cmsis_os.c **** #endif	
1657:Middlewares/Third_Party/FreeRTOS/Source/CMSIS_RTOS/cmsis_os.c **** }
 3510              		.loc 1 1657 1 view .LVU872
 3511 000c 08BD     		pop	{r3, pc}
 3512              	.LVL276:
 3513              	.L256:
1647:Middlewares/Third_Party/FreeRTOS/Source/CMSIS_RTOS/cmsis_os.c ****   }
 3514              		.loc 1 1647 5 is_stmt 1 view .LVU873
1647:Middlewares/Third_Party/FreeRTOS/Source/CMSIS_RTOS/cmsis_os.c ****   }
 3515              		.loc 1 1647 12 is_stmt 0 view .LVU874
 3516 000e 0420     		movs	r0, #4
 3517              	.LVL277:
1647:Middlewares/Third_Party/FreeRTOS/Source/CMSIS_RTOS/cmsis_os.c ****   }
 3518              		.loc 1 1647 12 view .LVU875
 3519 0010 FFF7FEFF 		bl	xQueueCreateMutex
 3520              	.LVL278:
 3521 0014 FAE7     		b	.L255
 3522              		.cfi_endproc
 3523              	.LFE159:
 3525              		.section	.text.osRecursiveMutexRelease,"ax",%progbits
 3526              		.align	1
 3527              		.global	osRecursiveMutexRelease
 3528              		.syntax unified
 3529              		.thumb
 3530              		.thumb_func
 3531              		.fpu fpv5-sp-d16
 3533              	osRecursiveMutexRelease:
 3534              	.LVL279:
 3535              	.LFB160:
1658:Middlewares/Third_Party/FreeRTOS/Source/CMSIS_RTOS/cmsis_os.c **** 
1659:Middlewares/Third_Party/FreeRTOS/Source/CMSIS_RTOS/cmsis_os.c **** /**
1660:Middlewares/Third_Party/FreeRTOS/Source/CMSIS_RTOS/cmsis_os.c **** * @brief  Release a Recursive Mutex
1661:Middlewares/Third_Party/FreeRTOS/Source/CMSIS_RTOS/cmsis_os.c **** * @param   mutex_id      mutex ID obtained by \ref osRecursiveMutexCreate.
1662:Middlewares/Third_Party/FreeRTOS/Source/CMSIS_RTOS/cmsis_os.c **** * @retval  status code that indicates the execution status of the function.
ARM GAS  C:\Users\seblo\AppData\Local\Temp\ccJuvw9h.s 			page 101


1663:Middlewares/Third_Party/FreeRTOS/Source/CMSIS_RTOS/cmsis_os.c **** */
1664:Middlewares/Third_Party/FreeRTOS/Source/CMSIS_RTOS/cmsis_os.c **** osStatus osRecursiveMutexRelease (osMutexId mutex_id)
1665:Middlewares/Third_Party/FreeRTOS/Source/CMSIS_RTOS/cmsis_os.c **** {
 3536              		.loc 1 1665 1 is_stmt 1 view -0
 3537              		.cfi_startproc
 3538              		@ args = 0, pretend = 0, frame = 0
 3539              		@ frame_needed = 0, uses_anonymous_args = 0
 3540              		.loc 1 1665 1 is_stmt 0 view .LVU877
 3541 0000 08B5     		push	{r3, lr}
 3542              	.LCFI86:
 3543              		.cfi_def_cfa_offset 8
 3544              		.cfi_offset 3, -8
 3545              		.cfi_offset 14, -4
1666:Middlewares/Third_Party/FreeRTOS/Source/CMSIS_RTOS/cmsis_os.c **** #if (configUSE_RECURSIVE_MUTEXES == 1)
1667:Middlewares/Third_Party/FreeRTOS/Source/CMSIS_RTOS/cmsis_os.c ****   osStatus result = osOK;
 3546              		.loc 1 1667 3 is_stmt 1 view .LVU878
 3547              	.LVL280:
1668:Middlewares/Third_Party/FreeRTOS/Source/CMSIS_RTOS/cmsis_os.c ****  
1669:Middlewares/Third_Party/FreeRTOS/Source/CMSIS_RTOS/cmsis_os.c ****   if (xSemaphoreGiveRecursive(mutex_id) != pdTRUE) 
 3548              		.loc 1 1669 3 view .LVU879
 3549              		.loc 1 1669 7 is_stmt 0 view .LVU880
 3550 0002 FFF7FEFF 		bl	xQueueGiveMutexRecursive
 3551              	.LVL281:
 3552              		.loc 1 1669 6 view .LVU881
 3553 0006 0128     		cmp	r0, #1
 3554 0008 01D0     		beq	.L263
1670:Middlewares/Third_Party/FreeRTOS/Source/CMSIS_RTOS/cmsis_os.c ****   {
1671:Middlewares/Third_Party/FreeRTOS/Source/CMSIS_RTOS/cmsis_os.c ****     result = osErrorOS;
 3555              		.loc 1 1671 12 view .LVU882
 3556 000a FF20     		movs	r0, #255
 3557              	.LVL282:
1672:Middlewares/Third_Party/FreeRTOS/Source/CMSIS_RTOS/cmsis_os.c ****   }
1673:Middlewares/Third_Party/FreeRTOS/Source/CMSIS_RTOS/cmsis_os.c ****   return result;
 3558              		.loc 1 1673 3 is_stmt 1 view .LVU883
 3559              	.L259:
1674:Middlewares/Third_Party/FreeRTOS/Source/CMSIS_RTOS/cmsis_os.c **** #else
1675:Middlewares/Third_Party/FreeRTOS/Source/CMSIS_RTOS/cmsis_os.c **** 	return osErrorResource;
1676:Middlewares/Third_Party/FreeRTOS/Source/CMSIS_RTOS/cmsis_os.c **** #endif
1677:Middlewares/Third_Party/FreeRTOS/Source/CMSIS_RTOS/cmsis_os.c **** }
 3560              		.loc 1 1677 1 is_stmt 0 view .LVU884
 3561 000c 08BD     		pop	{r3, pc}
 3562              	.LVL283:
 3563              	.L263:
1667:Middlewares/Third_Party/FreeRTOS/Source/CMSIS_RTOS/cmsis_os.c ****  
 3564              		.loc 1 1667 12 view .LVU885
 3565 000e 0020     		movs	r0, #0
 3566 0010 FCE7     		b	.L259
 3567              		.cfi_endproc
 3568              	.LFE160:
 3570              		.section	.text.osRecursiveMutexWait,"ax",%progbits
 3571              		.align	1
 3572              		.global	osRecursiveMutexWait
 3573              		.syntax unified
 3574              		.thumb
 3575              		.thumb_func
 3576              		.fpu fpv5-sp-d16
 3578              	osRecursiveMutexWait:
ARM GAS  C:\Users\seblo\AppData\Local\Temp\ccJuvw9h.s 			page 102


 3579              	.LVL284:
 3580              	.LFB161:
1678:Middlewares/Third_Party/FreeRTOS/Source/CMSIS_RTOS/cmsis_os.c **** 
1679:Middlewares/Third_Party/FreeRTOS/Source/CMSIS_RTOS/cmsis_os.c **** /**
1680:Middlewares/Third_Party/FreeRTOS/Source/CMSIS_RTOS/cmsis_os.c **** * @brief  Release a Recursive Mutex
1681:Middlewares/Third_Party/FreeRTOS/Source/CMSIS_RTOS/cmsis_os.c **** * @param   mutex_id    mutex ID obtained by \ref osRecursiveMutexCreate.
1682:Middlewares/Third_Party/FreeRTOS/Source/CMSIS_RTOS/cmsis_os.c **** * @param millisec      timeout value or 0 in case of no time-out.
1683:Middlewares/Third_Party/FreeRTOS/Source/CMSIS_RTOS/cmsis_os.c **** * @retval  status code that indicates the execution status of the function.
1684:Middlewares/Third_Party/FreeRTOS/Source/CMSIS_RTOS/cmsis_os.c **** */
1685:Middlewares/Third_Party/FreeRTOS/Source/CMSIS_RTOS/cmsis_os.c **** osStatus osRecursiveMutexWait (osMutexId mutex_id, uint32_t millisec)
1686:Middlewares/Third_Party/FreeRTOS/Source/CMSIS_RTOS/cmsis_os.c **** {
 3581              		.loc 1 1686 1 is_stmt 1 view -0
 3582              		.cfi_startproc
 3583              		@ args = 0, pretend = 0, frame = 0
 3584              		@ frame_needed = 0, uses_anonymous_args = 0
1687:Middlewares/Third_Party/FreeRTOS/Source/CMSIS_RTOS/cmsis_os.c **** #if (configUSE_RECURSIVE_MUTEXES == 1)
1688:Middlewares/Third_Party/FreeRTOS/Source/CMSIS_RTOS/cmsis_os.c ****   TickType_t ticks;
 3585              		.loc 1 1688 3 view .LVU887
1689:Middlewares/Third_Party/FreeRTOS/Source/CMSIS_RTOS/cmsis_os.c ****   
1690:Middlewares/Third_Party/FreeRTOS/Source/CMSIS_RTOS/cmsis_os.c ****   if (mutex_id == NULL)
 3586              		.loc 1 1690 3 view .LVU888
 3587              		.loc 1 1690 6 is_stmt 0 view .LVU889
 3588 0000 30B1     		cbz	r0, .L266
1686:Middlewares/Third_Party/FreeRTOS/Source/CMSIS_RTOS/cmsis_os.c **** #if (configUSE_RECURSIVE_MUTEXES == 1)
 3589              		.loc 1 1686 1 view .LVU890
 3590 0002 08B5     		push	{r3, lr}
 3591              	.LCFI87:
 3592              		.cfi_def_cfa_offset 8
 3593              		.cfi_offset 3, -8
 3594              		.cfi_offset 14, -4
1691:Middlewares/Third_Party/FreeRTOS/Source/CMSIS_RTOS/cmsis_os.c ****   {
1692:Middlewares/Third_Party/FreeRTOS/Source/CMSIS_RTOS/cmsis_os.c ****     return osErrorParameter;
1693:Middlewares/Third_Party/FreeRTOS/Source/CMSIS_RTOS/cmsis_os.c ****   }
1694:Middlewares/Third_Party/FreeRTOS/Source/CMSIS_RTOS/cmsis_os.c ****   
1695:Middlewares/Third_Party/FreeRTOS/Source/CMSIS_RTOS/cmsis_os.c ****   ticks = 0;
 3595              		.loc 1 1695 3 is_stmt 1 view .LVU891
 3596              	.LVL285:
1696:Middlewares/Third_Party/FreeRTOS/Source/CMSIS_RTOS/cmsis_os.c ****   if (millisec == osWaitForever) 
 3597              		.loc 1 1696 3 view .LVU892
1697:Middlewares/Third_Party/FreeRTOS/Source/CMSIS_RTOS/cmsis_os.c ****   {
1698:Middlewares/Third_Party/FreeRTOS/Source/CMSIS_RTOS/cmsis_os.c ****     ticks = portMAX_DELAY;
1699:Middlewares/Third_Party/FreeRTOS/Source/CMSIS_RTOS/cmsis_os.c ****   }
1700:Middlewares/Third_Party/FreeRTOS/Source/CMSIS_RTOS/cmsis_os.c ****   else if (millisec != 0) 
1701:Middlewares/Third_Party/FreeRTOS/Source/CMSIS_RTOS/cmsis_os.c ****   {
1702:Middlewares/Third_Party/FreeRTOS/Source/CMSIS_RTOS/cmsis_os.c ****     ticks = millisec / portTICK_PERIOD_MS;
1703:Middlewares/Third_Party/FreeRTOS/Source/CMSIS_RTOS/cmsis_os.c ****     if (ticks == 0) 
1704:Middlewares/Third_Party/FreeRTOS/Source/CMSIS_RTOS/cmsis_os.c ****     {
1705:Middlewares/Third_Party/FreeRTOS/Source/CMSIS_RTOS/cmsis_os.c ****       ticks = 1;
1706:Middlewares/Third_Party/FreeRTOS/Source/CMSIS_RTOS/cmsis_os.c ****     }
1707:Middlewares/Third_Party/FreeRTOS/Source/CMSIS_RTOS/cmsis_os.c ****   }
1708:Middlewares/Third_Party/FreeRTOS/Source/CMSIS_RTOS/cmsis_os.c ****   
1709:Middlewares/Third_Party/FreeRTOS/Source/CMSIS_RTOS/cmsis_os.c ****   if (xSemaphoreTakeRecursive(mutex_id, ticks) != pdTRUE) 
 3598              		.loc 1 1709 3 view .LVU893
 3599              		.loc 1 1709 7 is_stmt 0 view .LVU894
 3600 0004 FFF7FEFF 		bl	xQueueTakeMutexRecursive
 3601              	.LVL286:
 3602              		.loc 1 1709 6 view .LVU895
ARM GAS  C:\Users\seblo\AppData\Local\Temp\ccJuvw9h.s 			page 103


 3603 0008 0128     		cmp	r0, #1
 3604 000a 03D1     		bne	.L267
1710:Middlewares/Third_Party/FreeRTOS/Source/CMSIS_RTOS/cmsis_os.c ****   {
1711:Middlewares/Third_Party/FreeRTOS/Source/CMSIS_RTOS/cmsis_os.c ****     return osErrorOS;
1712:Middlewares/Third_Party/FreeRTOS/Source/CMSIS_RTOS/cmsis_os.c ****   }
1713:Middlewares/Third_Party/FreeRTOS/Source/CMSIS_RTOS/cmsis_os.c ****   return osOK;
 3605              		.loc 1 1713 10 view .LVU896
 3606 000c 0020     		movs	r0, #0
 3607              	.L264:
1714:Middlewares/Third_Party/FreeRTOS/Source/CMSIS_RTOS/cmsis_os.c **** #else
1715:Middlewares/Third_Party/FreeRTOS/Source/CMSIS_RTOS/cmsis_os.c **** 	return osErrorResource;
1716:Middlewares/Third_Party/FreeRTOS/Source/CMSIS_RTOS/cmsis_os.c **** #endif
1717:Middlewares/Third_Party/FreeRTOS/Source/CMSIS_RTOS/cmsis_os.c **** }
 3608              		.loc 1 1717 1 view .LVU897
 3609 000e 08BD     		pop	{r3, pc}
 3610              	.LVL287:
 3611              	.L266:
 3612              	.LCFI88:
 3613              		.cfi_def_cfa_offset 0
 3614              		.cfi_restore 3
 3615              		.cfi_restore 14
1692:Middlewares/Third_Party/FreeRTOS/Source/CMSIS_RTOS/cmsis_os.c ****   }
 3616              		.loc 1 1692 12 view .LVU898
 3617 0010 8020     		movs	r0, #128
 3618              	.LVL288:
 3619              		.loc 1 1717 1 view .LVU899
 3620 0012 7047     		bx	lr
 3621              	.LVL289:
 3622              	.L267:
 3623              	.LCFI89:
 3624              		.cfi_def_cfa_offset 8
 3625              		.cfi_offset 3, -8
 3626              		.cfi_offset 14, -4
1711:Middlewares/Third_Party/FreeRTOS/Source/CMSIS_RTOS/cmsis_os.c ****   }
 3627              		.loc 1 1711 12 view .LVU900
 3628 0014 FF20     		movs	r0, #255
 3629 0016 FAE7     		b	.L264
 3630              		.cfi_endproc
 3631              	.LFE161:
 3633              		.section	.text.osSemaphoreGetCount,"ax",%progbits
 3634              		.align	1
 3635              		.global	osSemaphoreGetCount
 3636              		.syntax unified
 3637              		.thumb
 3638              		.thumb_func
 3639              		.fpu fpv5-sp-d16
 3641              	osSemaphoreGetCount:
 3642              	.LVL290:
 3643              	.LFB162:
1718:Middlewares/Third_Party/FreeRTOS/Source/CMSIS_RTOS/cmsis_os.c **** 
1719:Middlewares/Third_Party/FreeRTOS/Source/CMSIS_RTOS/cmsis_os.c **** /**
1720:Middlewares/Third_Party/FreeRTOS/Source/CMSIS_RTOS/cmsis_os.c **** * @brief  Returns the current count value of a counting semaphore
1721:Middlewares/Third_Party/FreeRTOS/Source/CMSIS_RTOS/cmsis_os.c **** * @param  semaphore_id  semaphore_id ID obtained by \ref osSemaphoreCreate.
1722:Middlewares/Third_Party/FreeRTOS/Source/CMSIS_RTOS/cmsis_os.c **** * @retval  count value
1723:Middlewares/Third_Party/FreeRTOS/Source/CMSIS_RTOS/cmsis_os.c **** */
1724:Middlewares/Third_Party/FreeRTOS/Source/CMSIS_RTOS/cmsis_os.c **** uint32_t osSemaphoreGetCount(osSemaphoreId semaphore_id)
1725:Middlewares/Third_Party/FreeRTOS/Source/CMSIS_RTOS/cmsis_os.c **** {
ARM GAS  C:\Users\seblo\AppData\Local\Temp\ccJuvw9h.s 			page 104


 3644              		.loc 1 1725 1 is_stmt 1 view -0
 3645              		.cfi_startproc
 3646              		@ args = 0, pretend = 0, frame = 0
 3647              		@ frame_needed = 0, uses_anonymous_args = 0
 3648              		.loc 1 1725 1 is_stmt 0 view .LVU902
 3649 0000 08B5     		push	{r3, lr}
 3650              	.LCFI90:
 3651              		.cfi_def_cfa_offset 8
 3652              		.cfi_offset 3, -8
 3653              		.cfi_offset 14, -4
1726:Middlewares/Third_Party/FreeRTOS/Source/CMSIS_RTOS/cmsis_os.c ****   return uxSemaphoreGetCount(semaphore_id);
 3654              		.loc 1 1726 3 is_stmt 1 view .LVU903
 3655              		.loc 1 1726 10 is_stmt 0 view .LVU904
 3656 0002 FFF7FEFF 		bl	uxQueueMessagesWaiting
 3657              	.LVL291:
1727:Middlewares/Third_Party/FreeRTOS/Source/CMSIS_RTOS/cmsis_os.c **** }
 3658              		.loc 1 1727 1 view .LVU905
 3659 0006 08BD     		pop	{r3, pc}
 3660              		.cfi_endproc
 3661              	.LFE162:
 3663              		.text
 3664              	.Letext0:
 3665              		.file 4 "c:\\program files (x86)\\gnu arm embedded toolchain\\10 2020-q4-major\\arm-none-eabi\\inc
 3666              		.file 5 "c:\\program files (x86)\\gnu arm embedded toolchain\\10 2020-q4-major\\arm-none-eabi\\inc
 3667              		.file 6 "Middlewares/Third_Party/FreeRTOS/Source/include/projdefs.h"
 3668              		.file 7 "Middlewares/Third_Party/FreeRTOS/Source/include/FreeRTOS.h"
 3669              		.file 8 "Middlewares/Third_Party/FreeRTOS/Source/include/task.h"
 3670              		.file 9 "Middlewares/Third_Party/FreeRTOS/Source/include/timers.h"
 3671              		.file 10 "Middlewares/Third_Party/FreeRTOS/Source/include/queue.h"
 3672              		.file 11 "Middlewares/Third_Party/FreeRTOS/Source/include/semphr.h"
 3673              		.file 12 "Middlewares/Third_Party/FreeRTOS/Source/CMSIS_RTOS/cmsis_os.h"
 3674              		.file 13 "Middlewares/Third_Party/FreeRTOS/Source/include/portable.h"
ARM GAS  C:\Users\seblo\AppData\Local\Temp\ccJuvw9h.s 			page 105


DEFINED SYMBOLS
                            *ABS*:00000000 cmsis_os.c
C:\Users\seblo\AppData\Local\Temp\ccJuvw9h.s:18     .text.makeFreeRtosPriority:00000000 $t
C:\Users\seblo\AppData\Local\Temp\ccJuvw9h.s:25     .text.makeFreeRtosPriority:00000000 makeFreeRtosPriority
C:\Users\seblo\AppData\Local\Temp\ccJuvw9h.s:57     .text.makeCmsisPriority:00000000 $t
C:\Users\seblo\AppData\Local\Temp\ccJuvw9h.s:63     .text.makeCmsisPriority:00000000 makeCmsisPriority
C:\Users\seblo\AppData\Local\Temp\ccJuvw9h.s:97     .text.inHandlerMode:00000000 $t
C:\Users\seblo\AppData\Local\Temp\ccJuvw9h.s:103    .text.inHandlerMode:00000000 inHandlerMode
C:\Users\seblo\AppData\Local\Temp\ccJuvw9h.s:138    .text.osKernelStart:00000000 $t
C:\Users\seblo\AppData\Local\Temp\ccJuvw9h.s:145    .text.osKernelStart:00000000 osKernelStart
C:\Users\seblo\AppData\Local\Temp\ccJuvw9h.s:167    .text.osKernelRunning:00000000 $t
C:\Users\seblo\AppData\Local\Temp\ccJuvw9h.s:174    .text.osKernelRunning:00000000 osKernelRunning
C:\Users\seblo\AppData\Local\Temp\ccJuvw9h.s:205    .text.osKernelSysTick:00000000 $t
C:\Users\seblo\AppData\Local\Temp\ccJuvw9h.s:212    .text.osKernelSysTick:00000000 osKernelSysTick
C:\Users\seblo\AppData\Local\Temp\ccJuvw9h.s:246    .text.osThreadCreate:00000000 $t
C:\Users\seblo\AppData\Local\Temp\ccJuvw9h.s:253    .text.osThreadCreate:00000000 osThreadCreate
C:\Users\seblo\AppData\Local\Temp\ccJuvw9h.s:358    .text.osThreadGetId:00000000 $t
C:\Users\seblo\AppData\Local\Temp\ccJuvw9h.s:365    .text.osThreadGetId:00000000 osThreadGetId
C:\Users\seblo\AppData\Local\Temp\ccJuvw9h.s:386    .text.osThreadTerminate:00000000 $t
C:\Users\seblo\AppData\Local\Temp\ccJuvw9h.s:393    .text.osThreadTerminate:00000000 osThreadTerminate
C:\Users\seblo\AppData\Local\Temp\ccJuvw9h.s:417    .text.osThreadYield:00000000 $t
C:\Users\seblo\AppData\Local\Temp\ccJuvw9h.s:424    .text.osThreadYield:00000000 osThreadYield
C:\Users\seblo\AppData\Local\Temp\ccJuvw9h.s:455    .text.osThreadSetPriority:00000000 $t
C:\Users\seblo\AppData\Local\Temp\ccJuvw9h.s:462    .text.osThreadSetPriority:00000000 osThreadSetPriority
C:\Users\seblo\AppData\Local\Temp\ccJuvw9h.s:496    .text.osThreadGetPriority:00000000 $t
C:\Users\seblo\AppData\Local\Temp\ccJuvw9h.s:503    .text.osThreadGetPriority:00000000 osThreadGetPriority
C:\Users\seblo\AppData\Local\Temp\ccJuvw9h.s:547    .text.osDelay:00000000 $t
C:\Users\seblo\AppData\Local\Temp\ccJuvw9h.s:554    .text.osDelay:00000000 osDelay
C:\Users\seblo\AppData\Local\Temp\ccJuvw9h.s:585    .text.osTimerCreate:00000000 $t
C:\Users\seblo\AppData\Local\Temp\ccJuvw9h.s:592    .text.osTimerCreate:00000000 osTimerCreate
C:\Users\seblo\AppData\Local\Temp\ccJuvw9h.s:610    .text.osTimerStart:00000000 $t
C:\Users\seblo\AppData\Local\Temp\ccJuvw9h.s:617    .text.osTimerStart:00000000 osTimerStart
C:\Users\seblo\AppData\Local\Temp\ccJuvw9h.s:637    .text.osTimerStop:00000000 $t
C:\Users\seblo\AppData\Local\Temp\ccJuvw9h.s:644    .text.osTimerStop:00000000 osTimerStop
C:\Users\seblo\AppData\Local\Temp\ccJuvw9h.s:664    .text.osTimerDelete:00000000 $t
C:\Users\seblo\AppData\Local\Temp\ccJuvw9h.s:671    .text.osTimerDelete:00000000 osTimerDelete
C:\Users\seblo\AppData\Local\Temp\ccJuvw9h.s:691    .text.osSignalSet:00000000 $t
C:\Users\seblo\AppData\Local\Temp\ccJuvw9h.s:698    .text.osSignalSet:00000000 osSignalSet
C:\Users\seblo\AppData\Local\Temp\ccJuvw9h.s:801    .text.osSignalWait:00000000 $t
C:\Users\seblo\AppData\Local\Temp\ccJuvw9h.s:808    .text.osSignalWait:00000000 osSignalWait
C:\Users\seblo\AppData\Local\Temp\ccJuvw9h.s:913    .text.osMutexCreate:00000000 $t
C:\Users\seblo\AppData\Local\Temp\ccJuvw9h.s:920    .text.osMutexCreate:00000000 osMutexCreate
C:\Users\seblo\AppData\Local\Temp\ccJuvw9h.s:962    .text.osMutexWait:00000000 $t
C:\Users\seblo\AppData\Local\Temp\ccJuvw9h.s:969    .text.osMutexWait:00000000 osMutexWait
C:\Users\seblo\AppData\Local\Temp\ccJuvw9h.s:1083   .text.osMutexRelease:00000000 $t
C:\Users\seblo\AppData\Local\Temp\ccJuvw9h.s:1090   .text.osMutexRelease:00000000 osMutexRelease
C:\Users\seblo\AppData\Local\Temp\ccJuvw9h.s:1191   .text.osMutexDelete:00000000 $t
C:\Users\seblo\AppData\Local\Temp\ccJuvw9h.s:1198   .text.osMutexDelete:00000000 osMutexDelete
C:\Users\seblo\AppData\Local\Temp\ccJuvw9h.s:1237   .text.osSemaphoreCreate:00000000 $t
C:\Users\seblo\AppData\Local\Temp\ccJuvw9h.s:1244   .text.osSemaphoreCreate:00000000 osSemaphoreCreate
C:\Users\seblo\AppData\Local\Temp\ccJuvw9h.s:1354   .text.osSemaphoreWait:00000000 $t
C:\Users\seblo\AppData\Local\Temp\ccJuvw9h.s:1361   .text.osSemaphoreWait:00000000 osSemaphoreWait
C:\Users\seblo\AppData\Local\Temp\ccJuvw9h.s:1470   .text.osSemaphoreRelease:00000000 $t
C:\Users\seblo\AppData\Local\Temp\ccJuvw9h.s:1477   .text.osSemaphoreRelease:00000000 osSemaphoreRelease
C:\Users\seblo\AppData\Local\Temp\ccJuvw9h.s:1578   .text.osSemaphoreDelete:00000000 $t
C:\Users\seblo\AppData\Local\Temp\ccJuvw9h.s:1585   .text.osSemaphoreDelete:00000000 osSemaphoreDelete
C:\Users\seblo\AppData\Local\Temp\ccJuvw9h.s:1624   .text.osPoolCreate:00000000 $t
ARM GAS  C:\Users\seblo\AppData\Local\Temp\ccJuvw9h.s 			page 106


C:\Users\seblo\AppData\Local\Temp\ccJuvw9h.s:1631   .text.osPoolCreate:00000000 osPoolCreate
C:\Users\seblo\AppData\Local\Temp\ccJuvw9h.s:1767   .text.osPoolAlloc:00000000 $t
C:\Users\seblo\AppData\Local\Temp\ccJuvw9h.s:1774   .text.osPoolAlloc:00000000 osPoolAlloc
C:\Users\seblo\AppData\Local\Temp\ccJuvw9h.s:1934   .text.osPoolCAlloc:00000000 $t
C:\Users\seblo\AppData\Local\Temp\ccJuvw9h.s:1941   .text.osPoolCAlloc:00000000 osPoolCAlloc
C:\Users\seblo\AppData\Local\Temp\ccJuvw9h.s:1972   .text.osPoolFree:00000000 $t
C:\Users\seblo\AppData\Local\Temp\ccJuvw9h.s:1979   .text.osPoolFree:00000000 osPoolFree
C:\Users\seblo\AppData\Local\Temp\ccJuvw9h.s:2070   .text.osMessageCreate:00000000 $t
C:\Users\seblo\AppData\Local\Temp\ccJuvw9h.s:2077   .text.osMessageCreate:00000000 osMessageCreate
C:\Users\seblo\AppData\Local\Temp\ccJuvw9h.s:2139   .text.osMessagePut:00000000 $t
C:\Users\seblo\AppData\Local\Temp\ccJuvw9h.s:2146   .text.osMessagePut:00000000 osMessagePut
C:\Users\seblo\AppData\Local\Temp\ccJuvw9h.s:2259   .text.osMessageGet:00000000 $t
C:\Users\seblo\AppData\Local\Temp\ccJuvw9h.s:2266   .text.osMessageGet:00000000 osMessageGet
C:\Users\seblo\AppData\Local\Temp\ccJuvw9h.s:2416   .text.osMailCreate:00000000 $t
C:\Users\seblo\AppData\Local\Temp\ccJuvw9h.s:2423   .text.osMailCreate:00000000 osMailCreate
C:\Users\seblo\AppData\Local\Temp\ccJuvw9h.s:2548   .text.osMailAlloc:00000000 $t
C:\Users\seblo\AppData\Local\Temp\ccJuvw9h.s:2555   .text.osMailAlloc:00000000 osMailAlloc
C:\Users\seblo\AppData\Local\Temp\ccJuvw9h.s:2588   .text.osMailCAlloc:00000000 $t
C:\Users\seblo\AppData\Local\Temp\ccJuvw9h.s:2595   .text.osMailCAlloc:00000000 osMailCAlloc
C:\Users\seblo\AppData\Local\Temp\ccJuvw9h.s:2652   .text.osMailPut:00000000 $t
C:\Users\seblo\AppData\Local\Temp\ccJuvw9h.s:2659   .text.osMailPut:00000000 osMailPut
C:\Users\seblo\AppData\Local\Temp\ccJuvw9h.s:2772   .text.osMailGet:00000000 $t
C:\Users\seblo\AppData\Local\Temp\ccJuvw9h.s:2779   .text.osMailGet:00000000 osMailGet
C:\Users\seblo\AppData\Local\Temp\ccJuvw9h.s:2925   .text.osMailFree:00000000 $t
C:\Users\seblo\AppData\Local\Temp\ccJuvw9h.s:2932   .text.osMailFree:00000000 osMailFree
C:\Users\seblo\AppData\Local\Temp\ccJuvw9h.s:2972   .text.osSystickHandler:00000000 $t
C:\Users\seblo\AppData\Local\Temp\ccJuvw9h.s:2979   .text.osSystickHandler:00000000 osSystickHandler
C:\Users\seblo\AppData\Local\Temp\ccJuvw9h.s:3010   .text.osThreadSuspend:00000000 $t
C:\Users\seblo\AppData\Local\Temp\ccJuvw9h.s:3017   .text.osThreadSuspend:00000000 osThreadSuspend
C:\Users\seblo\AppData\Local\Temp\ccJuvw9h.s:3041   .text.osThreadResume:00000000 $t
C:\Users\seblo\AppData\Local\Temp\ccJuvw9h.s:3048   .text.osThreadResume:00000000 osThreadResume
C:\Users\seblo\AppData\Local\Temp\ccJuvw9h.s:3108   .text.osThreadSuspendAll:00000000 $t
C:\Users\seblo\AppData\Local\Temp\ccJuvw9h.s:3115   .text.osThreadSuspendAll:00000000 osThreadSuspendAll
C:\Users\seblo\AppData\Local\Temp\ccJuvw9h.s:3137   .text.osThreadResumeAll:00000000 $t
C:\Users\seblo\AppData\Local\Temp\ccJuvw9h.s:3144   .text.osThreadResumeAll:00000000 osThreadResumeAll
C:\Users\seblo\AppData\Local\Temp\ccJuvw9h.s:3175   .text.osDelayUntil:00000000 $t
C:\Users\seblo\AppData\Local\Temp\ccJuvw9h.s:3182   .text.osDelayUntil:00000000 osDelayUntil
C:\Users\seblo\AppData\Local\Temp\ccJuvw9h.s:3202   .text.osAbortDelay:00000000 $t
C:\Users\seblo\AppData\Local\Temp\ccJuvw9h.s:3209   .text.osAbortDelay:00000000 osAbortDelay
C:\Users\seblo\AppData\Local\Temp\ccJuvw9h.s:3228   .text.osThreadList:00000000 $t
C:\Users\seblo\AppData\Local\Temp\ccJuvw9h.s:3235   .text.osThreadList:00000000 osThreadList
C:\Users\seblo\AppData\Local\Temp\ccJuvw9h.s:3253   .text.osMessagePeek:00000000 $t
C:\Users\seblo\AppData\Local\Temp\ccJuvw9h.s:3260   .text.osMessagePeek:00000000 osMessagePeek
C:\Users\seblo\AppData\Local\Temp\ccJuvw9h.s:3354   .text.osMessageWaiting:00000000 $t
C:\Users\seblo\AppData\Local\Temp\ccJuvw9h.s:3361   .text.osMessageWaiting:00000000 osMessageWaiting
C:\Users\seblo\AppData\Local\Temp\ccJuvw9h.s:3401   .text.osMessageAvailableSpace:00000000 $t
C:\Users\seblo\AppData\Local\Temp\ccJuvw9h.s:3408   .text.osMessageAvailableSpace:00000000 osMessageAvailableSpace
C:\Users\seblo\AppData\Local\Temp\ccJuvw9h.s:3431   .text.osMessageDelete:00000000 $t
C:\Users\seblo\AppData\Local\Temp\ccJuvw9h.s:3438   .text.osMessageDelete:00000000 osMessageDelete
C:\Users\seblo\AppData\Local\Temp\ccJuvw9h.s:3477   .text.osRecursiveMutexCreate:00000000 $t
C:\Users\seblo\AppData\Local\Temp\ccJuvw9h.s:3484   .text.osRecursiveMutexCreate:00000000 osRecursiveMutexCreate
C:\Users\seblo\AppData\Local\Temp\ccJuvw9h.s:3526   .text.osRecursiveMutexRelease:00000000 $t
C:\Users\seblo\AppData\Local\Temp\ccJuvw9h.s:3533   .text.osRecursiveMutexRelease:00000000 osRecursiveMutexRelease
C:\Users\seblo\AppData\Local\Temp\ccJuvw9h.s:3571   .text.osRecursiveMutexWait:00000000 $t
C:\Users\seblo\AppData\Local\Temp\ccJuvw9h.s:3578   .text.osRecursiveMutexWait:00000000 osRecursiveMutexWait
C:\Users\seblo\AppData\Local\Temp\ccJuvw9h.s:3634   .text.osSemaphoreGetCount:00000000 $t
C:\Users\seblo\AppData\Local\Temp\ccJuvw9h.s:3641   .text.osSemaphoreGetCount:00000000 osSemaphoreGetCount
ARM GAS  C:\Users\seblo\AppData\Local\Temp\ccJuvw9h.s 			page 107



UNDEFINED SYMBOLS
vTaskStartScheduler
xTaskGetSchedulerState
xTaskGetTickCountFromISR
xTaskGetTickCount
xTaskCreateStatic
xTaskCreate
xTaskGetCurrentTaskHandle
vTaskDelete
vTaskPrioritySet
uxTaskPriorityGetFromISR
uxTaskPriorityGet
vTaskDelay
xTaskGenericNotifyFromISR
xTaskGenericNotify
xTaskNotifyWait
xQueueCreateMutexStatic
xQueueCreateMutex
xQueueReceiveFromISR
xQueueSemaphoreTake
xQueueGiveFromISR
xQueueGenericSend
vQueueDelete
xQueueCreateCountingSemaphoreStatic
xQueueGenericCreateStatic
xQueueCreateCountingSemaphore
xQueueGenericCreate
pvPortMalloc
vPortFree
vPortEnterCritical
vPortExitCritical
xQueueGenericSendFromISR
xQueueReceive
SysTick_Handler
vTaskSuspend
xTaskResumeFromISR
vTaskResume
vTaskSuspendAll
xTaskResumeAll
xQueuePeek
uxQueueMessagesWaitingFromISR
uxQueueMessagesWaiting
uxQueueSpacesAvailable
xQueueGiveMutexRecursive
xQueueTakeMutexRecursive
