ARM GAS  C:\Users\seblo\AppData\Local\Temp\ccqImqhn.s 			page 1


   1              		.cpu cortex-m7
   2              		.eabi_attribute 27, 1
   3              		.eabi_attribute 28, 1
   4              		.eabi_attribute 20, 1
   5              		.eabi_attribute 21, 1
   6              		.eabi_attribute 23, 3
   7              		.eabi_attribute 24, 1
   8              		.eabi_attribute 25, 1
   9              		.eabi_attribute 26, 1
  10              		.eabi_attribute 30, 1
  11              		.eabi_attribute 34, 1
  12              		.eabi_attribute 18, 4
  13              		.file	"SEGGER_RTT.c"
  14              		.text
  15              	.Ltext0:
  16              		.cfi_sections	.debug_frame
  17              		.section	.text._GetAvailWriteSpace,"ax",%progbits
  18              		.align	1
  19              		.arch armv7e-m
  20              		.syntax unified
  21              		.thumb
  22              		.thumb_func
  23              		.fpu fpv5-sp-d16
  25              	_GetAvailWriteSpace:
  26              	.LVL0:
  27              	.LFB4:
  28              		.file 1 "Drivers/RTT/SEGGER_RTT.c"
   1:Drivers/RTT/SEGGER_RTT.c **** /*********************************************************************
   2:Drivers/RTT/SEGGER_RTT.c **** *                    SEGGER Microcontroller GmbH                     *
   3:Drivers/RTT/SEGGER_RTT.c **** *                        The Embedded Experts                        *
   4:Drivers/RTT/SEGGER_RTT.c **** **********************************************************************
   5:Drivers/RTT/SEGGER_RTT.c **** *                                                                    *
   6:Drivers/RTT/SEGGER_RTT.c **** *            (c) 1995 - 2021 SEGGER Microcontroller GmbH             *
   7:Drivers/RTT/SEGGER_RTT.c **** *                                                                    *
   8:Drivers/RTT/SEGGER_RTT.c **** *       www.segger.com     Support: support@segger.com               *
   9:Drivers/RTT/SEGGER_RTT.c **** *                                                                    *
  10:Drivers/RTT/SEGGER_RTT.c **** **********************************************************************
  11:Drivers/RTT/SEGGER_RTT.c **** *                                                                    *
  12:Drivers/RTT/SEGGER_RTT.c **** *       SEGGER RTT * Real Time Transfer for embedded targets         *
  13:Drivers/RTT/SEGGER_RTT.c **** *                                                                    *
  14:Drivers/RTT/SEGGER_RTT.c **** **********************************************************************
  15:Drivers/RTT/SEGGER_RTT.c **** *                                                                    *
  16:Drivers/RTT/SEGGER_RTT.c **** * All rights reserved.                                               *
  17:Drivers/RTT/SEGGER_RTT.c **** *                                                                    *
  18:Drivers/RTT/SEGGER_RTT.c **** * SEGGER strongly recommends to not make any changes                 *
  19:Drivers/RTT/SEGGER_RTT.c **** * to or modify the source code of this software in order to stay     *
  20:Drivers/RTT/SEGGER_RTT.c **** * compatible with the RTT protocol and J-Link.                       *
  21:Drivers/RTT/SEGGER_RTT.c **** *                                                                    *
  22:Drivers/RTT/SEGGER_RTT.c **** * Redistribution and use in source and binary forms, with or         *
  23:Drivers/RTT/SEGGER_RTT.c **** * without modification, are permitted provided that the following    *
  24:Drivers/RTT/SEGGER_RTT.c **** * condition is met:                                                  *
  25:Drivers/RTT/SEGGER_RTT.c **** *                                                                    *
  26:Drivers/RTT/SEGGER_RTT.c **** * o Redistributions of source code must retain the above copyright   *
  27:Drivers/RTT/SEGGER_RTT.c **** *   notice, this condition and the following disclaimer.             *
  28:Drivers/RTT/SEGGER_RTT.c **** *                                                                    *
  29:Drivers/RTT/SEGGER_RTT.c **** * THIS SOFTWARE IS PROVIDED BY THE COPYRIGHT HOLDERS AND             *
  30:Drivers/RTT/SEGGER_RTT.c **** * CONTRIBUTORS "AS IS" AND ANY EXPRESS OR IMPLIED WARRANTIES,        *
ARM GAS  C:\Users\seblo\AppData\Local\Temp\ccqImqhn.s 			page 2


  31:Drivers/RTT/SEGGER_RTT.c **** * INCLUDING, BUT NOT LIMITED TO, THE IMPLIED WARRANTIES OF           *
  32:Drivers/RTT/SEGGER_RTT.c **** * MERCHANTABILITY AND FITNESS FOR A PARTICULAR PURPOSE ARE           *
  33:Drivers/RTT/SEGGER_RTT.c **** * DISCLAIMED. IN NO EVENT SHALL SEGGER Microcontroller BE LIABLE FOR *
  34:Drivers/RTT/SEGGER_RTT.c **** * ANY DIRECT, INDIRECT, INCIDENTAL, SPECIAL, EXEMPLARY, OR           *
  35:Drivers/RTT/SEGGER_RTT.c **** * CONSEQUENTIAL DAMAGES (INCLUDING, BUT NOT LIMITED TO, PROCUREMENT  *
  36:Drivers/RTT/SEGGER_RTT.c **** * OF SUBSTITUTE GOODS OR SERVICES; LOSS OF USE, DATA, OR PROFITS;    *
  37:Drivers/RTT/SEGGER_RTT.c **** * OR BUSINESS INTERRUPTION) HOWEVER CAUSED AND ON ANY THEORY OF      *
  38:Drivers/RTT/SEGGER_RTT.c **** * LIABILITY, WHETHER IN CONTRACT, STRICT LIABILITY, OR TORT          *
  39:Drivers/RTT/SEGGER_RTT.c **** * (INCLUDING NEGLIGENCE OR OTHERWISE) ARISING IN ANY WAY OUT OF THE  *
  40:Drivers/RTT/SEGGER_RTT.c **** * USE OF THIS SOFTWARE, EVEN IF ADVISED OF THE POSSIBILITY OF SUCH   *
  41:Drivers/RTT/SEGGER_RTT.c **** * DAMAGE.                                                            *
  42:Drivers/RTT/SEGGER_RTT.c **** *                                                                    *
  43:Drivers/RTT/SEGGER_RTT.c **** **********************************************************************
  44:Drivers/RTT/SEGGER_RTT.c **** *                                                                    *
  45:Drivers/RTT/SEGGER_RTT.c **** *       RTT version: 7.20b                                           *
  46:Drivers/RTT/SEGGER_RTT.c **** *                                                                    *
  47:Drivers/RTT/SEGGER_RTT.c **** **********************************************************************
  48:Drivers/RTT/SEGGER_RTT.c **** 
  49:Drivers/RTT/SEGGER_RTT.c **** ---------------------------END-OF-HEADER------------------------------
  50:Drivers/RTT/SEGGER_RTT.c **** File    : SEGGER_RTT.c
  51:Drivers/RTT/SEGGER_RTT.c **** Purpose : Implementation of SEGGER real-time transfer (RTT) which
  52:Drivers/RTT/SEGGER_RTT.c ****           allows real-time communication on targets which support
  53:Drivers/RTT/SEGGER_RTT.c ****           debugger memory accesses while the CPU is running.
  54:Drivers/RTT/SEGGER_RTT.c **** Revision: $Rev: 22333 $
  55:Drivers/RTT/SEGGER_RTT.c **** 
  56:Drivers/RTT/SEGGER_RTT.c **** Additional information:
  57:Drivers/RTT/SEGGER_RTT.c ****           Type "int" is assumed to be 32-bits in size
  58:Drivers/RTT/SEGGER_RTT.c ****           H->T    Host to target communication
  59:Drivers/RTT/SEGGER_RTT.c ****           T->H    Target to host communication
  60:Drivers/RTT/SEGGER_RTT.c **** 
  61:Drivers/RTT/SEGGER_RTT.c ****           RTT channel 0 is always present and reserved for Terminal usage.
  62:Drivers/RTT/SEGGER_RTT.c ****           Name is fixed to "Terminal"
  63:Drivers/RTT/SEGGER_RTT.c **** 
  64:Drivers/RTT/SEGGER_RTT.c ****           Effective buffer size: SizeOfBuffer - 1
  65:Drivers/RTT/SEGGER_RTT.c **** 
  66:Drivers/RTT/SEGGER_RTT.c ****           WrOff == RdOff:       Buffer is empty
  67:Drivers/RTT/SEGGER_RTT.c ****           WrOff == (RdOff - 1): Buffer is full
  68:Drivers/RTT/SEGGER_RTT.c ****           WrOff >  RdOff:       Free space includes wrap-around
  69:Drivers/RTT/SEGGER_RTT.c ****           WrOff <  RdOff:       Used space includes wrap-around
  70:Drivers/RTT/SEGGER_RTT.c ****           (WrOff == (SizeOfBuffer - 1)) && (RdOff == 0):  
  71:Drivers/RTT/SEGGER_RTT.c ****                                 Buffer full and wrap-around after next byte
  72:Drivers/RTT/SEGGER_RTT.c **** 
  73:Drivers/RTT/SEGGER_RTT.c **** 
  74:Drivers/RTT/SEGGER_RTT.c **** ----------------------------------------------------------------------
  75:Drivers/RTT/SEGGER_RTT.c **** */
  76:Drivers/RTT/SEGGER_RTT.c **** 
  77:Drivers/RTT/SEGGER_RTT.c **** #include "SEGGER_RTT.h"
  78:Drivers/RTT/SEGGER_RTT.c **** 
  79:Drivers/RTT/SEGGER_RTT.c **** #include <string.h>                 // for memcpy
  80:Drivers/RTT/SEGGER_RTT.c **** 
  81:Drivers/RTT/SEGGER_RTT.c **** /*********************************************************************
  82:Drivers/RTT/SEGGER_RTT.c **** *
  83:Drivers/RTT/SEGGER_RTT.c **** *       Configuration, default values
  84:Drivers/RTT/SEGGER_RTT.c **** *
  85:Drivers/RTT/SEGGER_RTT.c **** **********************************************************************
  86:Drivers/RTT/SEGGER_RTT.c **** */
  87:Drivers/RTT/SEGGER_RTT.c **** 
ARM GAS  C:\Users\seblo\AppData\Local\Temp\ccqImqhn.s 			page 3


  88:Drivers/RTT/SEGGER_RTT.c **** #if SEGGER_RTT_CPU_CACHE_LINE_SIZE
  89:Drivers/RTT/SEGGER_RTT.c ****   #ifdef SEGGER_RTT_CB_ALIGN
  90:Drivers/RTT/SEGGER_RTT.c ****     #error "Custom SEGGER_RTT_CB_ALIGN() is not supported for SEGGER_RTT_CPU_CACHE_LINE_SIZE != 0"
  91:Drivers/RTT/SEGGER_RTT.c ****   #endif
  92:Drivers/RTT/SEGGER_RTT.c ****   #ifdef SEGGER_RTT_BUFFER_ALIGN
  93:Drivers/RTT/SEGGER_RTT.c ****     #error "Custom SEGGER_RTT_BUFFER_ALIGN() is not supported for SEGGER_RTT_CPU_CACHE_LINE_SIZE !=
  94:Drivers/RTT/SEGGER_RTT.c ****   #endif
  95:Drivers/RTT/SEGGER_RTT.c ****   #ifdef SEGGER_RTT_PUT_CB_SECTION
  96:Drivers/RTT/SEGGER_RTT.c ****     #error "Custom SEGGER_RTT_PUT_CB_SECTION() is not supported for SEGGER_RTT_CPU_CACHE_LINE_SIZE 
  97:Drivers/RTT/SEGGER_RTT.c ****   #endif
  98:Drivers/RTT/SEGGER_RTT.c ****   #ifdef SEGGER_RTT_PUT_BUFFER_SECTION
  99:Drivers/RTT/SEGGER_RTT.c ****     #error "Custom SEGGER_RTT_PUT_BUFFER_SECTION() is not supported for SEGGER_RTT_CPU_CACHE_LINE_S
 100:Drivers/RTT/SEGGER_RTT.c ****   #endif
 101:Drivers/RTT/SEGGER_RTT.c ****   #ifdef SEGGER_RTT_BUFFER_ALIGNMENT
 102:Drivers/RTT/SEGGER_RTT.c ****     #error "Custom SEGGER_RTT_BUFFER_ALIGNMENT is not supported for SEGGER_RTT_CPU_CACHE_LINE_SIZE 
 103:Drivers/RTT/SEGGER_RTT.c ****   #endif
 104:Drivers/RTT/SEGGER_RTT.c ****   #ifdef SEGGER_RTT_ALIGNMENT
 105:Drivers/RTT/SEGGER_RTT.c ****     #error "Custom SEGGER_RTT_ALIGNMENT is not supported for SEGGER_RTT_CPU_CACHE_LINE_SIZE != 0"
 106:Drivers/RTT/SEGGER_RTT.c ****   #endif
 107:Drivers/RTT/SEGGER_RTT.c **** #endif
 108:Drivers/RTT/SEGGER_RTT.c **** 
 109:Drivers/RTT/SEGGER_RTT.c **** #ifndef   BUFFER_SIZE_UP
 110:Drivers/RTT/SEGGER_RTT.c ****   #define BUFFER_SIZE_UP                                  1024  // Size of the buffer for terminal 
 111:Drivers/RTT/SEGGER_RTT.c **** #endif
 112:Drivers/RTT/SEGGER_RTT.c **** 
 113:Drivers/RTT/SEGGER_RTT.c **** #ifndef   BUFFER_SIZE_DOWN
 114:Drivers/RTT/SEGGER_RTT.c ****   #define BUFFER_SIZE_DOWN                                16    // Size of the buffer for terminal 
 115:Drivers/RTT/SEGGER_RTT.c **** #endif
 116:Drivers/RTT/SEGGER_RTT.c **** 
 117:Drivers/RTT/SEGGER_RTT.c **** #ifndef   SEGGER_RTT_MAX_NUM_UP_BUFFERS
 118:Drivers/RTT/SEGGER_RTT.c ****   #define SEGGER_RTT_MAX_NUM_UP_BUFFERS                    2    // Number of up-buffers (T->H) avai
 119:Drivers/RTT/SEGGER_RTT.c **** #endif
 120:Drivers/RTT/SEGGER_RTT.c **** 
 121:Drivers/RTT/SEGGER_RTT.c **** #ifndef   SEGGER_RTT_MAX_NUM_DOWN_BUFFERS
 122:Drivers/RTT/SEGGER_RTT.c ****   #define SEGGER_RTT_MAX_NUM_DOWN_BUFFERS                  2    // Number of down-buffers (H->T) av
 123:Drivers/RTT/SEGGER_RTT.c **** #endif
 124:Drivers/RTT/SEGGER_RTT.c **** 
 125:Drivers/RTT/SEGGER_RTT.c **** #ifndef SEGGER_RTT_BUFFER_SECTION
 126:Drivers/RTT/SEGGER_RTT.c ****   #if defined(SEGGER_RTT_SECTION)
 127:Drivers/RTT/SEGGER_RTT.c ****     #define SEGGER_RTT_BUFFER_SECTION SEGGER_RTT_SECTION
 128:Drivers/RTT/SEGGER_RTT.c ****   #endif
 129:Drivers/RTT/SEGGER_RTT.c **** #endif
 130:Drivers/RTT/SEGGER_RTT.c **** 
 131:Drivers/RTT/SEGGER_RTT.c **** #ifndef   SEGGER_RTT_ALIGNMENT
 132:Drivers/RTT/SEGGER_RTT.c ****   #define SEGGER_RTT_ALIGNMENT                            SEGGER_RTT_CPU_CACHE_LINE_SIZE
 133:Drivers/RTT/SEGGER_RTT.c **** #endif
 134:Drivers/RTT/SEGGER_RTT.c **** 
 135:Drivers/RTT/SEGGER_RTT.c **** #ifndef   SEGGER_RTT_BUFFER_ALIGNMENT
 136:Drivers/RTT/SEGGER_RTT.c ****   #define SEGGER_RTT_BUFFER_ALIGNMENT                     SEGGER_RTT_CPU_CACHE_LINE_SIZE
 137:Drivers/RTT/SEGGER_RTT.c **** #endif
 138:Drivers/RTT/SEGGER_RTT.c **** 
 139:Drivers/RTT/SEGGER_RTT.c **** #ifndef   SEGGER_RTT_MODE_DEFAULT
 140:Drivers/RTT/SEGGER_RTT.c ****   #define SEGGER_RTT_MODE_DEFAULT                         SEGGER_RTT_MODE_NO_BLOCK_SKIP
 141:Drivers/RTT/SEGGER_RTT.c **** #endif
 142:Drivers/RTT/SEGGER_RTT.c **** 
 143:Drivers/RTT/SEGGER_RTT.c **** #ifndef   SEGGER_RTT_LOCK
 144:Drivers/RTT/SEGGER_RTT.c ****   #define SEGGER_RTT_LOCK()
ARM GAS  C:\Users\seblo\AppData\Local\Temp\ccqImqhn.s 			page 4


 145:Drivers/RTT/SEGGER_RTT.c **** #endif
 146:Drivers/RTT/SEGGER_RTT.c **** 
 147:Drivers/RTT/SEGGER_RTT.c **** #ifndef   SEGGER_RTT_UNLOCK
 148:Drivers/RTT/SEGGER_RTT.c ****   #define SEGGER_RTT_UNLOCK()
 149:Drivers/RTT/SEGGER_RTT.c **** #endif
 150:Drivers/RTT/SEGGER_RTT.c **** 
 151:Drivers/RTT/SEGGER_RTT.c **** #ifndef   STRLEN
 152:Drivers/RTT/SEGGER_RTT.c ****   #define STRLEN(a)                                       strlen((a))
 153:Drivers/RTT/SEGGER_RTT.c **** #endif
 154:Drivers/RTT/SEGGER_RTT.c **** 
 155:Drivers/RTT/SEGGER_RTT.c **** #ifndef   STRCPY
 156:Drivers/RTT/SEGGER_RTT.c ****   #define STRCPY(pDest, pSrc)                             strcpy((pDest), (pSrc))
 157:Drivers/RTT/SEGGER_RTT.c **** #endif
 158:Drivers/RTT/SEGGER_RTT.c **** 
 159:Drivers/RTT/SEGGER_RTT.c **** #ifndef   SEGGER_RTT_MEMCPY_USE_BYTELOOP
 160:Drivers/RTT/SEGGER_RTT.c ****   #define SEGGER_RTT_MEMCPY_USE_BYTELOOP                  0
 161:Drivers/RTT/SEGGER_RTT.c **** #endif
 162:Drivers/RTT/SEGGER_RTT.c **** 
 163:Drivers/RTT/SEGGER_RTT.c **** #ifndef   SEGGER_RTT_MEMCPY
 164:Drivers/RTT/SEGGER_RTT.c ****   #ifdef  MEMCPY
 165:Drivers/RTT/SEGGER_RTT.c ****     #define SEGGER_RTT_MEMCPY(pDest, pSrc, NumBytes)      MEMCPY((pDest), (pSrc), (NumBytes))
 166:Drivers/RTT/SEGGER_RTT.c ****   #else
 167:Drivers/RTT/SEGGER_RTT.c ****     #define SEGGER_RTT_MEMCPY(pDest, pSrc, NumBytes)      memcpy((pDest), (pSrc), (NumBytes))
 168:Drivers/RTT/SEGGER_RTT.c ****   #endif
 169:Drivers/RTT/SEGGER_RTT.c **** #endif
 170:Drivers/RTT/SEGGER_RTT.c **** 
 171:Drivers/RTT/SEGGER_RTT.c **** #ifndef   MIN
 172:Drivers/RTT/SEGGER_RTT.c ****   #define MIN(a, b)         (((a) < (b)) ? (a) : (b))
 173:Drivers/RTT/SEGGER_RTT.c **** #endif
 174:Drivers/RTT/SEGGER_RTT.c **** 
 175:Drivers/RTT/SEGGER_RTT.c **** #ifndef   MAX
 176:Drivers/RTT/SEGGER_RTT.c ****   #define MAX(a, b)         (((a) > (b)) ? (a) : (b))
 177:Drivers/RTT/SEGGER_RTT.c **** #endif
 178:Drivers/RTT/SEGGER_RTT.c **** //
 179:Drivers/RTT/SEGGER_RTT.c **** // For some environments, NULL may not be defined until certain headers are included
 180:Drivers/RTT/SEGGER_RTT.c **** //
 181:Drivers/RTT/SEGGER_RTT.c **** #ifndef NULL
 182:Drivers/RTT/SEGGER_RTT.c ****   #define NULL 0
 183:Drivers/RTT/SEGGER_RTT.c **** #endif
 184:Drivers/RTT/SEGGER_RTT.c **** 
 185:Drivers/RTT/SEGGER_RTT.c **** /*********************************************************************
 186:Drivers/RTT/SEGGER_RTT.c **** *
 187:Drivers/RTT/SEGGER_RTT.c **** *       Defines, fixed
 188:Drivers/RTT/SEGGER_RTT.c **** *
 189:Drivers/RTT/SEGGER_RTT.c **** **********************************************************************
 190:Drivers/RTT/SEGGER_RTT.c **** */
 191:Drivers/RTT/SEGGER_RTT.c **** #if (defined __ICCARM__) || (defined __ICCRX__)
 192:Drivers/RTT/SEGGER_RTT.c ****   #define RTT_PRAGMA(P) _Pragma(#P)
 193:Drivers/RTT/SEGGER_RTT.c **** #endif
 194:Drivers/RTT/SEGGER_RTT.c **** 
 195:Drivers/RTT/SEGGER_RTT.c **** #if SEGGER_RTT_ALIGNMENT || SEGGER_RTT_BUFFER_ALIGNMENT
 196:Drivers/RTT/SEGGER_RTT.c ****   #if (defined __GNUC__)
 197:Drivers/RTT/SEGGER_RTT.c ****     #define SEGGER_RTT_ALIGN(Var, Alignment) Var __attribute__ ((aligned (Alignment)))
 198:Drivers/RTT/SEGGER_RTT.c ****   #elif (defined __ICCARM__) || (defined __ICCRX__)
 199:Drivers/RTT/SEGGER_RTT.c ****     #define PRAGMA(A) _Pragma(#A)
 200:Drivers/RTT/SEGGER_RTT.c **** #define SEGGER_RTT_ALIGN(Var, Alignment) RTT_PRAGMA(data_alignment=Alignment) \
 201:Drivers/RTT/SEGGER_RTT.c ****                                   Var
ARM GAS  C:\Users\seblo\AppData\Local\Temp\ccqImqhn.s 			page 5


 202:Drivers/RTT/SEGGER_RTT.c ****   #elif (defined __CC_ARM)
 203:Drivers/RTT/SEGGER_RTT.c ****     #define SEGGER_RTT_ALIGN(Var, Alignment) Var __attribute__ ((aligned (Alignment)))
 204:Drivers/RTT/SEGGER_RTT.c ****   #else
 205:Drivers/RTT/SEGGER_RTT.c ****     #error "Alignment not supported for this compiler."
 206:Drivers/RTT/SEGGER_RTT.c ****   #endif
 207:Drivers/RTT/SEGGER_RTT.c **** #else
 208:Drivers/RTT/SEGGER_RTT.c ****   #define SEGGER_RTT_ALIGN(Var, Alignment) Var
 209:Drivers/RTT/SEGGER_RTT.c **** #endif
 210:Drivers/RTT/SEGGER_RTT.c **** 
 211:Drivers/RTT/SEGGER_RTT.c **** #if defined(SEGGER_RTT_SECTION) || defined (SEGGER_RTT_BUFFER_SECTION)
 212:Drivers/RTT/SEGGER_RTT.c ****   #if (defined __GNUC__)
 213:Drivers/RTT/SEGGER_RTT.c ****     #define SEGGER_RTT_PUT_SECTION(Var, Section) __attribute__ ((section (Section))) Var
 214:Drivers/RTT/SEGGER_RTT.c ****   #elif (defined __ICCARM__) || (defined __ICCRX__)
 215:Drivers/RTT/SEGGER_RTT.c **** #define SEGGER_RTT_PUT_SECTION(Var, Section) RTT_PRAGMA(location=Section) \
 216:Drivers/RTT/SEGGER_RTT.c ****                                         Var
 217:Drivers/RTT/SEGGER_RTT.c ****   #elif (defined __CC_ARM)
 218:Drivers/RTT/SEGGER_RTT.c ****     #define SEGGER_RTT_PUT_SECTION(Var, Section) __attribute__ ((section (Section), zero_init))  Va
 219:Drivers/RTT/SEGGER_RTT.c ****   #else
 220:Drivers/RTT/SEGGER_RTT.c ****     #error "Section placement not supported for this compiler."
 221:Drivers/RTT/SEGGER_RTT.c ****   #endif
 222:Drivers/RTT/SEGGER_RTT.c **** #else
 223:Drivers/RTT/SEGGER_RTT.c ****   #define SEGGER_RTT_PUT_SECTION(Var, Section) Var
 224:Drivers/RTT/SEGGER_RTT.c **** #endif
 225:Drivers/RTT/SEGGER_RTT.c **** 
 226:Drivers/RTT/SEGGER_RTT.c **** #if SEGGER_RTT_ALIGNMENT
 227:Drivers/RTT/SEGGER_RTT.c ****   #define SEGGER_RTT_CB_ALIGN(Var)  SEGGER_RTT_ALIGN(Var, SEGGER_RTT_ALIGNMENT)
 228:Drivers/RTT/SEGGER_RTT.c **** #else
 229:Drivers/RTT/SEGGER_RTT.c ****   #define SEGGER_RTT_CB_ALIGN(Var)  Var
 230:Drivers/RTT/SEGGER_RTT.c **** #endif
 231:Drivers/RTT/SEGGER_RTT.c **** 
 232:Drivers/RTT/SEGGER_RTT.c **** #if SEGGER_RTT_BUFFER_ALIGNMENT
 233:Drivers/RTT/SEGGER_RTT.c ****   #define SEGGER_RTT_BUFFER_ALIGN(Var)  SEGGER_RTT_ALIGN(Var, SEGGER_RTT_BUFFER_ALIGNMENT)
 234:Drivers/RTT/SEGGER_RTT.c **** #else
 235:Drivers/RTT/SEGGER_RTT.c ****   #define SEGGER_RTT_BUFFER_ALIGN(Var)  Var
 236:Drivers/RTT/SEGGER_RTT.c **** #endif
 237:Drivers/RTT/SEGGER_RTT.c **** 
 238:Drivers/RTT/SEGGER_RTT.c **** 
 239:Drivers/RTT/SEGGER_RTT.c **** #if defined(SEGGER_RTT_SECTION)
 240:Drivers/RTT/SEGGER_RTT.c ****   #define SEGGER_RTT_PUT_CB_SECTION(Var) SEGGER_RTT_PUT_SECTION(Var, SEGGER_RTT_SECTION)
 241:Drivers/RTT/SEGGER_RTT.c **** #else
 242:Drivers/RTT/SEGGER_RTT.c ****   #define SEGGER_RTT_PUT_CB_SECTION(Var) Var
 243:Drivers/RTT/SEGGER_RTT.c **** #endif
 244:Drivers/RTT/SEGGER_RTT.c **** 
 245:Drivers/RTT/SEGGER_RTT.c **** #if defined(SEGGER_RTT_BUFFER_SECTION)
 246:Drivers/RTT/SEGGER_RTT.c ****   #define SEGGER_RTT_PUT_BUFFER_SECTION(Var) SEGGER_RTT_PUT_SECTION(Var, SEGGER_RTT_BUFFER_SECTION)
 247:Drivers/RTT/SEGGER_RTT.c **** #else
 248:Drivers/RTT/SEGGER_RTT.c ****   #define SEGGER_RTT_PUT_BUFFER_SECTION(Var) Var
 249:Drivers/RTT/SEGGER_RTT.c **** #endif
 250:Drivers/RTT/SEGGER_RTT.c **** 
 251:Drivers/RTT/SEGGER_RTT.c **** /*********************************************************************
 252:Drivers/RTT/SEGGER_RTT.c **** *
 253:Drivers/RTT/SEGGER_RTT.c **** *       Static const data
 254:Drivers/RTT/SEGGER_RTT.c **** *
 255:Drivers/RTT/SEGGER_RTT.c **** **********************************************************************
 256:Drivers/RTT/SEGGER_RTT.c **** */
 257:Drivers/RTT/SEGGER_RTT.c **** 
 258:Drivers/RTT/SEGGER_RTT.c **** static unsigned char _aTerminalId[16] = { '0', '1', '2', '3', '4', '5', '6', '7', '8', '9', 'A', 'B
ARM GAS  C:\Users\seblo\AppData\Local\Temp\ccqImqhn.s 			page 6


 259:Drivers/RTT/SEGGER_RTT.c **** 
 260:Drivers/RTT/SEGGER_RTT.c **** /*********************************************************************
 261:Drivers/RTT/SEGGER_RTT.c **** *
 262:Drivers/RTT/SEGGER_RTT.c **** *       Static data
 263:Drivers/RTT/SEGGER_RTT.c **** *
 264:Drivers/RTT/SEGGER_RTT.c **** **********************************************************************
 265:Drivers/RTT/SEGGER_RTT.c **** */
 266:Drivers/RTT/SEGGER_RTT.c **** 
 267:Drivers/RTT/SEGGER_RTT.c **** //
 268:Drivers/RTT/SEGGER_RTT.c **** // RTT Control Block and allocate buffers for channel 0
 269:Drivers/RTT/SEGGER_RTT.c **** //
 270:Drivers/RTT/SEGGER_RTT.c **** SEGGER_RTT_PUT_CB_SECTION(SEGGER_RTT_CB_ALIGN(SEGGER_RTT_CB _SEGGER_RTT));
 271:Drivers/RTT/SEGGER_RTT.c **** SEGGER_RTT_PUT_BUFFER_SECTION(SEGGER_RTT_BUFFER_ALIGN(static char _acUpBuffer  [SEGGER_RTT__ROUND_U
 272:Drivers/RTT/SEGGER_RTT.c **** SEGGER_RTT_PUT_BUFFER_SECTION(SEGGER_RTT_BUFFER_ALIGN(static char _acDownBuffer[SEGGER_RTT__ROUND_U
 273:Drivers/RTT/SEGGER_RTT.c **** 
 274:Drivers/RTT/SEGGER_RTT.c **** static unsigned char _ActiveTerminal;
 275:Drivers/RTT/SEGGER_RTT.c **** 
 276:Drivers/RTT/SEGGER_RTT.c **** /*********************************************************************
 277:Drivers/RTT/SEGGER_RTT.c **** *
 278:Drivers/RTT/SEGGER_RTT.c **** *       Static functions
 279:Drivers/RTT/SEGGER_RTT.c **** *
 280:Drivers/RTT/SEGGER_RTT.c **** **********************************************************************
 281:Drivers/RTT/SEGGER_RTT.c **** */
 282:Drivers/RTT/SEGGER_RTT.c **** 
 283:Drivers/RTT/SEGGER_RTT.c **** /*********************************************************************
 284:Drivers/RTT/SEGGER_RTT.c **** *
 285:Drivers/RTT/SEGGER_RTT.c **** *       _DoInit()
 286:Drivers/RTT/SEGGER_RTT.c **** *
 287:Drivers/RTT/SEGGER_RTT.c **** *  Function description
 288:Drivers/RTT/SEGGER_RTT.c **** *    Initializes the control block an buffers.
 289:Drivers/RTT/SEGGER_RTT.c **** *    May only be called via INIT() to avoid overriding settings.
 290:Drivers/RTT/SEGGER_RTT.c **** *
 291:Drivers/RTT/SEGGER_RTT.c **** */
 292:Drivers/RTT/SEGGER_RTT.c **** #define INIT()  {                                                                                  
 293:Drivers/RTT/SEGGER_RTT.c ****                   volatile SEGGER_RTT_CB* pRTTCBInit;                                              
 294:Drivers/RTT/SEGGER_RTT.c ****                   pRTTCBInit = (volatile SEGGER_RTT_CB*)((char*)&_SEGGER_RTT + SEGGER_RTT_UNCACHED_
 295:Drivers/RTT/SEGGER_RTT.c ****                   do {                                                                             
 296:Drivers/RTT/SEGGER_RTT.c ****                     if (pRTTCBInit->acID[0] == '\0') {                                             
 297:Drivers/RTT/SEGGER_RTT.c ****                       _DoInit();                                                                   
 298:Drivers/RTT/SEGGER_RTT.c ****                     }                                                                              
 299:Drivers/RTT/SEGGER_RTT.c ****                   } while (0);                                                                     
 300:Drivers/RTT/SEGGER_RTT.c ****                 }
 301:Drivers/RTT/SEGGER_RTT.c **** 
 302:Drivers/RTT/SEGGER_RTT.c **** static void _DoInit(void) {
 303:Drivers/RTT/SEGGER_RTT.c ****   volatile SEGGER_RTT_CB* p;   // Volatile to make sure that compiler cannot change the order of ac
 304:Drivers/RTT/SEGGER_RTT.c ****   //
 305:Drivers/RTT/SEGGER_RTT.c ****   // Initialize control block
 306:Drivers/RTT/SEGGER_RTT.c ****   //
 307:Drivers/RTT/SEGGER_RTT.c ****   p                     = (volatile SEGGER_RTT_CB*)((char*)&_SEGGER_RTT + SEGGER_RTT_UNCACHED_OFF);
 308:Drivers/RTT/SEGGER_RTT.c ****   p->MaxNumUpBuffers    = SEGGER_RTT_MAX_NUM_UP_BUFFERS;
 309:Drivers/RTT/SEGGER_RTT.c ****   p->MaxNumDownBuffers  = SEGGER_RTT_MAX_NUM_DOWN_BUFFERS;
 310:Drivers/RTT/SEGGER_RTT.c ****   //
 311:Drivers/RTT/SEGGER_RTT.c ****   // Initialize up buffer 0
 312:Drivers/RTT/SEGGER_RTT.c ****   //
 313:Drivers/RTT/SEGGER_RTT.c ****   p->aUp[0].sName         = "Terminal";
 314:Drivers/RTT/SEGGER_RTT.c ****   p->aUp[0].pBuffer       = _acUpBuffer;
 315:Drivers/RTT/SEGGER_RTT.c ****   p->aUp[0].SizeOfBuffer  = BUFFER_SIZE_UP;
ARM GAS  C:\Users\seblo\AppData\Local\Temp\ccqImqhn.s 			page 7


 316:Drivers/RTT/SEGGER_RTT.c ****   p->aUp[0].RdOff         = 0u;
 317:Drivers/RTT/SEGGER_RTT.c ****   p->aUp[0].WrOff         = 0u;
 318:Drivers/RTT/SEGGER_RTT.c ****   p->aUp[0].Flags         = SEGGER_RTT_MODE_DEFAULT;
 319:Drivers/RTT/SEGGER_RTT.c ****   //
 320:Drivers/RTT/SEGGER_RTT.c ****   // Initialize down buffer 0
 321:Drivers/RTT/SEGGER_RTT.c ****   //
 322:Drivers/RTT/SEGGER_RTT.c ****   p->aDown[0].sName         = "Terminal";
 323:Drivers/RTT/SEGGER_RTT.c ****   p->aDown[0].pBuffer       = _acDownBuffer;
 324:Drivers/RTT/SEGGER_RTT.c ****   p->aDown[0].SizeOfBuffer  = BUFFER_SIZE_DOWN;
 325:Drivers/RTT/SEGGER_RTT.c ****   p->aDown[0].RdOff         = 0u;
 326:Drivers/RTT/SEGGER_RTT.c ****   p->aDown[0].WrOff         = 0u;
 327:Drivers/RTT/SEGGER_RTT.c ****   p->aDown[0].Flags         = SEGGER_RTT_MODE_DEFAULT;
 328:Drivers/RTT/SEGGER_RTT.c ****   //
 329:Drivers/RTT/SEGGER_RTT.c ****   // Finish initialization of the control block.
 330:Drivers/RTT/SEGGER_RTT.c ****   // Copy Id string in three steps to make sure "SEGGER RTT" is not found
 331:Drivers/RTT/SEGGER_RTT.c ****   // in initializer memory (usually flash) by J-Link
 332:Drivers/RTT/SEGGER_RTT.c ****   //
 333:Drivers/RTT/SEGGER_RTT.c ****   STRCPY((char*)&p->acID[7], "RTT");
 334:Drivers/RTT/SEGGER_RTT.c ****   RTT__DMB();                       // Force order of memory accessed inside core for cores that al
 335:Drivers/RTT/SEGGER_RTT.c ****   STRCPY((char*)&p->acID[0], "SEGGER");
 336:Drivers/RTT/SEGGER_RTT.c ****   RTT__DMB();                       // Force order of memory accessed inside core for cores that al
 337:Drivers/RTT/SEGGER_RTT.c ****   p->acID[6] = ' ';
 338:Drivers/RTT/SEGGER_RTT.c ****   RTT__DMB();                       // Force order of memory accessed inside core for cores that al
 339:Drivers/RTT/SEGGER_RTT.c **** }
 340:Drivers/RTT/SEGGER_RTT.c **** 
 341:Drivers/RTT/SEGGER_RTT.c **** /*********************************************************************
 342:Drivers/RTT/SEGGER_RTT.c **** *
 343:Drivers/RTT/SEGGER_RTT.c **** *       _WriteBlocking()
 344:Drivers/RTT/SEGGER_RTT.c **** *
 345:Drivers/RTT/SEGGER_RTT.c **** *  Function description
 346:Drivers/RTT/SEGGER_RTT.c **** *    Stores a specified number of characters in SEGGER RTT ring buffer
 347:Drivers/RTT/SEGGER_RTT.c **** *    and updates the associated write pointer which is periodically
 348:Drivers/RTT/SEGGER_RTT.c **** *    read by the host.
 349:Drivers/RTT/SEGGER_RTT.c **** *    The caller is responsible for managing the write chunk sizes as
 350:Drivers/RTT/SEGGER_RTT.c **** *    _WriteBlocking() will block until all data has been posted successfully.
 351:Drivers/RTT/SEGGER_RTT.c **** *
 352:Drivers/RTT/SEGGER_RTT.c **** *  Parameters
 353:Drivers/RTT/SEGGER_RTT.c **** *    pRing        Ring buffer to post to.
 354:Drivers/RTT/SEGGER_RTT.c **** *    pBuffer      Pointer to character array. Does not need to point to a \0 terminated string.
 355:Drivers/RTT/SEGGER_RTT.c **** *    NumBytes     Number of bytes to be stored in the SEGGER RTT control block.
 356:Drivers/RTT/SEGGER_RTT.c **** *
 357:Drivers/RTT/SEGGER_RTT.c **** *  Return value
 358:Drivers/RTT/SEGGER_RTT.c **** *    >= 0 - Number of bytes written into buffer.
 359:Drivers/RTT/SEGGER_RTT.c **** */
 360:Drivers/RTT/SEGGER_RTT.c **** static unsigned _WriteBlocking(SEGGER_RTT_BUFFER_UP* pRing, const char* pBuffer, unsigned NumBytes)
 361:Drivers/RTT/SEGGER_RTT.c ****   unsigned NumBytesToWrite;
 362:Drivers/RTT/SEGGER_RTT.c ****   unsigned NumBytesWritten;
 363:Drivers/RTT/SEGGER_RTT.c ****   unsigned RdOff;
 364:Drivers/RTT/SEGGER_RTT.c ****   unsigned WrOff;
 365:Drivers/RTT/SEGGER_RTT.c ****   volatile char* pDst;
 366:Drivers/RTT/SEGGER_RTT.c ****   //
 367:Drivers/RTT/SEGGER_RTT.c ****   // Write data to buffer and handle wrap-around if necessary
 368:Drivers/RTT/SEGGER_RTT.c ****   //
 369:Drivers/RTT/SEGGER_RTT.c ****   NumBytesWritten = 0u;
 370:Drivers/RTT/SEGGER_RTT.c ****   WrOff = pRing->WrOff;
 371:Drivers/RTT/SEGGER_RTT.c ****   do {
 372:Drivers/RTT/SEGGER_RTT.c ****     RdOff = pRing->RdOff;                         // May be changed by host (debug probe) in the me
ARM GAS  C:\Users\seblo\AppData\Local\Temp\ccqImqhn.s 			page 8


 373:Drivers/RTT/SEGGER_RTT.c ****     if (RdOff > WrOff) {
 374:Drivers/RTT/SEGGER_RTT.c ****       NumBytesToWrite = RdOff - WrOff - 1u;
 375:Drivers/RTT/SEGGER_RTT.c ****     } else {
 376:Drivers/RTT/SEGGER_RTT.c ****       NumBytesToWrite = pRing->SizeOfBuffer - (WrOff - RdOff + 1u);
 377:Drivers/RTT/SEGGER_RTT.c ****     }
 378:Drivers/RTT/SEGGER_RTT.c ****     NumBytesToWrite = MIN(NumBytesToWrite, (pRing->SizeOfBuffer - WrOff));      // Number of bytes 
 379:Drivers/RTT/SEGGER_RTT.c ****     NumBytesToWrite = MIN(NumBytesToWrite, NumBytes);
 380:Drivers/RTT/SEGGER_RTT.c ****     pDst = (pRing->pBuffer + WrOff) + SEGGER_RTT_UNCACHED_OFF;
 381:Drivers/RTT/SEGGER_RTT.c **** #if SEGGER_RTT_MEMCPY_USE_BYTELOOP
 382:Drivers/RTT/SEGGER_RTT.c ****     NumBytesWritten += NumBytesToWrite;
 383:Drivers/RTT/SEGGER_RTT.c ****     NumBytes        -= NumBytesToWrite;
 384:Drivers/RTT/SEGGER_RTT.c ****     WrOff           += NumBytesToWrite;
 385:Drivers/RTT/SEGGER_RTT.c ****     while (NumBytesToWrite--) {
 386:Drivers/RTT/SEGGER_RTT.c ****       *pDst++ = *pBuffer++;
 387:Drivers/RTT/SEGGER_RTT.c ****     };
 388:Drivers/RTT/SEGGER_RTT.c **** #else
 389:Drivers/RTT/SEGGER_RTT.c ****     SEGGER_RTT_MEMCPY((void*)pDst, pBuffer, NumBytesToWrite);
 390:Drivers/RTT/SEGGER_RTT.c ****     NumBytesWritten += NumBytesToWrite;
 391:Drivers/RTT/SEGGER_RTT.c ****     pBuffer         += NumBytesToWrite;
 392:Drivers/RTT/SEGGER_RTT.c ****     NumBytes        -= NumBytesToWrite;
 393:Drivers/RTT/SEGGER_RTT.c ****     WrOff           += NumBytesToWrite;
 394:Drivers/RTT/SEGGER_RTT.c **** #endif
 395:Drivers/RTT/SEGGER_RTT.c ****     if (WrOff == pRing->SizeOfBuffer) {
 396:Drivers/RTT/SEGGER_RTT.c ****       WrOff = 0u;
 397:Drivers/RTT/SEGGER_RTT.c ****     }
 398:Drivers/RTT/SEGGER_RTT.c ****     RTT__DMB();                     // Force data write to be complete before writing the <WrOff>, 
 399:Drivers/RTT/SEGGER_RTT.c ****     pRing->WrOff = WrOff;
 400:Drivers/RTT/SEGGER_RTT.c ****   } while (NumBytes);
 401:Drivers/RTT/SEGGER_RTT.c ****   return NumBytesWritten;
 402:Drivers/RTT/SEGGER_RTT.c **** }
 403:Drivers/RTT/SEGGER_RTT.c **** 
 404:Drivers/RTT/SEGGER_RTT.c **** /*********************************************************************
 405:Drivers/RTT/SEGGER_RTT.c **** *
 406:Drivers/RTT/SEGGER_RTT.c **** *       _WriteNoCheck()
 407:Drivers/RTT/SEGGER_RTT.c **** *
 408:Drivers/RTT/SEGGER_RTT.c **** *  Function description
 409:Drivers/RTT/SEGGER_RTT.c **** *    Stores a specified number of characters in SEGGER RTT ring buffer
 410:Drivers/RTT/SEGGER_RTT.c **** *    and updates the associated write pointer which is periodically
 411:Drivers/RTT/SEGGER_RTT.c **** *    read by the host.
 412:Drivers/RTT/SEGGER_RTT.c **** *    It is callers responsibility to make sure data actually fits in buffer.
 413:Drivers/RTT/SEGGER_RTT.c **** *
 414:Drivers/RTT/SEGGER_RTT.c **** *  Parameters
 415:Drivers/RTT/SEGGER_RTT.c **** *    pRing        Ring buffer to post to.
 416:Drivers/RTT/SEGGER_RTT.c **** *    pBuffer      Pointer to character array. Does not need to point to a \0 terminated string.
 417:Drivers/RTT/SEGGER_RTT.c **** *    NumBytes     Number of bytes to be stored in the SEGGER RTT control block.
 418:Drivers/RTT/SEGGER_RTT.c **** *
 419:Drivers/RTT/SEGGER_RTT.c **** *  Notes
 420:Drivers/RTT/SEGGER_RTT.c **** *    (1) If there might not be enough space in the "Up"-buffer, call _WriteBlocking
 421:Drivers/RTT/SEGGER_RTT.c **** */
 422:Drivers/RTT/SEGGER_RTT.c **** static void _WriteNoCheck(SEGGER_RTT_BUFFER_UP* pRing, const char* pData, unsigned NumBytes) {
 423:Drivers/RTT/SEGGER_RTT.c ****   unsigned NumBytesAtOnce;
 424:Drivers/RTT/SEGGER_RTT.c ****   unsigned WrOff;
 425:Drivers/RTT/SEGGER_RTT.c ****   unsigned Rem;
 426:Drivers/RTT/SEGGER_RTT.c ****   volatile char* pDst;
 427:Drivers/RTT/SEGGER_RTT.c **** 
 428:Drivers/RTT/SEGGER_RTT.c ****   WrOff = pRing->WrOff;
 429:Drivers/RTT/SEGGER_RTT.c ****   Rem = pRing->SizeOfBuffer - WrOff;
ARM GAS  C:\Users\seblo\AppData\Local\Temp\ccqImqhn.s 			page 9


 430:Drivers/RTT/SEGGER_RTT.c ****   if (Rem > NumBytes) {
 431:Drivers/RTT/SEGGER_RTT.c ****     //
 432:Drivers/RTT/SEGGER_RTT.c ****     // All data fits before wrap around
 433:Drivers/RTT/SEGGER_RTT.c ****     //
 434:Drivers/RTT/SEGGER_RTT.c ****     pDst = (pRing->pBuffer + WrOff) + SEGGER_RTT_UNCACHED_OFF;
 435:Drivers/RTT/SEGGER_RTT.c **** #if SEGGER_RTT_MEMCPY_USE_BYTELOOP
 436:Drivers/RTT/SEGGER_RTT.c ****     WrOff += NumBytes;
 437:Drivers/RTT/SEGGER_RTT.c ****     while (NumBytes--) {
 438:Drivers/RTT/SEGGER_RTT.c ****       *pDst++ = *pData++;
 439:Drivers/RTT/SEGGER_RTT.c ****     };
 440:Drivers/RTT/SEGGER_RTT.c ****     RTT__DMB();                     // Force data write to be complete before writing the <WrOff>, 
 441:Drivers/RTT/SEGGER_RTT.c ****     pRing->WrOff = WrOff;
 442:Drivers/RTT/SEGGER_RTT.c **** #else
 443:Drivers/RTT/SEGGER_RTT.c ****     SEGGER_RTT_MEMCPY((void*)pDst, pData, NumBytes);
 444:Drivers/RTT/SEGGER_RTT.c ****     RTT__DMB();                     // Force data write to be complete before writing the <WrOff>, 
 445:Drivers/RTT/SEGGER_RTT.c ****     pRing->WrOff = WrOff + NumBytes;
 446:Drivers/RTT/SEGGER_RTT.c **** #endif
 447:Drivers/RTT/SEGGER_RTT.c ****   } else {
 448:Drivers/RTT/SEGGER_RTT.c ****     //
 449:Drivers/RTT/SEGGER_RTT.c ****     // We reach the end of the buffer, so need to wrap around
 450:Drivers/RTT/SEGGER_RTT.c ****     //
 451:Drivers/RTT/SEGGER_RTT.c **** #if SEGGER_RTT_MEMCPY_USE_BYTELOOP
 452:Drivers/RTT/SEGGER_RTT.c ****     pDst = (pRing->pBuffer + WrOff) + SEGGER_RTT_UNCACHED_OFF;
 453:Drivers/RTT/SEGGER_RTT.c ****     NumBytesAtOnce = Rem;
 454:Drivers/RTT/SEGGER_RTT.c ****     while (NumBytesAtOnce--) {
 455:Drivers/RTT/SEGGER_RTT.c ****       *pDst++ = *pData++;
 456:Drivers/RTT/SEGGER_RTT.c ****     };
 457:Drivers/RTT/SEGGER_RTT.c ****     pDst = pRing->pBuffer + SEGGER_RTT_UNCACHED_OFF;
 458:Drivers/RTT/SEGGER_RTT.c ****     NumBytesAtOnce = NumBytes - Rem;
 459:Drivers/RTT/SEGGER_RTT.c ****     while (NumBytesAtOnce--) {
 460:Drivers/RTT/SEGGER_RTT.c ****       *pDst++ = *pData++;
 461:Drivers/RTT/SEGGER_RTT.c ****     };
 462:Drivers/RTT/SEGGER_RTT.c ****     RTT__DMB();                     // Force data write to be complete before writing the <WrOff>, 
 463:Drivers/RTT/SEGGER_RTT.c ****     pRing->WrOff = NumBytes - Rem;
 464:Drivers/RTT/SEGGER_RTT.c **** #else
 465:Drivers/RTT/SEGGER_RTT.c ****     NumBytesAtOnce = Rem;
 466:Drivers/RTT/SEGGER_RTT.c ****     pDst = (pRing->pBuffer + WrOff) + SEGGER_RTT_UNCACHED_OFF;
 467:Drivers/RTT/SEGGER_RTT.c ****     SEGGER_RTT_MEMCPY((void*)pDst, pData, NumBytesAtOnce);
 468:Drivers/RTT/SEGGER_RTT.c ****     NumBytesAtOnce = NumBytes - Rem;
 469:Drivers/RTT/SEGGER_RTT.c ****     pDst = pRing->pBuffer + SEGGER_RTT_UNCACHED_OFF;
 470:Drivers/RTT/SEGGER_RTT.c ****     SEGGER_RTT_MEMCPY((void*)pDst, pData + Rem, NumBytesAtOnce);
 471:Drivers/RTT/SEGGER_RTT.c ****     RTT__DMB();                     // Force data write to be complete before writing the <WrOff>, 
 472:Drivers/RTT/SEGGER_RTT.c ****     pRing->WrOff = NumBytesAtOnce;
 473:Drivers/RTT/SEGGER_RTT.c **** #endif
 474:Drivers/RTT/SEGGER_RTT.c ****   }
 475:Drivers/RTT/SEGGER_RTT.c **** }
 476:Drivers/RTT/SEGGER_RTT.c **** 
 477:Drivers/RTT/SEGGER_RTT.c **** /*********************************************************************
 478:Drivers/RTT/SEGGER_RTT.c **** *
 479:Drivers/RTT/SEGGER_RTT.c **** *       _PostTerminalSwitch()
 480:Drivers/RTT/SEGGER_RTT.c **** *
 481:Drivers/RTT/SEGGER_RTT.c **** *  Function description
 482:Drivers/RTT/SEGGER_RTT.c **** *    Switch terminal to the given terminal ID.  It is the caller's
 483:Drivers/RTT/SEGGER_RTT.c **** *    responsibility to ensure the terminal ID is correct and there is
 484:Drivers/RTT/SEGGER_RTT.c **** *    enough space in the buffer for this to complete successfully.
 485:Drivers/RTT/SEGGER_RTT.c **** *
 486:Drivers/RTT/SEGGER_RTT.c **** *  Parameters
ARM GAS  C:\Users\seblo\AppData\Local\Temp\ccqImqhn.s 			page 10


 487:Drivers/RTT/SEGGER_RTT.c **** *    pRing        Ring buffer to post to.
 488:Drivers/RTT/SEGGER_RTT.c **** *    TerminalId   Terminal ID to switch to.
 489:Drivers/RTT/SEGGER_RTT.c **** */
 490:Drivers/RTT/SEGGER_RTT.c **** static void _PostTerminalSwitch(SEGGER_RTT_BUFFER_UP* pRing, unsigned char TerminalId) {
 491:Drivers/RTT/SEGGER_RTT.c ****   unsigned char ac[2];
 492:Drivers/RTT/SEGGER_RTT.c **** 
 493:Drivers/RTT/SEGGER_RTT.c ****   ac[0] = 0xFFu;
 494:Drivers/RTT/SEGGER_RTT.c ****   ac[1] = _aTerminalId[TerminalId];  // Caller made already sure that TerminalId does not exceed ou
 495:Drivers/RTT/SEGGER_RTT.c ****   _WriteBlocking(pRing, (const char*)ac, 2u);
 496:Drivers/RTT/SEGGER_RTT.c **** }
 497:Drivers/RTT/SEGGER_RTT.c **** 
 498:Drivers/RTT/SEGGER_RTT.c **** /*********************************************************************
 499:Drivers/RTT/SEGGER_RTT.c **** *
 500:Drivers/RTT/SEGGER_RTT.c **** *       _GetAvailWriteSpace()
 501:Drivers/RTT/SEGGER_RTT.c **** *
 502:Drivers/RTT/SEGGER_RTT.c **** *  Function description
 503:Drivers/RTT/SEGGER_RTT.c **** *    Returns the number of bytes that can be written to the ring
 504:Drivers/RTT/SEGGER_RTT.c **** *    buffer without blocking.
 505:Drivers/RTT/SEGGER_RTT.c **** *
 506:Drivers/RTT/SEGGER_RTT.c **** *  Parameters
 507:Drivers/RTT/SEGGER_RTT.c **** *    pRing        Ring buffer to check.
 508:Drivers/RTT/SEGGER_RTT.c **** *
 509:Drivers/RTT/SEGGER_RTT.c **** *  Return value
 510:Drivers/RTT/SEGGER_RTT.c **** *    Number of bytes that are free in the buffer.
 511:Drivers/RTT/SEGGER_RTT.c **** */
 512:Drivers/RTT/SEGGER_RTT.c **** static unsigned _GetAvailWriteSpace(SEGGER_RTT_BUFFER_UP* pRing) {
  29              		.loc 1 512 66 view -0
  30              		.cfi_startproc
  31              		@ args = 0, pretend = 0, frame = 0
  32              		@ frame_needed = 0, uses_anonymous_args = 0
  33              		@ link register save eliminated.
 513:Drivers/RTT/SEGGER_RTT.c ****   unsigned RdOff;
  34              		.loc 1 513 3 view .LVU1
 514:Drivers/RTT/SEGGER_RTT.c ****   unsigned WrOff;
  35              		.loc 1 514 3 view .LVU2
 515:Drivers/RTT/SEGGER_RTT.c ****   unsigned r;
  36              		.loc 1 515 3 view .LVU3
 516:Drivers/RTT/SEGGER_RTT.c ****   //
 517:Drivers/RTT/SEGGER_RTT.c ****   // Avoid warnings regarding volatile access order.  It's not a problem
 518:Drivers/RTT/SEGGER_RTT.c ****   // in this case, but dampen compiler enthusiasm.
 519:Drivers/RTT/SEGGER_RTT.c ****   //
 520:Drivers/RTT/SEGGER_RTT.c ****   RdOff = pRing->RdOff;
  37              		.loc 1 520 3 view .LVU4
  38              		.loc 1 520 9 is_stmt 0 view .LVU5
  39 0000 0369     		ldr	r3, [r0, #16]
  40              	.LVL1:
 521:Drivers/RTT/SEGGER_RTT.c ****   WrOff = pRing->WrOff;
  41              		.loc 1 521 3 is_stmt 1 view .LVU6
  42              		.loc 1 521 9 is_stmt 0 view .LVU7
  43 0002 C268     		ldr	r2, [r0, #12]
  44              	.LVL2:
 522:Drivers/RTT/SEGGER_RTT.c ****   if (RdOff <= WrOff) {
  45              		.loc 1 522 3 is_stmt 1 view .LVU8
  46              		.loc 1 522 6 is_stmt 0 view .LVU9
  47 0004 9342     		cmp	r3, r2
  48 0006 04D8     		bhi	.L2
 523:Drivers/RTT/SEGGER_RTT.c ****     r = pRing->SizeOfBuffer - 1u - WrOff + RdOff;
ARM GAS  C:\Users\seblo\AppData\Local\Temp\ccqImqhn.s 			page 11


  49              		.loc 1 523 5 is_stmt 1 view .LVU10
  50              		.loc 1 523 14 is_stmt 0 view .LVU11
  51 0008 8068     		ldr	r0, [r0, #8]
  52              	.LVL3:
  53              		.loc 1 523 34 view .LVU12
  54 000a 801A     		subs	r0, r0, r2
  55              		.loc 1 523 42 view .LVU13
  56 000c 0344     		add	r3, r3, r0
  57              	.LVL4:
  58              		.loc 1 523 7 view .LVU14
  59 000e 581E     		subs	r0, r3, #1
  60              	.LVL5:
  61              		.loc 1 523 7 view .LVU15
  62 0010 7047     		bx	lr
  63              	.LVL6:
  64              	.L2:
 524:Drivers/RTT/SEGGER_RTT.c ****   } else {
 525:Drivers/RTT/SEGGER_RTT.c ****     r = RdOff - WrOff - 1u;
  65              		.loc 1 525 5 is_stmt 1 view .LVU16
  66              		.loc 1 525 15 is_stmt 0 view .LVU17
  67 0012 9B1A     		subs	r3, r3, r2
  68              	.LVL7:
  69              		.loc 1 525 7 view .LVU18
  70 0014 581E     		subs	r0, r3, #1
  71              	.LVL8:
 526:Drivers/RTT/SEGGER_RTT.c ****   }
 527:Drivers/RTT/SEGGER_RTT.c ****   return r;
  72              		.loc 1 527 3 is_stmt 1 view .LVU19
 528:Drivers/RTT/SEGGER_RTT.c **** }
  73              		.loc 1 528 1 is_stmt 0 view .LVU20
  74 0016 7047     		bx	lr
  75              		.cfi_endproc
  76              	.LFE4:
  78              		.section	.text._WriteNoCheck,"ax",%progbits
  79              		.align	1
  80              		.syntax unified
  81              		.thumb
  82              		.thumb_func
  83              		.fpu fpv5-sp-d16
  85              	_WriteNoCheck:
  86              	.LVL9:
  87              	.LFB2:
 422:Drivers/RTT/SEGGER_RTT.c ****   unsigned NumBytesAtOnce;
  88              		.loc 1 422 94 is_stmt 1 view -0
  89              		.cfi_startproc
  90              		@ args = 0, pretend = 0, frame = 0
  91              		@ frame_needed = 0, uses_anonymous_args = 0
 422:Drivers/RTT/SEGGER_RTT.c ****   unsigned NumBytesAtOnce;
  92              		.loc 1 422 94 is_stmt 0 view .LVU22
  93 0000 2DE9F843 		push	{r3, r4, r5, r6, r7, r8, r9, lr}
  94              	.LCFI0:
  95              		.cfi_def_cfa_offset 32
  96              		.cfi_offset 3, -32
  97              		.cfi_offset 4, -28
  98              		.cfi_offset 5, -24
  99              		.cfi_offset 6, -20
 100              		.cfi_offset 7, -16
ARM GAS  C:\Users\seblo\AppData\Local\Temp\ccqImqhn.s 			page 12


 101              		.cfi_offset 8, -12
 102              		.cfi_offset 9, -8
 103              		.cfi_offset 14, -4
 104 0004 0446     		mov	r4, r0
 105 0006 8846     		mov	r8, r1
 106 0008 1646     		mov	r6, r2
 423:Drivers/RTT/SEGGER_RTT.c ****   unsigned WrOff;
 107              		.loc 1 423 3 is_stmt 1 view .LVU23
 424:Drivers/RTT/SEGGER_RTT.c ****   unsigned Rem;
 108              		.loc 1 424 3 view .LVU24
 425:Drivers/RTT/SEGGER_RTT.c ****   volatile char* pDst;
 109              		.loc 1 425 3 view .LVU25
 426:Drivers/RTT/SEGGER_RTT.c **** 
 110              		.loc 1 426 3 view .LVU26
 428:Drivers/RTT/SEGGER_RTT.c ****   Rem = pRing->SizeOfBuffer - WrOff;
 111              		.loc 1 428 3 view .LVU27
 428:Drivers/RTT/SEGGER_RTT.c ****   Rem = pRing->SizeOfBuffer - WrOff;
 112              		.loc 1 428 9 is_stmt 0 view .LVU28
 113 000a C568     		ldr	r5, [r0, #12]
 114              	.LVL10:
 429:Drivers/RTT/SEGGER_RTT.c ****   if (Rem > NumBytes) {
 115              		.loc 1 429 3 is_stmt 1 view .LVU29
 429:Drivers/RTT/SEGGER_RTT.c ****   if (Rem > NumBytes) {
 116              		.loc 1 429 14 is_stmt 0 view .LVU30
 117 000c 8768     		ldr	r7, [r0, #8]
 429:Drivers/RTT/SEGGER_RTT.c ****   if (Rem > NumBytes) {
 118              		.loc 1 429 7 view .LVU31
 119 000e A7EB0509 		sub	r9, r7, r5
 120              	.LVL11:
 430:Drivers/RTT/SEGGER_RTT.c ****     //
 121              		.loc 1 430 3 is_stmt 1 view .LVU32
 430:Drivers/RTT/SEGGER_RTT.c ****     //
 122              		.loc 1 430 6 is_stmt 0 view .LVU33
 123 0012 9145     		cmp	r9, r2
 124 0014 09D9     		bls	.L5
 434:Drivers/RTT/SEGGER_RTT.c **** #if SEGGER_RTT_MEMCPY_USE_BYTELOOP
 125              		.loc 1 434 5 is_stmt 1 view .LVU34
 434:Drivers/RTT/SEGGER_RTT.c **** #if SEGGER_RTT_MEMCPY_USE_BYTELOOP
 126              		.loc 1 434 18 is_stmt 0 view .LVU35
 127 0016 4068     		ldr	r0, [r0, #4]
 128              	.LVL12:
 443:Drivers/RTT/SEGGER_RTT.c ****     RTT__DMB();                     // Force data write to be complete before writing the <WrOff>, 
 129              		.loc 1 443 5 is_stmt 1 view .LVU36
 130 0018 2844     		add	r0, r0, r5
 131              	.LVL13:
 443:Drivers/RTT/SEGGER_RTT.c ****     RTT__DMB();                     // Force data write to be complete before writing the <WrOff>, 
 132              		.loc 1 443 5 is_stmt 0 view .LVU37
 133 001a FFF7FEFF 		bl	memcpy
 134              	.LVL14:
 444:Drivers/RTT/SEGGER_RTT.c ****     pRing->WrOff = WrOff + NumBytes;
 135              		.loc 1 444 5 is_stmt 1 view .LVU38
 136              		.syntax unified
 137              	@ 444 "Drivers/RTT/SEGGER_RTT.c" 1
 138 001e BFF35F8F 		dmb
 139              	
 140              	@ 0 "" 2
 444:Drivers/RTT/SEGGER_RTT.c ****     pRing->WrOff = WrOff + NumBytes;
ARM GAS  C:\Users\seblo\AppData\Local\Temp\ccqImqhn.s 			page 13


 141              		.loc 1 444 15 view .LVU39
 445:Drivers/RTT/SEGGER_RTT.c **** #endif
 142              		.loc 1 445 5 view .LVU40
 445:Drivers/RTT/SEGGER_RTT.c **** #endif
 143              		.loc 1 445 26 is_stmt 0 view .LVU41
 144              		.thumb
 145              		.syntax unified
 146 0022 3544     		add	r5, r5, r6
 147              	.LVL15:
 445:Drivers/RTT/SEGGER_RTT.c **** #endif
 148              		.loc 1 445 18 view .LVU42
 149 0024 E560     		str	r5, [r4, #12]
 150              	.L4:
 475:Drivers/RTT/SEGGER_RTT.c **** 
 151              		.loc 1 475 1 view .LVU43
 152 0026 BDE8F883 		pop	{r3, r4, r5, r6, r7, r8, r9, pc}
 153              	.LVL16:
 154              	.L5:
 465:Drivers/RTT/SEGGER_RTT.c ****     pDst = (pRing->pBuffer + WrOff) + SEGGER_RTT_UNCACHED_OFF;
 155              		.loc 1 465 5 is_stmt 1 view .LVU44
 466:Drivers/RTT/SEGGER_RTT.c ****     SEGGER_RTT_MEMCPY((void*)pDst, pData, NumBytesAtOnce);
 156              		.loc 1 466 5 view .LVU45
 466:Drivers/RTT/SEGGER_RTT.c ****     SEGGER_RTT_MEMCPY((void*)pDst, pData, NumBytesAtOnce);
 157              		.loc 1 466 18 is_stmt 0 view .LVU46
 158 002a 4068     		ldr	r0, [r0, #4]
 159              	.LVL17:
 467:Drivers/RTT/SEGGER_RTT.c ****     NumBytesAtOnce = NumBytes - Rem;
 160              		.loc 1 467 5 is_stmt 1 view .LVU47
 161 002c 4A46     		mov	r2, r9
 162              	.LVL18:
 467:Drivers/RTT/SEGGER_RTT.c ****     NumBytesAtOnce = NumBytes - Rem;
 163              		.loc 1 467 5 is_stmt 0 view .LVU48
 164 002e 2844     		add	r0, r0, r5
 165              	.LVL19:
 467:Drivers/RTT/SEGGER_RTT.c ****     NumBytesAtOnce = NumBytes - Rem;
 166              		.loc 1 467 5 view .LVU49
 167 0030 FFF7FEFF 		bl	memcpy
 168              	.LVL20:
 468:Drivers/RTT/SEGGER_RTT.c ****     pDst = pRing->pBuffer + SEGGER_RTT_UNCACHED_OFF;
 169              		.loc 1 468 5 is_stmt 1 view .LVU50
 468:Drivers/RTT/SEGGER_RTT.c ****     pDst = pRing->pBuffer + SEGGER_RTT_UNCACHED_OFF;
 170              		.loc 1 468 20 is_stmt 0 view .LVU51
 171 0034 ED1B     		subs	r5, r5, r7
 172              	.LVL21:
 468:Drivers/RTT/SEGGER_RTT.c ****     pDst = pRing->pBuffer + SEGGER_RTT_UNCACHED_OFF;
 173              		.loc 1 468 20 view .LVU52
 174 0036 3544     		add	r5, r5, r6
 175              	.LVL22:
 469:Drivers/RTT/SEGGER_RTT.c ****     SEGGER_RTT_MEMCPY((void*)pDst, pData + Rem, NumBytesAtOnce);
 176              		.loc 1 469 5 is_stmt 1 view .LVU53
 470:Drivers/RTT/SEGGER_RTT.c ****     RTT__DMB();                     // Force data write to be complete before writing the <WrOff>, 
 177              		.loc 1 470 5 view .LVU54
 178 0038 2A46     		mov	r2, r5
 179 003a 08EB0901 		add	r1, r8, r9
 180 003e 6068     		ldr	r0, [r4, #4]
 181 0040 FFF7FEFF 		bl	memcpy
 182              	.LVL23:
ARM GAS  C:\Users\seblo\AppData\Local\Temp\ccqImqhn.s 			page 14


 471:Drivers/RTT/SEGGER_RTT.c ****     pRing->WrOff = NumBytesAtOnce;
 183              		.loc 1 471 5 view .LVU55
 184              		.syntax unified
 185              	@ 471 "Drivers/RTT/SEGGER_RTT.c" 1
 186 0044 BFF35F8F 		dmb
 187              	
 188              	@ 0 "" 2
 471:Drivers/RTT/SEGGER_RTT.c ****     pRing->WrOff = NumBytesAtOnce;
 189              		.loc 1 471 15 view .LVU56
 472:Drivers/RTT/SEGGER_RTT.c **** #endif
 190              		.loc 1 472 5 view .LVU57
 472:Drivers/RTT/SEGGER_RTT.c **** #endif
 191              		.loc 1 472 18 is_stmt 0 view .LVU58
 192              		.thumb
 193              		.syntax unified
 194 0048 E560     		str	r5, [r4, #12]
 475:Drivers/RTT/SEGGER_RTT.c **** 
 195              		.loc 1 475 1 view .LVU59
 196 004a ECE7     		b	.L4
 197              		.cfi_endproc
 198              	.LFE2:
 200              		.section	.text._WriteBlocking,"ax",%progbits
 201              		.align	1
 202              		.syntax unified
 203              		.thumb
 204              		.thumb_func
 205              		.fpu fpv5-sp-d16
 207              	_WriteBlocking:
 208              	.LVL24:
 209              	.LFB1:
 360:Drivers/RTT/SEGGER_RTT.c ****   unsigned NumBytesToWrite;
 210              		.loc 1 360 101 is_stmt 1 view -0
 211              		.cfi_startproc
 212              		@ args = 0, pretend = 0, frame = 0
 213              		@ frame_needed = 0, uses_anonymous_args = 0
 360:Drivers/RTT/SEGGER_RTT.c ****   unsigned NumBytesToWrite;
 214              		.loc 1 360 101 is_stmt 0 view .LVU61
 215 0000 2DE9F843 		push	{r3, r4, r5, r6, r7, r8, r9, lr}
 216              	.LCFI1:
 217              		.cfi_def_cfa_offset 32
 218              		.cfi_offset 3, -32
 219              		.cfi_offset 4, -28
 220              		.cfi_offset 5, -24
 221              		.cfi_offset 6, -20
 222              		.cfi_offset 7, -16
 223              		.cfi_offset 8, -12
 224              		.cfi_offset 9, -8
 225              		.cfi_offset 14, -4
 226 0004 0646     		mov	r6, r0
 227 0006 8846     		mov	r8, r1
 228 0008 1746     		mov	r7, r2
 361:Drivers/RTT/SEGGER_RTT.c ****   unsigned NumBytesWritten;
 229              		.loc 1 361 3 is_stmt 1 view .LVU62
 362:Drivers/RTT/SEGGER_RTT.c ****   unsigned RdOff;
 230              		.loc 1 362 3 view .LVU63
 363:Drivers/RTT/SEGGER_RTT.c ****   unsigned WrOff;
 231              		.loc 1 363 3 view .LVU64
ARM GAS  C:\Users\seblo\AppData\Local\Temp\ccqImqhn.s 			page 15


 364:Drivers/RTT/SEGGER_RTT.c ****   volatile char* pDst;
 232              		.loc 1 364 3 view .LVU65
 365:Drivers/RTT/SEGGER_RTT.c ****   //
 233              		.loc 1 365 3 view .LVU66
 369:Drivers/RTT/SEGGER_RTT.c ****   WrOff = pRing->WrOff;
 234              		.loc 1 369 3 view .LVU67
 235              	.LVL25:
 370:Drivers/RTT/SEGGER_RTT.c ****   do {
 236              		.loc 1 370 3 view .LVU68
 370:Drivers/RTT/SEGGER_RTT.c ****   do {
 237              		.loc 1 370 9 is_stmt 0 view .LVU69
 238 000a C568     		ldr	r5, [r0, #12]
 239              	.LVL26:
 369:Drivers/RTT/SEGGER_RTT.c ****   WrOff = pRing->WrOff;
 240              		.loc 1 369 19 view .LVU70
 241 000c 4FF00009 		mov	r9, #0
 242 0010 1AE0     		b	.L12
 243              	.LVL27:
 244              	.L17:
 374:Drivers/RTT/SEGGER_RTT.c ****     } else {
 245              		.loc 1 374 7 is_stmt 1 view .LVU71
 374:Drivers/RTT/SEGGER_RTT.c ****     } else {
 246              		.loc 1 374 31 is_stmt 0 view .LVU72
 247 0012 641B     		subs	r4, r4, r5
 248              	.LVL28:
 374:Drivers/RTT/SEGGER_RTT.c ****     } else {
 249              		.loc 1 374 23 view .LVU73
 250 0014 621E     		subs	r2, r4, #1
 251              	.LVL29:
 252              	.L10:
 378:Drivers/RTT/SEGGER_RTT.c ****     NumBytesToWrite = MIN(NumBytesToWrite, NumBytes);
 253              		.loc 1 378 5 is_stmt 1 view .LVU74
 378:Drivers/RTT/SEGGER_RTT.c ****     NumBytesToWrite = MIN(NumBytesToWrite, NumBytes);
 254              		.loc 1 378 23 is_stmt 0 view .LVU75
 255 0016 B368     		ldr	r3, [r6, #8]
 256 0018 5C1B     		subs	r4, r3, r5
 378:Drivers/RTT/SEGGER_RTT.c ****     NumBytesToWrite = MIN(NumBytesToWrite, NumBytes);
 257              		.loc 1 378 21 view .LVU76
 258 001a 9442     		cmp	r4, r2
 259 001c 28BF     		it	cs
 260 001e 1446     		movcs	r4, r2
 261              	.LVL30:
 379:Drivers/RTT/SEGGER_RTT.c ****     pDst = (pRing->pBuffer + WrOff) + SEGGER_RTT_UNCACHED_OFF;
 262              		.loc 1 379 5 is_stmt 1 view .LVU77
 379:Drivers/RTT/SEGGER_RTT.c ****     pDst = (pRing->pBuffer + WrOff) + SEGGER_RTT_UNCACHED_OFF;
 263              		.loc 1 379 21 is_stmt 0 view .LVU78
 264 0020 BC42     		cmp	r4, r7
 265 0022 28BF     		it	cs
 266 0024 3C46     		movcs	r4, r7
 267              	.LVL31:
 380:Drivers/RTT/SEGGER_RTT.c **** #if SEGGER_RTT_MEMCPY_USE_BYTELOOP
 268              		.loc 1 380 5 is_stmt 1 view .LVU79
 380:Drivers/RTT/SEGGER_RTT.c **** #if SEGGER_RTT_MEMCPY_USE_BYTELOOP
 269              		.loc 1 380 18 is_stmt 0 view .LVU80
 270 0026 7068     		ldr	r0, [r6, #4]
 271              	.LVL32:
 389:Drivers/RTT/SEGGER_RTT.c ****     NumBytesWritten += NumBytesToWrite;
ARM GAS  C:\Users\seblo\AppData\Local\Temp\ccqImqhn.s 			page 16


 272              		.loc 1 389 5 is_stmt 1 view .LVU81
 273 0028 2246     		mov	r2, r4
 274 002a 4146     		mov	r1, r8
 275 002c 2844     		add	r0, r0, r5
 276              	.LVL33:
 389:Drivers/RTT/SEGGER_RTT.c ****     NumBytesWritten += NumBytesToWrite;
 277              		.loc 1 389 5 is_stmt 0 view .LVU82
 278 002e FFF7FEFF 		bl	memcpy
 279              	.LVL34:
 390:Drivers/RTT/SEGGER_RTT.c ****     pBuffer         += NumBytesToWrite;
 280              		.loc 1 390 5 is_stmt 1 view .LVU83
 390:Drivers/RTT/SEGGER_RTT.c ****     pBuffer         += NumBytesToWrite;
 281              		.loc 1 390 21 is_stmt 0 view .LVU84
 282 0032 A144     		add	r9, r9, r4
 283              	.LVL35:
 391:Drivers/RTT/SEGGER_RTT.c ****     NumBytes        -= NumBytesToWrite;
 284              		.loc 1 391 5 is_stmt 1 view .LVU85
 391:Drivers/RTT/SEGGER_RTT.c ****     NumBytes        -= NumBytesToWrite;
 285              		.loc 1 391 21 is_stmt 0 view .LVU86
 286 0034 A044     		add	r8, r8, r4
 287              	.LVL36:
 392:Drivers/RTT/SEGGER_RTT.c ****     WrOff           += NumBytesToWrite;
 288              		.loc 1 392 5 is_stmt 1 view .LVU87
 392:Drivers/RTT/SEGGER_RTT.c ****     WrOff           += NumBytesToWrite;
 289              		.loc 1 392 21 is_stmt 0 view .LVU88
 290 0036 3F1B     		subs	r7, r7, r4
 291              	.LVL37:
 393:Drivers/RTT/SEGGER_RTT.c **** #endif
 292              		.loc 1 393 5 is_stmt 1 view .LVU89
 393:Drivers/RTT/SEGGER_RTT.c **** #endif
 293              		.loc 1 393 21 is_stmt 0 view .LVU90
 294 0038 2544     		add	r5, r5, r4
 295              	.LVL38:
 395:Drivers/RTT/SEGGER_RTT.c ****       WrOff = 0u;
 296              		.loc 1 395 5 is_stmt 1 view .LVU91
 395:Drivers/RTT/SEGGER_RTT.c ****       WrOff = 0u;
 297              		.loc 1 395 23 is_stmt 0 view .LVU92
 298 003a B368     		ldr	r3, [r6, #8]
 395:Drivers/RTT/SEGGER_RTT.c ****       WrOff = 0u;
 299              		.loc 1 395 8 view .LVU93
 300 003c AB42     		cmp	r3, r5
 301 003e 0BD0     		beq	.L15
 302              	.LVL39:
 303              	.L11:
 398:Drivers/RTT/SEGGER_RTT.c ****     pRing->WrOff = WrOff;
 304              		.loc 1 398 5 is_stmt 1 view .LVU94
 305              		.syntax unified
 306              	@ 398 "Drivers/RTT/SEGGER_RTT.c" 1
 307 0040 BFF35F8F 		dmb
 308              	
 309              	@ 0 "" 2
 398:Drivers/RTT/SEGGER_RTT.c ****     pRing->WrOff = WrOff;
 310              		.loc 1 398 15 view .LVU95
 399:Drivers/RTT/SEGGER_RTT.c ****   } while (NumBytes);
 311              		.loc 1 399 5 view .LVU96
 399:Drivers/RTT/SEGGER_RTT.c ****   } while (NumBytes);
 312              		.loc 1 399 18 is_stmt 0 view .LVU97
ARM GAS  C:\Users\seblo\AppData\Local\Temp\ccqImqhn.s 			page 17


 313              		.thumb
 314              		.syntax unified
 315 0044 F560     		str	r5, [r6, #12]
 400:Drivers/RTT/SEGGER_RTT.c ****   return NumBytesWritten;
 316              		.loc 1 400 11 is_stmt 1 view .LVU98
 400:Drivers/RTT/SEGGER_RTT.c ****   return NumBytesWritten;
 317              		.loc 1 400 3 is_stmt 0 view .LVU99
 318 0046 4FB1     		cbz	r7, .L16
 319              	.LVL40:
 320              	.L12:
 371:Drivers/RTT/SEGGER_RTT.c ****     RdOff = pRing->RdOff;                         // May be changed by host (debug probe) in the me
 321              		.loc 1 371 3 is_stmt 1 view .LVU100
 372:Drivers/RTT/SEGGER_RTT.c ****     if (RdOff > WrOff) {
 322              		.loc 1 372 5 view .LVU101
 372:Drivers/RTT/SEGGER_RTT.c ****     if (RdOff > WrOff) {
 323              		.loc 1 372 11 is_stmt 0 view .LVU102
 324 0048 3469     		ldr	r4, [r6, #16]
 325              	.LVL41:
 373:Drivers/RTT/SEGGER_RTT.c ****       NumBytesToWrite = RdOff - WrOff - 1u;
 326              		.loc 1 373 5 is_stmt 1 view .LVU103
 373:Drivers/RTT/SEGGER_RTT.c ****       NumBytesToWrite = RdOff - WrOff - 1u;
 327              		.loc 1 373 8 is_stmt 0 view .LVU104
 328 004a A542     		cmp	r5, r4
 329 004c E1D3     		bcc	.L17
 376:Drivers/RTT/SEGGER_RTT.c ****     }
 330              		.loc 1 376 7 is_stmt 1 view .LVU105
 376:Drivers/RTT/SEGGER_RTT.c ****     }
 331              		.loc 1 376 30 is_stmt 0 view .LVU106
 332 004e B268     		ldr	r2, [r6, #8]
 376:Drivers/RTT/SEGGER_RTT.c ****     }
 333              		.loc 1 376 62 view .LVU107
 334 0050 641B     		subs	r4, r4, r5
 335              	.LVL42:
 376:Drivers/RTT/SEGGER_RTT.c ****     }
 336              		.loc 1 376 45 view .LVU108
 337 0052 1444     		add	r4, r4, r2
 376:Drivers/RTT/SEGGER_RTT.c ****     }
 338              		.loc 1 376 23 view .LVU109
 339 0054 621E     		subs	r2, r4, #1
 340              	.LVL43:
 376:Drivers/RTT/SEGGER_RTT.c ****     }
 341              		.loc 1 376 23 view .LVU110
 342 0056 DEE7     		b	.L10
 343              	.LVL44:
 344              	.L15:
 396:Drivers/RTT/SEGGER_RTT.c ****     }
 345              		.loc 1 396 13 view .LVU111
 346 0058 0025     		movs	r5, #0
 347              	.LVL45:
 396:Drivers/RTT/SEGGER_RTT.c ****     }
 348              		.loc 1 396 13 view .LVU112
 349 005a F1E7     		b	.L11
 350              	.LVL46:
 351              	.L16:
 401:Drivers/RTT/SEGGER_RTT.c **** }
 352              		.loc 1 401 3 is_stmt 1 view .LVU113
 402:Drivers/RTT/SEGGER_RTT.c **** 
ARM GAS  C:\Users\seblo\AppData\Local\Temp\ccqImqhn.s 			page 18


 353              		.loc 1 402 1 is_stmt 0 view .LVU114
 354 005c 4846     		mov	r0, r9
 355 005e BDE8F883 		pop	{r3, r4, r5, r6, r7, r8, r9, pc}
 402:Drivers/RTT/SEGGER_RTT.c **** 
 356              		.loc 1 402 1 view .LVU115
 357              		.cfi_endproc
 358              	.LFE1:
 360              		.section	.text._PostTerminalSwitch,"ax",%progbits
 361              		.align	1
 362              		.syntax unified
 363              		.thumb
 364              		.thumb_func
 365              		.fpu fpv5-sp-d16
 367              	_PostTerminalSwitch:
 368              	.LVL47:
 369              	.LFB3:
 490:Drivers/RTT/SEGGER_RTT.c ****   unsigned char ac[2];
 370              		.loc 1 490 88 is_stmt 1 view -0
 371              		.cfi_startproc
 372              		@ args = 0, pretend = 0, frame = 8
 373              		@ frame_needed = 0, uses_anonymous_args = 0
 490:Drivers/RTT/SEGGER_RTT.c ****   unsigned char ac[2];
 374              		.loc 1 490 88 is_stmt 0 view .LVU117
 375 0000 00B5     		push	{lr}
 376              	.LCFI2:
 377              		.cfi_def_cfa_offset 4
 378              		.cfi_offset 14, -4
 379 0002 83B0     		sub	sp, sp, #12
 380              	.LCFI3:
 381              		.cfi_def_cfa_offset 16
 491:Drivers/RTT/SEGGER_RTT.c **** 
 382              		.loc 1 491 3 is_stmt 1 view .LVU118
 493:Drivers/RTT/SEGGER_RTT.c ****   ac[1] = _aTerminalId[TerminalId];  // Caller made already sure that TerminalId does not exceed ou
 383              		.loc 1 493 3 view .LVU119
 493:Drivers/RTT/SEGGER_RTT.c ****   ac[1] = _aTerminalId[TerminalId];  // Caller made already sure that TerminalId does not exceed ou
 384              		.loc 1 493 9 is_stmt 0 view .LVU120
 385 0004 FF23     		movs	r3, #255
 386 0006 8DF80430 		strb	r3, [sp, #4]
 494:Drivers/RTT/SEGGER_RTT.c ****   _WriteBlocking(pRing, (const char*)ac, 2u);
 387              		.loc 1 494 3 is_stmt 1 view .LVU121
 494:Drivers/RTT/SEGGER_RTT.c ****   _WriteBlocking(pRing, (const char*)ac, 2u);
 388              		.loc 1 494 23 is_stmt 0 view .LVU122
 389 000a 054B     		ldr	r3, .L20
 390 000c 5B5C     		ldrb	r3, [r3, r1]	@ zero_extendqisi2
 494:Drivers/RTT/SEGGER_RTT.c ****   _WriteBlocking(pRing, (const char*)ac, 2u);
 391              		.loc 1 494 9 view .LVU123
 392 000e 8DF80530 		strb	r3, [sp, #5]
 495:Drivers/RTT/SEGGER_RTT.c **** }
 393              		.loc 1 495 3 is_stmt 1 view .LVU124
 394 0012 0222     		movs	r2, #2
 395 0014 01A9     		add	r1, sp, #4
 396              	.LVL48:
 495:Drivers/RTT/SEGGER_RTT.c **** }
 397              		.loc 1 495 3 is_stmt 0 view .LVU125
 398 0016 FFF7FEFF 		bl	_WriteBlocking
 399              	.LVL49:
 496:Drivers/RTT/SEGGER_RTT.c **** 
ARM GAS  C:\Users\seblo\AppData\Local\Temp\ccqImqhn.s 			page 19


 400              		.loc 1 496 1 view .LVU126
 401 001a 03B0     		add	sp, sp, #12
 402              	.LCFI4:
 403              		.cfi_def_cfa_offset 4
 404              		@ sp needed
 405 001c 5DF804FB 		ldr	pc, [sp], #4
 406              	.L21:
 407              		.align	2
 408              	.L20:
 409 0020 00000000 		.word	.LANCHOR0
 410              		.cfi_endproc
 411              	.LFE3:
 413              		.section	.rodata._DoInit.str1.4,"aMS",%progbits,1
 414              		.align	2
 415              	.LC0:
 416 0000 5465726D 		.ascii	"Terminal\000"
 416      696E616C 
 416      00
 417 0009 000000   		.align	2
 418              	.LC1:
 419 000c 52545400 		.ascii	"RTT\000"
 420              		.align	2
 421              	.LC2:
 422 0010 53454747 		.ascii	"SEGGER\000"
 422      455200
 423              		.section	.text._DoInit,"ax",%progbits
 424              		.align	1
 425              		.syntax unified
 426              		.thumb
 427              		.thumb_func
 428              		.fpu fpv5-sp-d16
 430              	_DoInit:
 431              	.LFB0:
 302:Drivers/RTT/SEGGER_RTT.c ****   volatile SEGGER_RTT_CB* p;   // Volatile to make sure that compiler cannot change the order of ac
 432              		.loc 1 302 27 is_stmt 1 view -0
 433              		.cfi_startproc
 434              		@ args = 0, pretend = 0, frame = 0
 435              		@ frame_needed = 0, uses_anonymous_args = 0
 436              		@ link register save eliminated.
 303:Drivers/RTT/SEGGER_RTT.c ****   //
 437              		.loc 1 303 3 view .LVU128
 307:Drivers/RTT/SEGGER_RTT.c ****   p->MaxNumUpBuffers    = SEGGER_RTT_MAX_NUM_UP_BUFFERS;
 438              		.loc 1 307 3 view .LVU129
 439              	.LVL50:
 308:Drivers/RTT/SEGGER_RTT.c ****   p->MaxNumDownBuffers  = SEGGER_RTT_MAX_NUM_DOWN_BUFFERS;
 440              		.loc 1 308 3 view .LVU130
 308:Drivers/RTT/SEGGER_RTT.c ****   p->MaxNumDownBuffers  = SEGGER_RTT_MAX_NUM_DOWN_BUFFERS;
 441              		.loc 1 308 25 is_stmt 0 view .LVU131
 442 0000 154B     		ldr	r3, .L23
 443 0002 0322     		movs	r2, #3
 444 0004 1A61     		str	r2, [r3, #16]
 309:Drivers/RTT/SEGGER_RTT.c ****   //
 445              		.loc 1 309 3 is_stmt 1 view .LVU132
 309:Drivers/RTT/SEGGER_RTT.c ****   //
 446              		.loc 1 309 25 is_stmt 0 view .LVU133
 447 0006 5A61     		str	r2, [r3, #20]
 313:Drivers/RTT/SEGGER_RTT.c ****   p->aUp[0].pBuffer       = _acUpBuffer;
ARM GAS  C:\Users\seblo\AppData\Local\Temp\ccqImqhn.s 			page 20


 448              		.loc 1 313 3 is_stmt 1 view .LVU134
 313:Drivers/RTT/SEGGER_RTT.c ****   p->aUp[0].pBuffer       = _acUpBuffer;
 449              		.loc 1 313 27 is_stmt 0 view .LVU135
 450 0008 1449     		ldr	r1, .L23+4
 451 000a 9961     		str	r1, [r3, #24]
 314:Drivers/RTT/SEGGER_RTT.c ****   p->aUp[0].SizeOfBuffer  = BUFFER_SIZE_UP;
 452              		.loc 1 314 3 is_stmt 1 view .LVU136
 314:Drivers/RTT/SEGGER_RTT.c ****   p->aUp[0].SizeOfBuffer  = BUFFER_SIZE_UP;
 453              		.loc 1 314 27 is_stmt 0 view .LVU137
 454 000c 144A     		ldr	r2, .L23+8
 455 000e DA61     		str	r2, [r3, #28]
 315:Drivers/RTT/SEGGER_RTT.c ****   p->aUp[0].RdOff         = 0u;
 456              		.loc 1 315 3 is_stmt 1 view .LVU138
 315:Drivers/RTT/SEGGER_RTT.c ****   p->aUp[0].RdOff         = 0u;
 457              		.loc 1 315 27 is_stmt 0 view .LVU139
 458 0010 4FF48062 		mov	r2, #1024
 459 0014 1A62     		str	r2, [r3, #32]
 316:Drivers/RTT/SEGGER_RTT.c ****   p->aUp[0].WrOff         = 0u;
 460              		.loc 1 316 3 is_stmt 1 view .LVU140
 316:Drivers/RTT/SEGGER_RTT.c ****   p->aUp[0].WrOff         = 0u;
 461              		.loc 1 316 27 is_stmt 0 view .LVU141
 462 0016 0022     		movs	r2, #0
 463 0018 9A62     		str	r2, [r3, #40]
 317:Drivers/RTT/SEGGER_RTT.c ****   p->aUp[0].Flags         = SEGGER_RTT_MODE_DEFAULT;
 464              		.loc 1 317 3 is_stmt 1 view .LVU142
 317:Drivers/RTT/SEGGER_RTT.c ****   p->aUp[0].Flags         = SEGGER_RTT_MODE_DEFAULT;
 465              		.loc 1 317 27 is_stmt 0 view .LVU143
 466 001a 5A62     		str	r2, [r3, #36]
 318:Drivers/RTT/SEGGER_RTT.c ****   //
 467              		.loc 1 318 3 is_stmt 1 view .LVU144
 318:Drivers/RTT/SEGGER_RTT.c ****   //
 468              		.loc 1 318 27 is_stmt 0 view .LVU145
 469 001c DA62     		str	r2, [r3, #44]
 322:Drivers/RTT/SEGGER_RTT.c ****   p->aDown[0].pBuffer       = _acDownBuffer;
 470              		.loc 1 322 3 is_stmt 1 view .LVU146
 322:Drivers/RTT/SEGGER_RTT.c ****   p->aDown[0].pBuffer       = _acDownBuffer;
 471              		.loc 1 322 29 is_stmt 0 view .LVU147
 472 001e 1966     		str	r1, [r3, #96]
 323:Drivers/RTT/SEGGER_RTT.c ****   p->aDown[0].SizeOfBuffer  = BUFFER_SIZE_DOWN;
 473              		.loc 1 323 3 is_stmt 1 view .LVU148
 323:Drivers/RTT/SEGGER_RTT.c ****   p->aDown[0].SizeOfBuffer  = BUFFER_SIZE_DOWN;
 474              		.loc 1 323 29 is_stmt 0 view .LVU149
 475 0020 1049     		ldr	r1, .L23+12
 476 0022 5966     		str	r1, [r3, #100]
 324:Drivers/RTT/SEGGER_RTT.c ****   p->aDown[0].RdOff         = 0u;
 477              		.loc 1 324 3 is_stmt 1 view .LVU150
 324:Drivers/RTT/SEGGER_RTT.c ****   p->aDown[0].RdOff         = 0u;
 478              		.loc 1 324 29 is_stmt 0 view .LVU151
 479 0024 1021     		movs	r1, #16
 480 0026 9966     		str	r1, [r3, #104]
 325:Drivers/RTT/SEGGER_RTT.c ****   p->aDown[0].WrOff         = 0u;
 481              		.loc 1 325 3 is_stmt 1 view .LVU152
 325:Drivers/RTT/SEGGER_RTT.c ****   p->aDown[0].WrOff         = 0u;
 482              		.loc 1 325 29 is_stmt 0 view .LVU153
 483 0028 1A67     		str	r2, [r3, #112]
 326:Drivers/RTT/SEGGER_RTT.c ****   p->aDown[0].Flags         = SEGGER_RTT_MODE_DEFAULT;
 484              		.loc 1 326 3 is_stmt 1 view .LVU154
ARM GAS  C:\Users\seblo\AppData\Local\Temp\ccqImqhn.s 			page 21


 326:Drivers/RTT/SEGGER_RTT.c ****   p->aDown[0].Flags         = SEGGER_RTT_MODE_DEFAULT;
 485              		.loc 1 326 29 is_stmt 0 view .LVU155
 486 002a DA66     		str	r2, [r3, #108]
 327:Drivers/RTT/SEGGER_RTT.c ****   //
 487              		.loc 1 327 3 is_stmt 1 view .LVU156
 327:Drivers/RTT/SEGGER_RTT.c ****   //
 488              		.loc 1 327 29 is_stmt 0 view .LVU157
 489 002c 5A67     		str	r2, [r3, #116]
 333:Drivers/RTT/SEGGER_RTT.c ****   RTT__DMB();                       // Force order of memory accessed inside core for cores that al
 490              		.loc 1 333 3 is_stmt 1 view .LVU158
 491 002e 0E4A     		ldr	r2, .L23+16
 492 0030 1068     		ldr	r0, [r2]
 493 0032 C3F80700 		str	r0, [r3, #7]	@ unaligned
 334:Drivers/RTT/SEGGER_RTT.c ****   STRCPY((char*)&p->acID[0], "SEGGER");
 494              		.loc 1 334 3 view .LVU159
 495              		.syntax unified
 496              	@ 334 "Drivers/RTT/SEGGER_RTT.c" 1
 497 0036 BFF35F8F 		dmb
 498              	
 499              	@ 0 "" 2
 334:Drivers/RTT/SEGGER_RTT.c ****   STRCPY((char*)&p->acID[0], "SEGGER");
 500              		.loc 1 334 13 view .LVU160
 335:Drivers/RTT/SEGGER_RTT.c ****   RTT__DMB();                       // Force order of memory accessed inside core for cores that al
 501              		.loc 1 335 3 view .LVU161
 502              		.thumb
 503              		.syntax unified
 504 003a 0C4A     		ldr	r2, .L23+20
 505 003c 92E80300 		ldm	r2, {r0, r1}
 506 0040 1860     		str	r0, [r3]
 507 0042 9980     		strh	r1, [r3, #4]	@ movhi
 508 0044 090C     		lsrs	r1, r1, #16
 509 0046 9971     		strb	r1, [r3, #6]
 336:Drivers/RTT/SEGGER_RTT.c ****   p->acID[6] = ' ';
 510              		.loc 1 336 3 view .LVU162
 511              		.syntax unified
 512              	@ 336 "Drivers/RTT/SEGGER_RTT.c" 1
 513 0048 BFF35F8F 		dmb
 514              	
 515              	@ 0 "" 2
 336:Drivers/RTT/SEGGER_RTT.c ****   p->acID[6] = ' ';
 516              		.loc 1 336 13 view .LVU163
 337:Drivers/RTT/SEGGER_RTT.c ****   RTT__DMB();                       // Force order of memory accessed inside core for cores that al
 517              		.loc 1 337 3 view .LVU164
 337:Drivers/RTT/SEGGER_RTT.c ****   RTT__DMB();                       // Force order of memory accessed inside core for cores that al
 518              		.loc 1 337 14 is_stmt 0 view .LVU165
 519              		.thumb
 520              		.syntax unified
 521 004c 2022     		movs	r2, #32
 522 004e 9A71     		strb	r2, [r3, #6]
 338:Drivers/RTT/SEGGER_RTT.c **** }
 523              		.loc 1 338 3 is_stmt 1 view .LVU166
 524              		.syntax unified
 525              	@ 338 "Drivers/RTT/SEGGER_RTT.c" 1
 526 0050 BFF35F8F 		dmb
 527              	
 528              	@ 0 "" 2
 338:Drivers/RTT/SEGGER_RTT.c **** }
ARM GAS  C:\Users\seblo\AppData\Local\Temp\ccqImqhn.s 			page 22


 529              		.loc 1 338 13 view .LVU167
 339:Drivers/RTT/SEGGER_RTT.c **** 
 530              		.loc 1 339 1 is_stmt 0 view .LVU168
 531              		.thumb
 532              		.syntax unified
 533 0054 7047     		bx	lr
 534              	.L24:
 535 0056 00BF     		.align	2
 536              	.L23:
 537 0058 00000000 		.word	.LANCHOR1
 538 005c 00000000 		.word	.LC0
 539 0060 00000000 		.word	.LANCHOR2
 540 0064 00000000 		.word	.LANCHOR3
 541 0068 0C000000 		.word	.LC1
 542 006c 10000000 		.word	.LC2
 543              		.cfi_endproc
 544              	.LFE0:
 546              		.section	.text.SEGGER_RTT_ReadUpBufferNoLock,"ax",%progbits
 547              		.align	1
 548              		.global	SEGGER_RTT_ReadUpBufferNoLock
 549              		.syntax unified
 550              		.thumb
 551              		.thumb_func
 552              		.fpu fpv5-sp-d16
 554              	SEGGER_RTT_ReadUpBufferNoLock:
 555              	.LVL51:
 556              	.LFB5:
 529:Drivers/RTT/SEGGER_RTT.c **** 
 530:Drivers/RTT/SEGGER_RTT.c **** /*********************************************************************
 531:Drivers/RTT/SEGGER_RTT.c **** *
 532:Drivers/RTT/SEGGER_RTT.c **** *       Public code
 533:Drivers/RTT/SEGGER_RTT.c **** *
 534:Drivers/RTT/SEGGER_RTT.c **** **********************************************************************
 535:Drivers/RTT/SEGGER_RTT.c **** */
 536:Drivers/RTT/SEGGER_RTT.c **** 
 537:Drivers/RTT/SEGGER_RTT.c **** /*********************************************************************
 538:Drivers/RTT/SEGGER_RTT.c **** *
 539:Drivers/RTT/SEGGER_RTT.c **** *       SEGGER_RTT_ReadUpBufferNoLock()
 540:Drivers/RTT/SEGGER_RTT.c **** *
 541:Drivers/RTT/SEGGER_RTT.c **** *  Function description
 542:Drivers/RTT/SEGGER_RTT.c **** *    Reads characters from SEGGER real-time-terminal control block
 543:Drivers/RTT/SEGGER_RTT.c **** *    which have been previously stored by the application.
 544:Drivers/RTT/SEGGER_RTT.c **** *    Do not lock against interrupts and multiple access.
 545:Drivers/RTT/SEGGER_RTT.c **** *    Used to do the same operation that J-Link does, to transfer 
 546:Drivers/RTT/SEGGER_RTT.c **** *    RTT data via other channels, such as TCP/IP or UART.
 547:Drivers/RTT/SEGGER_RTT.c **** *
 548:Drivers/RTT/SEGGER_RTT.c **** *  Parameters
 549:Drivers/RTT/SEGGER_RTT.c **** *    BufferIndex  Index of Up-buffer to be used.
 550:Drivers/RTT/SEGGER_RTT.c **** *    pBuffer      Pointer to buffer provided by target application, to copy characters from RTT-up-
 551:Drivers/RTT/SEGGER_RTT.c **** *    BufferSize   Size of the target application buffer.
 552:Drivers/RTT/SEGGER_RTT.c **** *
 553:Drivers/RTT/SEGGER_RTT.c **** *  Return value
 554:Drivers/RTT/SEGGER_RTT.c **** *    Number of bytes that have been read.
 555:Drivers/RTT/SEGGER_RTT.c **** *
 556:Drivers/RTT/SEGGER_RTT.c **** *  Additional information
 557:Drivers/RTT/SEGGER_RTT.c **** *    This function must not be called when J-Link might also do RTT.
 558:Drivers/RTT/SEGGER_RTT.c **** */
ARM GAS  C:\Users\seblo\AppData\Local\Temp\ccqImqhn.s 			page 23


 559:Drivers/RTT/SEGGER_RTT.c **** unsigned SEGGER_RTT_ReadUpBufferNoLock(unsigned BufferIndex, void* pData, unsigned BufferSize) {
 557              		.loc 1 559 96 is_stmt 1 view -0
 558              		.cfi_startproc
 559              		@ args = 0, pretend = 0, frame = 0
 560              		@ frame_needed = 0, uses_anonymous_args = 0
 561              		.loc 1 559 96 is_stmt 0 view .LVU170
 562 0000 2DE9F047 		push	{r4, r5, r6, r7, r8, r9, r10, lr}
 563              	.LCFI5:
 564              		.cfi_def_cfa_offset 32
 565              		.cfi_offset 4, -32
 566              		.cfi_offset 5, -28
 567              		.cfi_offset 6, -24
 568              		.cfi_offset 7, -20
 569              		.cfi_offset 8, -16
 570              		.cfi_offset 9, -12
 571              		.cfi_offset 10, -8
 572              		.cfi_offset 14, -4
 573 0004 0446     		mov	r4, r0
 574 0006 8846     		mov	r8, r1
 575 0008 9146     		mov	r9, r2
 560:Drivers/RTT/SEGGER_RTT.c ****   unsigned                NumBytesRem;
 576              		.loc 1 560 3 is_stmt 1 view .LVU171
 561:Drivers/RTT/SEGGER_RTT.c ****   unsigned                NumBytesRead;
 577              		.loc 1 561 3 view .LVU172
 562:Drivers/RTT/SEGGER_RTT.c ****   unsigned                RdOff;
 578              		.loc 1 562 3 view .LVU173
 563:Drivers/RTT/SEGGER_RTT.c ****   unsigned                WrOff;
 579              		.loc 1 563 3 view .LVU174
 564:Drivers/RTT/SEGGER_RTT.c ****   unsigned char*          pBuffer;
 580              		.loc 1 564 3 view .LVU175
 565:Drivers/RTT/SEGGER_RTT.c ****   SEGGER_RTT_BUFFER_UP*   pRing;
 581              		.loc 1 565 3 view .LVU176
 566:Drivers/RTT/SEGGER_RTT.c ****   volatile char*          pSrc;
 582              		.loc 1 566 3 view .LVU177
 583              	.LBB2:
 567:Drivers/RTT/SEGGER_RTT.c **** 
 568:Drivers/RTT/SEGGER_RTT.c ****   INIT();
 584              		.loc 1 568 3 view .LVU178
 585              		.loc 1 568 3 view .LVU179
 586              	.LVL52:
 587              		.loc 1 568 3 view .LVU180
 588              		.loc 1 568 3 view .LVU181
 589 000a 274B     		ldr	r3, .L36
 590 000c 1B78     		ldrb	r3, [r3]	@ zero_extendqisi2
 591 000e C3B1     		cbz	r3, .L33
 592              	.LVL53:
 593              	.L26:
 594              		.loc 1 568 3 discriminator 3 view .LVU182
 595              	.LBE2:
 596              		.loc 1 568 9 discriminator 3 view .LVU183
 569:Drivers/RTT/SEGGER_RTT.c ****   pRing = (SEGGER_RTT_BUFFER_UP*)((char*)&_SEGGER_RTT.aUp[BufferIndex] + SEGGER_RTT_UNCACHED_OFF); 
 597              		.loc 1 569 3 discriminator 3 view .LVU184
 570:Drivers/RTT/SEGGER_RTT.c ****   pBuffer = (unsigned char*)pData;
 598              		.loc 1 570 3 discriminator 3 view .LVU185
 571:Drivers/RTT/SEGGER_RTT.c ****   RdOff = pRing->RdOff;
 599              		.loc 1 571 3 discriminator 3 view .LVU186
 600              		.loc 1 571 9 is_stmt 0 discriminator 3 view .LVU187
ARM GAS  C:\Users\seblo\AppData\Local\Temp\ccqImqhn.s 			page 24


 601 0010 04EB4403 		add	r3, r4, r4, lsl #1
 602 0014 244A     		ldr	r2, .L36
 603 0016 02EBC303 		add	r3, r2, r3, lsl #3
 604 001a 9F6A     		ldr	r7, [r3, #40]
 605              	.LVL54:
 572:Drivers/RTT/SEGGER_RTT.c ****   WrOff = pRing->WrOff;
 606              		.loc 1 572 3 is_stmt 1 discriminator 3 view .LVU188
 607              		.loc 1 572 9 is_stmt 0 discriminator 3 view .LVU189
 608 001c 5D6A     		ldr	r5, [r3, #36]
 609              	.LVL55:
 573:Drivers/RTT/SEGGER_RTT.c ****   NumBytesRead = 0u;
 610              		.loc 1 573 3 is_stmt 1 discriminator 3 view .LVU190
 574:Drivers/RTT/SEGGER_RTT.c ****   //
 575:Drivers/RTT/SEGGER_RTT.c ****   // Read from current read position to wrap-around of buffer, first
 576:Drivers/RTT/SEGGER_RTT.c ****   //
 577:Drivers/RTT/SEGGER_RTT.c ****   if (RdOff > WrOff) {
 611              		.loc 1 577 3 discriminator 3 view .LVU191
 612              		.loc 1 577 6 is_stmt 0 discriminator 3 view .LVU192
 613 001e AF42     		cmp	r7, r5
 614 0020 12D8     		bhi	.L34
 573:Drivers/RTT/SEGGER_RTT.c ****   NumBytesRead = 0u;
 615              		.loc 1 573 16 view .LVU193
 616 0022 0026     		movs	r6, #0
 617              	.LVL56:
 618              	.L27:
 578:Drivers/RTT/SEGGER_RTT.c ****     NumBytesRem = pRing->SizeOfBuffer - RdOff;
 579:Drivers/RTT/SEGGER_RTT.c ****     NumBytesRem = MIN(NumBytesRem, BufferSize);
 580:Drivers/RTT/SEGGER_RTT.c ****     pSrc = (pRing->pBuffer + RdOff) + SEGGER_RTT_UNCACHED_OFF;
 581:Drivers/RTT/SEGGER_RTT.c **** #if SEGGER_RTT_MEMCPY_USE_BYTELOOP
 582:Drivers/RTT/SEGGER_RTT.c ****     NumBytesRead += NumBytesRem;
 583:Drivers/RTT/SEGGER_RTT.c ****     BufferSize   -= NumBytesRem;
 584:Drivers/RTT/SEGGER_RTT.c ****     RdOff        += NumBytesRem;
 585:Drivers/RTT/SEGGER_RTT.c ****     while (NumBytesRem--) {
 586:Drivers/RTT/SEGGER_RTT.c ****       *pBuffer++ = *pSrc++;
 587:Drivers/RTT/SEGGER_RTT.c ****     };
 588:Drivers/RTT/SEGGER_RTT.c **** #else
 589:Drivers/RTT/SEGGER_RTT.c ****     SEGGER_RTT_MEMCPY(pBuffer, (void*)pSrc, NumBytesRem);
 590:Drivers/RTT/SEGGER_RTT.c ****     NumBytesRead += NumBytesRem;
 591:Drivers/RTT/SEGGER_RTT.c ****     pBuffer      += NumBytesRem;
 592:Drivers/RTT/SEGGER_RTT.c ****     BufferSize   -= NumBytesRem;
 593:Drivers/RTT/SEGGER_RTT.c ****     RdOff        += NumBytesRem;
 594:Drivers/RTT/SEGGER_RTT.c **** #endif
 595:Drivers/RTT/SEGGER_RTT.c ****     //
 596:Drivers/RTT/SEGGER_RTT.c ****     // Handle wrap-around of buffer
 597:Drivers/RTT/SEGGER_RTT.c ****     //
 598:Drivers/RTT/SEGGER_RTT.c ****     if (RdOff == pRing->SizeOfBuffer) {
 599:Drivers/RTT/SEGGER_RTT.c ****       RdOff = 0u;
 600:Drivers/RTT/SEGGER_RTT.c ****     }
 601:Drivers/RTT/SEGGER_RTT.c ****   }
 602:Drivers/RTT/SEGGER_RTT.c ****   //
 603:Drivers/RTT/SEGGER_RTT.c ****   // Read remaining items of buffer
 604:Drivers/RTT/SEGGER_RTT.c ****   //
 605:Drivers/RTT/SEGGER_RTT.c ****   NumBytesRem = WrOff - RdOff;
 619              		.loc 1 605 3 is_stmt 1 view .LVU194
 620              		.loc 1 605 15 is_stmt 0 view .LVU195
 621 0024 ED1B     		subs	r5, r5, r7
 622              	.LVL57:
ARM GAS  C:\Users\seblo\AppData\Local\Temp\ccqImqhn.s 			page 25


 606:Drivers/RTT/SEGGER_RTT.c ****   NumBytesRem = MIN(NumBytesRem, BufferSize);
 623              		.loc 1 606 3 is_stmt 1 view .LVU196
 624              		.loc 1 606 15 is_stmt 0 view .LVU197
 625 0026 4D45     		cmp	r5, r9
 626 0028 28BF     		it	cs
 627 002a 4D46     		movcs	r5, r9
 628              	.LVL58:
 607:Drivers/RTT/SEGGER_RTT.c ****   if (NumBytesRem > 0u) {
 629              		.loc 1 607 3 is_stmt 1 view .LVU198
 630              		.loc 1 607 6 is_stmt 0 view .LVU199
 631 002c 65BB     		cbnz	r5, .L35
 632              	.LVL59:
 633              	.L28:
 608:Drivers/RTT/SEGGER_RTT.c ****     pSrc = (pRing->pBuffer + RdOff) + SEGGER_RTT_UNCACHED_OFF;
 609:Drivers/RTT/SEGGER_RTT.c **** #if SEGGER_RTT_MEMCPY_USE_BYTELOOP
 610:Drivers/RTT/SEGGER_RTT.c ****     NumBytesRead += NumBytesRem;
 611:Drivers/RTT/SEGGER_RTT.c ****     BufferSize   -= NumBytesRem;
 612:Drivers/RTT/SEGGER_RTT.c ****     RdOff        += NumBytesRem;
 613:Drivers/RTT/SEGGER_RTT.c ****     while (NumBytesRem--) {
 614:Drivers/RTT/SEGGER_RTT.c ****       *pBuffer++ = *pSrc++;
 615:Drivers/RTT/SEGGER_RTT.c ****     };
 616:Drivers/RTT/SEGGER_RTT.c **** #else
 617:Drivers/RTT/SEGGER_RTT.c ****     SEGGER_RTT_MEMCPY(pBuffer, (void*)pSrc, NumBytesRem);
 618:Drivers/RTT/SEGGER_RTT.c ****     NumBytesRead += NumBytesRem;
 619:Drivers/RTT/SEGGER_RTT.c ****     pBuffer      += NumBytesRem;
 620:Drivers/RTT/SEGGER_RTT.c ****     BufferSize   -= NumBytesRem;
 621:Drivers/RTT/SEGGER_RTT.c ****     RdOff        += NumBytesRem;
 622:Drivers/RTT/SEGGER_RTT.c **** #endif
 623:Drivers/RTT/SEGGER_RTT.c ****   }
 624:Drivers/RTT/SEGGER_RTT.c ****   //
 625:Drivers/RTT/SEGGER_RTT.c ****   // Update read offset of buffer
 626:Drivers/RTT/SEGGER_RTT.c ****   //
 627:Drivers/RTT/SEGGER_RTT.c ****   if (NumBytesRead) {
 634              		.loc 1 627 3 is_stmt 1 view .LVU200
 635              		.loc 1 627 6 is_stmt 0 view .LVU201
 636 002e 2EB1     		cbz	r6, .L25
 628:Drivers/RTT/SEGGER_RTT.c ****     pRing->RdOff = RdOff;
 637              		.loc 1 628 5 is_stmt 1 view .LVU202
 638              		.loc 1 628 18 is_stmt 0 view .LVU203
 639 0030 04EB4404 		add	r4, r4, r4, lsl #1
 640              	.LVL60:
 641              		.loc 1 628 18 view .LVU204
 642 0034 1C48     		ldr	r0, .L36
 643 0036 00EBC404 		add	r4, r0, r4, lsl #3
 644 003a A762     		str	r7, [r4, #40]
 629:Drivers/RTT/SEGGER_RTT.c ****   }
 630:Drivers/RTT/SEGGER_RTT.c ****   //
 631:Drivers/RTT/SEGGER_RTT.c ****   return NumBytesRead;
 645              		.loc 1 631 3 is_stmt 1 view .LVU205
 646              	.L25:
 632:Drivers/RTT/SEGGER_RTT.c **** }
 647              		.loc 1 632 1 is_stmt 0 view .LVU206
 648 003c 3046     		mov	r0, r6
 649 003e BDE8F087 		pop	{r4, r5, r6, r7, r8, r9, r10, pc}
 650              	.LVL61:
 651              	.L33:
 652              	.LBB3:
ARM GAS  C:\Users\seblo\AppData\Local\Temp\ccqImqhn.s 			page 26


 568:Drivers/RTT/SEGGER_RTT.c ****   pRing = (SEGGER_RTT_BUFFER_UP*)((char*)&_SEGGER_RTT.aUp[BufferIndex] + SEGGER_RTT_UNCACHED_OFF); 
 653              		.loc 1 568 3 is_stmt 1 discriminator 1 view .LVU207
 654 0042 FFF7FEFF 		bl	_DoInit
 655              	.LVL62:
 568:Drivers/RTT/SEGGER_RTT.c ****   pRing = (SEGGER_RTT_BUFFER_UP*)((char*)&_SEGGER_RTT.aUp[BufferIndex] + SEGGER_RTT_UNCACHED_OFF); 
 656              		.loc 1 568 3 is_stmt 0 discriminator 1 view .LVU208
 657 0046 E3E7     		b	.L26
 658              	.LVL63:
 659              	.L34:
 568:Drivers/RTT/SEGGER_RTT.c ****   pRing = (SEGGER_RTT_BUFFER_UP*)((char*)&_SEGGER_RTT.aUp[BufferIndex] + SEGGER_RTT_UNCACHED_OFF); 
 660              		.loc 1 568 3 discriminator 1 view .LVU209
 661              	.LBE3:
 578:Drivers/RTT/SEGGER_RTT.c ****     NumBytesRem = MIN(NumBytesRem, BufferSize);
 662              		.loc 1 578 5 is_stmt 1 view .LVU210
 578:Drivers/RTT/SEGGER_RTT.c ****     NumBytesRem = MIN(NumBytesRem, BufferSize);
 663              		.loc 1 578 24 is_stmt 0 view .LVU211
 664 0048 1346     		mov	r3, r2
 665 004a 04EB440A 		add	r10, r4, r4, lsl #1
 666 004e 02EBCA0A 		add	r10, r2, r10, lsl #3
 667 0052 DAF82060 		ldr	r6, [r10, #32]
 578:Drivers/RTT/SEGGER_RTT.c ****     NumBytesRem = MIN(NumBytesRem, BufferSize);
 668              		.loc 1 578 17 view .LVU212
 669 0056 F61B     		subs	r6, r6, r7
 670              	.LVL64:
 579:Drivers/RTT/SEGGER_RTT.c ****     pSrc = (pRing->pBuffer + RdOff) + SEGGER_RTT_UNCACHED_OFF;
 671              		.loc 1 579 5 is_stmt 1 view .LVU213
 579:Drivers/RTT/SEGGER_RTT.c ****     pSrc = (pRing->pBuffer + RdOff) + SEGGER_RTT_UNCACHED_OFF;
 672              		.loc 1 579 17 is_stmt 0 view .LVU214
 673 0058 4E45     		cmp	r6, r9
 674 005a 28BF     		it	cs
 675 005c 4E46     		movcs	r6, r9
 676              	.LVL65:
 580:Drivers/RTT/SEGGER_RTT.c **** #if SEGGER_RTT_MEMCPY_USE_BYTELOOP
 677              		.loc 1 580 5 is_stmt 1 view .LVU215
 580:Drivers/RTT/SEGGER_RTT.c **** #if SEGGER_RTT_MEMCPY_USE_BYTELOOP
 678              		.loc 1 580 18 is_stmt 0 view .LVU216
 679 005e 621C     		adds	r2, r4, #1
 680 0060 02EB4202 		add	r2, r2, r2, lsl #1
 681 0064 03EBC203 		add	r3, r3, r2, lsl #3
 682 0068 5968     		ldr	r1, [r3, #4]
 683              	.LVL66:
 589:Drivers/RTT/SEGGER_RTT.c ****     NumBytesRead += NumBytesRem;
 684              		.loc 1 589 5 is_stmt 1 view .LVU217
 685 006a 3246     		mov	r2, r6
 686 006c 3944     		add	r1, r1, r7
 687              	.LVL67:
 589:Drivers/RTT/SEGGER_RTT.c ****     NumBytesRead += NumBytesRem;
 688              		.loc 1 589 5 is_stmt 0 view .LVU218
 689 006e 4046     		mov	r0, r8
 690 0070 FFF7FEFF 		bl	memcpy
 691              	.LVL68:
 590:Drivers/RTT/SEGGER_RTT.c ****     pBuffer      += NumBytesRem;
 692              		.loc 1 590 5 is_stmt 1 view .LVU219
 591:Drivers/RTT/SEGGER_RTT.c ****     BufferSize   -= NumBytesRem;
 693              		.loc 1 591 5 view .LVU220
 591:Drivers/RTT/SEGGER_RTT.c ****     BufferSize   -= NumBytesRem;
 694              		.loc 1 591 18 is_stmt 0 view .LVU221
ARM GAS  C:\Users\seblo\AppData\Local\Temp\ccqImqhn.s 			page 27


 695 0074 B044     		add	r8, r8, r6
 696              	.LVL69:
 592:Drivers/RTT/SEGGER_RTT.c ****     RdOff        += NumBytesRem;
 697              		.loc 1 592 5 is_stmt 1 view .LVU222
 592:Drivers/RTT/SEGGER_RTT.c ****     RdOff        += NumBytesRem;
 698              		.loc 1 592 18 is_stmt 0 view .LVU223
 699 0076 A9EB0609 		sub	r9, r9, r6
 700              	.LVL70:
 593:Drivers/RTT/SEGGER_RTT.c **** #endif
 701              		.loc 1 593 5 is_stmt 1 view .LVU224
 593:Drivers/RTT/SEGGER_RTT.c **** #endif
 702              		.loc 1 593 18 is_stmt 0 view .LVU225
 703 007a 3744     		add	r7, r7, r6
 704              	.LVL71:
 598:Drivers/RTT/SEGGER_RTT.c ****       RdOff = 0u;
 705              		.loc 1 598 5 is_stmt 1 view .LVU226
 598:Drivers/RTT/SEGGER_RTT.c ****       RdOff = 0u;
 706              		.loc 1 598 23 is_stmt 0 view .LVU227
 707 007c DAF82030 		ldr	r3, [r10, #32]
 598:Drivers/RTT/SEGGER_RTT.c ****       RdOff = 0u;
 708              		.loc 1 598 8 view .LVU228
 709 0080 BB42     		cmp	r3, r7
 710 0082 CFD1     		bne	.L27
 599:Drivers/RTT/SEGGER_RTT.c ****     }
 711              		.loc 1 599 13 view .LVU229
 712 0084 0027     		movs	r7, #0
 713              	.LVL72:
 599:Drivers/RTT/SEGGER_RTT.c ****     }
 714              		.loc 1 599 13 view .LVU230
 715 0086 CDE7     		b	.L27
 716              	.LVL73:
 717              	.L35:
 608:Drivers/RTT/SEGGER_RTT.c **** #if SEGGER_RTT_MEMCPY_USE_BYTELOOP
 718              		.loc 1 608 5 is_stmt 1 view .LVU231
 608:Drivers/RTT/SEGGER_RTT.c **** #if SEGGER_RTT_MEMCPY_USE_BYTELOOP
 719              		.loc 1 608 18 is_stmt 0 view .LVU232
 720 0088 631C     		adds	r3, r4, #1
 721 008a 03EB4303 		add	r3, r3, r3, lsl #1
 722 008e 064A     		ldr	r2, .L36
 723 0090 02EBC303 		add	r3, r2, r3, lsl #3
 724 0094 5968     		ldr	r1, [r3, #4]
 725              	.LVL74:
 617:Drivers/RTT/SEGGER_RTT.c ****     NumBytesRead += NumBytesRem;
 726              		.loc 1 617 5 is_stmt 1 view .LVU233
 727 0096 2A46     		mov	r2, r5
 728 0098 3944     		add	r1, r1, r7
 729              	.LVL75:
 617:Drivers/RTT/SEGGER_RTT.c ****     NumBytesRead += NumBytesRem;
 730              		.loc 1 617 5 is_stmt 0 view .LVU234
 731 009a 4046     		mov	r0, r8
 732 009c FFF7FEFF 		bl	memcpy
 733              	.LVL76:
 618:Drivers/RTT/SEGGER_RTT.c ****     pBuffer      += NumBytesRem;
 734              		.loc 1 618 5 is_stmt 1 view .LVU235
 618:Drivers/RTT/SEGGER_RTT.c ****     pBuffer      += NumBytesRem;
 735              		.loc 1 618 18 is_stmt 0 view .LVU236
 736 00a0 2E44     		add	r6, r6, r5
ARM GAS  C:\Users\seblo\AppData\Local\Temp\ccqImqhn.s 			page 28


 737              	.LVL77:
 619:Drivers/RTT/SEGGER_RTT.c ****     BufferSize   -= NumBytesRem;
 738              		.loc 1 619 5 is_stmt 1 view .LVU237
 620:Drivers/RTT/SEGGER_RTT.c ****     RdOff        += NumBytesRem;
 739              		.loc 1 620 5 view .LVU238
 621:Drivers/RTT/SEGGER_RTT.c **** #endif
 740              		.loc 1 621 5 view .LVU239
 621:Drivers/RTT/SEGGER_RTT.c **** #endif
 741              		.loc 1 621 18 is_stmt 0 view .LVU240
 742 00a2 2F44     		add	r7, r7, r5
 743              	.LVL78:
 621:Drivers/RTT/SEGGER_RTT.c **** #endif
 744              		.loc 1 621 18 view .LVU241
 745 00a4 C3E7     		b	.L28
 746              	.L37:
 747 00a6 00BF     		.align	2
 748              	.L36:
 749 00a8 00000000 		.word	.LANCHOR1
 750              		.cfi_endproc
 751              	.LFE5:
 753              		.section	.text.SEGGER_RTT_ReadNoLock,"ax",%progbits
 754              		.align	1
 755              		.global	SEGGER_RTT_ReadNoLock
 756              		.syntax unified
 757              		.thumb
 758              		.thumb_func
 759              		.fpu fpv5-sp-d16
 761              	SEGGER_RTT_ReadNoLock:
 762              	.LVL79:
 763              	.LFB6:
 633:Drivers/RTT/SEGGER_RTT.c **** 
 634:Drivers/RTT/SEGGER_RTT.c **** /*********************************************************************
 635:Drivers/RTT/SEGGER_RTT.c **** *
 636:Drivers/RTT/SEGGER_RTT.c **** *       SEGGER_RTT_ReadNoLock()
 637:Drivers/RTT/SEGGER_RTT.c **** *
 638:Drivers/RTT/SEGGER_RTT.c **** *  Function description
 639:Drivers/RTT/SEGGER_RTT.c **** *    Reads characters from SEGGER real-time-terminal control block
 640:Drivers/RTT/SEGGER_RTT.c **** *    which have been previously stored by the host.
 641:Drivers/RTT/SEGGER_RTT.c **** *    Do not lock against interrupts and multiple access.
 642:Drivers/RTT/SEGGER_RTT.c **** *
 643:Drivers/RTT/SEGGER_RTT.c **** *  Parameters
 644:Drivers/RTT/SEGGER_RTT.c **** *    BufferIndex  Index of Down-buffer to be used (e.g. 0 for "Terminal").
 645:Drivers/RTT/SEGGER_RTT.c **** *    pBuffer      Pointer to buffer provided by target application, to copy characters from RTT-dow
 646:Drivers/RTT/SEGGER_RTT.c **** *    BufferSize   Size of the target application buffer.
 647:Drivers/RTT/SEGGER_RTT.c **** *
 648:Drivers/RTT/SEGGER_RTT.c **** *  Return value
 649:Drivers/RTT/SEGGER_RTT.c **** *    Number of bytes that have been read.
 650:Drivers/RTT/SEGGER_RTT.c **** */
 651:Drivers/RTT/SEGGER_RTT.c **** unsigned SEGGER_RTT_ReadNoLock(unsigned BufferIndex, void* pData, unsigned BufferSize) {
 764              		.loc 1 651 88 is_stmt 1 view -0
 765              		.cfi_startproc
 766              		@ args = 0, pretend = 0, frame = 0
 767              		@ frame_needed = 0, uses_anonymous_args = 0
 768              		.loc 1 651 88 is_stmt 0 view .LVU243
 769 0000 2DE9F047 		push	{r4, r5, r6, r7, r8, r9, r10, lr}
 770              	.LCFI6:
 771              		.cfi_def_cfa_offset 32
ARM GAS  C:\Users\seblo\AppData\Local\Temp\ccqImqhn.s 			page 29


 772              		.cfi_offset 4, -32
 773              		.cfi_offset 5, -28
 774              		.cfi_offset 6, -24
 775              		.cfi_offset 7, -20
 776              		.cfi_offset 8, -16
 777              		.cfi_offset 9, -12
 778              		.cfi_offset 10, -8
 779              		.cfi_offset 14, -4
 780 0004 0446     		mov	r4, r0
 781 0006 8846     		mov	r8, r1
 782 0008 9146     		mov	r9, r2
 652:Drivers/RTT/SEGGER_RTT.c ****   unsigned                NumBytesRem;
 783              		.loc 1 652 3 is_stmt 1 view .LVU244
 653:Drivers/RTT/SEGGER_RTT.c ****   unsigned                NumBytesRead;
 784              		.loc 1 653 3 view .LVU245
 654:Drivers/RTT/SEGGER_RTT.c ****   unsigned                RdOff;
 785              		.loc 1 654 3 view .LVU246
 655:Drivers/RTT/SEGGER_RTT.c ****   unsigned                WrOff;
 786              		.loc 1 655 3 view .LVU247
 656:Drivers/RTT/SEGGER_RTT.c ****   unsigned char*          pBuffer;
 787              		.loc 1 656 3 view .LVU248
 657:Drivers/RTT/SEGGER_RTT.c ****   SEGGER_RTT_BUFFER_DOWN* pRing;
 788              		.loc 1 657 3 view .LVU249
 658:Drivers/RTT/SEGGER_RTT.c ****   volatile char*          pSrc;
 789              		.loc 1 658 3 view .LVU250
 790              	.LBB4:
 659:Drivers/RTT/SEGGER_RTT.c ****   //
 660:Drivers/RTT/SEGGER_RTT.c ****   INIT();
 791              		.loc 1 660 3 view .LVU251
 792              		.loc 1 660 3 view .LVU252
 793              	.LVL80:
 794              		.loc 1 660 3 view .LVU253
 795              		.loc 1 660 3 view .LVU254
 796 000a 244B     		ldr	r3, .L49
 797 000c 1B78     		ldrb	r3, [r3]	@ zero_extendqisi2
 798 000e C3B1     		cbz	r3, .L46
 799              	.LVL81:
 800              	.L39:
 801              		.loc 1 660 3 discriminator 3 view .LVU255
 802              	.LBE4:
 803              		.loc 1 660 9 discriminator 3 view .LVU256
 661:Drivers/RTT/SEGGER_RTT.c ****   pRing = (SEGGER_RTT_BUFFER_DOWN*)((char*)&_SEGGER_RTT.aDown[BufferIndex] + SEGGER_RTT_UNCACHED_OF
 804              		.loc 1 661 3 discriminator 3 view .LVU257
 662:Drivers/RTT/SEGGER_RTT.c ****   pBuffer = (unsigned char*)pData;
 805              		.loc 1 662 3 discriminator 3 view .LVU258
 663:Drivers/RTT/SEGGER_RTT.c ****   RdOff = pRing->RdOff;
 806              		.loc 1 663 3 discriminator 3 view .LVU259
 807              		.loc 1 663 9 is_stmt 0 discriminator 3 view .LVU260
 808 0010 04EB4403 		add	r3, r4, r4, lsl #1
 809 0014 214A     		ldr	r2, .L49
 810 0016 02EBC303 		add	r3, r2, r3, lsl #3
 811 001a 1F6F     		ldr	r7, [r3, #112]
 812              	.LVL82:
 664:Drivers/RTT/SEGGER_RTT.c ****   WrOff = pRing->WrOff;
 813              		.loc 1 664 3 is_stmt 1 discriminator 3 view .LVU261
 814              		.loc 1 664 9 is_stmt 0 discriminator 3 view .LVU262
 815 001c DD6E     		ldr	r5, [r3, #108]
ARM GAS  C:\Users\seblo\AppData\Local\Temp\ccqImqhn.s 			page 30


 816              	.LVL83:
 665:Drivers/RTT/SEGGER_RTT.c ****   NumBytesRead = 0u;
 817              		.loc 1 665 3 is_stmt 1 discriminator 3 view .LVU263
 666:Drivers/RTT/SEGGER_RTT.c ****   //
 667:Drivers/RTT/SEGGER_RTT.c ****   // Read from current read position to wrap-around of buffer, first
 668:Drivers/RTT/SEGGER_RTT.c ****   //
 669:Drivers/RTT/SEGGER_RTT.c ****   if (RdOff > WrOff) {
 818              		.loc 1 669 3 discriminator 3 view .LVU264
 819              		.loc 1 669 6 is_stmt 0 discriminator 3 view .LVU265
 820 001e AF42     		cmp	r7, r5
 821 0020 12D8     		bhi	.L47
 665:Drivers/RTT/SEGGER_RTT.c ****   NumBytesRead = 0u;
 822              		.loc 1 665 16 view .LVU266
 823 0022 0026     		movs	r6, #0
 824              	.LVL84:
 825              	.L40:
 670:Drivers/RTT/SEGGER_RTT.c ****     NumBytesRem = pRing->SizeOfBuffer - RdOff;
 671:Drivers/RTT/SEGGER_RTT.c ****     NumBytesRem = MIN(NumBytesRem, BufferSize);
 672:Drivers/RTT/SEGGER_RTT.c ****     pSrc = (pRing->pBuffer + RdOff) + SEGGER_RTT_UNCACHED_OFF;
 673:Drivers/RTT/SEGGER_RTT.c **** #if SEGGER_RTT_MEMCPY_USE_BYTELOOP
 674:Drivers/RTT/SEGGER_RTT.c ****     NumBytesRead += NumBytesRem;
 675:Drivers/RTT/SEGGER_RTT.c ****     BufferSize   -= NumBytesRem;
 676:Drivers/RTT/SEGGER_RTT.c ****     RdOff        += NumBytesRem;
 677:Drivers/RTT/SEGGER_RTT.c ****     while (NumBytesRem--) {
 678:Drivers/RTT/SEGGER_RTT.c ****       *pBuffer++ = *pSrc++;
 679:Drivers/RTT/SEGGER_RTT.c ****     };
 680:Drivers/RTT/SEGGER_RTT.c **** #else
 681:Drivers/RTT/SEGGER_RTT.c ****     SEGGER_RTT_MEMCPY(pBuffer, (void*)pSrc, NumBytesRem);
 682:Drivers/RTT/SEGGER_RTT.c ****     NumBytesRead += NumBytesRem;
 683:Drivers/RTT/SEGGER_RTT.c ****     pBuffer      += NumBytesRem;
 684:Drivers/RTT/SEGGER_RTT.c ****     BufferSize   -= NumBytesRem;
 685:Drivers/RTT/SEGGER_RTT.c ****     RdOff        += NumBytesRem;
 686:Drivers/RTT/SEGGER_RTT.c **** #endif
 687:Drivers/RTT/SEGGER_RTT.c ****     //
 688:Drivers/RTT/SEGGER_RTT.c ****     // Handle wrap-around of buffer
 689:Drivers/RTT/SEGGER_RTT.c ****     //
 690:Drivers/RTT/SEGGER_RTT.c ****     if (RdOff == pRing->SizeOfBuffer) {
 691:Drivers/RTT/SEGGER_RTT.c ****       RdOff = 0u;
 692:Drivers/RTT/SEGGER_RTT.c ****     }
 693:Drivers/RTT/SEGGER_RTT.c ****   }
 694:Drivers/RTT/SEGGER_RTT.c ****   //
 695:Drivers/RTT/SEGGER_RTT.c ****   // Read remaining items of buffer
 696:Drivers/RTT/SEGGER_RTT.c ****   //
 697:Drivers/RTT/SEGGER_RTT.c ****   NumBytesRem = WrOff - RdOff;
 826              		.loc 1 697 3 is_stmt 1 view .LVU267
 827              		.loc 1 697 15 is_stmt 0 view .LVU268
 828 0024 ED1B     		subs	r5, r5, r7
 829              	.LVL85:
 698:Drivers/RTT/SEGGER_RTT.c ****   NumBytesRem = MIN(NumBytesRem, BufferSize);
 830              		.loc 1 698 3 is_stmt 1 view .LVU269
 831              		.loc 1 698 15 is_stmt 0 view .LVU270
 832 0026 4D45     		cmp	r5, r9
 833 0028 28BF     		it	cs
 834 002a 4D46     		movcs	r5, r9
 835              	.LVL86:
 699:Drivers/RTT/SEGGER_RTT.c ****   if (NumBytesRem > 0u) {
 836              		.loc 1 699 3 is_stmt 1 view .LVU271
ARM GAS  C:\Users\seblo\AppData\Local\Temp\ccqImqhn.s 			page 31


 837              		.loc 1 699 6 is_stmt 0 view .LVU272
 838 002c 3DBB     		cbnz	r5, .L48
 839              	.LVL87:
 840              	.L41:
 700:Drivers/RTT/SEGGER_RTT.c ****     pSrc = (pRing->pBuffer + RdOff) + SEGGER_RTT_UNCACHED_OFF;
 701:Drivers/RTT/SEGGER_RTT.c **** #if SEGGER_RTT_MEMCPY_USE_BYTELOOP
 702:Drivers/RTT/SEGGER_RTT.c ****     NumBytesRead += NumBytesRem;
 703:Drivers/RTT/SEGGER_RTT.c ****     BufferSize   -= NumBytesRem;
 704:Drivers/RTT/SEGGER_RTT.c ****     RdOff        += NumBytesRem;
 705:Drivers/RTT/SEGGER_RTT.c ****     while (NumBytesRem--) {
 706:Drivers/RTT/SEGGER_RTT.c ****       *pBuffer++ = *pSrc++;
 707:Drivers/RTT/SEGGER_RTT.c ****     };
 708:Drivers/RTT/SEGGER_RTT.c **** #else
 709:Drivers/RTT/SEGGER_RTT.c ****     SEGGER_RTT_MEMCPY(pBuffer, (void*)pSrc, NumBytesRem);
 710:Drivers/RTT/SEGGER_RTT.c ****     NumBytesRead += NumBytesRem;
 711:Drivers/RTT/SEGGER_RTT.c ****     pBuffer      += NumBytesRem;
 712:Drivers/RTT/SEGGER_RTT.c ****     BufferSize   -= NumBytesRem;
 713:Drivers/RTT/SEGGER_RTT.c ****     RdOff        += NumBytesRem;
 714:Drivers/RTT/SEGGER_RTT.c **** #endif
 715:Drivers/RTT/SEGGER_RTT.c ****   }
 716:Drivers/RTT/SEGGER_RTT.c ****   if (NumBytesRead) {
 841              		.loc 1 716 3 is_stmt 1 view .LVU273
 842              		.loc 1 716 6 is_stmt 0 view .LVU274
 843 002e 2EB1     		cbz	r6, .L38
 717:Drivers/RTT/SEGGER_RTT.c ****     pRing->RdOff = RdOff;
 844              		.loc 1 717 5 is_stmt 1 view .LVU275
 845              		.loc 1 717 18 is_stmt 0 view .LVU276
 846 0030 04EB4404 		add	r4, r4, r4, lsl #1
 847              	.LVL88:
 848              		.loc 1 717 18 view .LVU277
 849 0034 1948     		ldr	r0, .L49
 850 0036 00EBC404 		add	r4, r0, r4, lsl #3
 851 003a 2767     		str	r7, [r4, #112]
 718:Drivers/RTT/SEGGER_RTT.c ****   }
 719:Drivers/RTT/SEGGER_RTT.c ****   //
 720:Drivers/RTT/SEGGER_RTT.c ****   return NumBytesRead;
 852              		.loc 1 720 3 is_stmt 1 view .LVU278
 853              	.L38:
 721:Drivers/RTT/SEGGER_RTT.c **** }
 854              		.loc 1 721 1 is_stmt 0 view .LVU279
 855 003c 3046     		mov	r0, r6
 856 003e BDE8F087 		pop	{r4, r5, r6, r7, r8, r9, r10, pc}
 857              	.LVL89:
 858              	.L46:
 859              	.LBB5:
 660:Drivers/RTT/SEGGER_RTT.c ****   pRing = (SEGGER_RTT_BUFFER_DOWN*)((char*)&_SEGGER_RTT.aDown[BufferIndex] + SEGGER_RTT_UNCACHED_OF
 860              		.loc 1 660 3 is_stmt 1 discriminator 1 view .LVU280
 861 0042 FFF7FEFF 		bl	_DoInit
 862              	.LVL90:
 660:Drivers/RTT/SEGGER_RTT.c ****   pRing = (SEGGER_RTT_BUFFER_DOWN*)((char*)&_SEGGER_RTT.aDown[BufferIndex] + SEGGER_RTT_UNCACHED_OF
 863              		.loc 1 660 3 is_stmt 0 discriminator 1 view .LVU281
 864 0046 E3E7     		b	.L39
 865              	.LVL91:
 866              	.L47:
 660:Drivers/RTT/SEGGER_RTT.c ****   pRing = (SEGGER_RTT_BUFFER_DOWN*)((char*)&_SEGGER_RTT.aDown[BufferIndex] + SEGGER_RTT_UNCACHED_OF
 867              		.loc 1 660 3 discriminator 1 view .LVU282
 868              	.LBE5:
ARM GAS  C:\Users\seblo\AppData\Local\Temp\ccqImqhn.s 			page 32


 670:Drivers/RTT/SEGGER_RTT.c ****     NumBytesRem = MIN(NumBytesRem, BufferSize);
 869              		.loc 1 670 5 is_stmt 1 view .LVU283
 670:Drivers/RTT/SEGGER_RTT.c ****     NumBytesRem = MIN(NumBytesRem, BufferSize);
 870              		.loc 1 670 24 is_stmt 0 view .LVU284
 871 0048 04EB440A 		add	r10, r4, r4, lsl #1
 872 004c 02EBCA0A 		add	r10, r2, r10, lsl #3
 873 0050 DAF86860 		ldr	r6, [r10, #104]
 670:Drivers/RTT/SEGGER_RTT.c ****     NumBytesRem = MIN(NumBytesRem, BufferSize);
 874              		.loc 1 670 17 view .LVU285
 875 0054 F61B     		subs	r6, r6, r7
 876              	.LVL92:
 671:Drivers/RTT/SEGGER_RTT.c ****     pSrc = (pRing->pBuffer + RdOff) + SEGGER_RTT_UNCACHED_OFF;
 877              		.loc 1 671 5 is_stmt 1 view .LVU286
 671:Drivers/RTT/SEGGER_RTT.c ****     pSrc = (pRing->pBuffer + RdOff) + SEGGER_RTT_UNCACHED_OFF;
 878              		.loc 1 671 17 is_stmt 0 view .LVU287
 879 0056 4E45     		cmp	r6, r9
 880 0058 28BF     		it	cs
 881 005a 4E46     		movcs	r6, r9
 882              	.LVL93:
 672:Drivers/RTT/SEGGER_RTT.c **** #if SEGGER_RTT_MEMCPY_USE_BYTELOOP
 883              		.loc 1 672 5 is_stmt 1 view .LVU288
 672:Drivers/RTT/SEGGER_RTT.c **** #if SEGGER_RTT_MEMCPY_USE_BYTELOOP
 884              		.loc 1 672 18 is_stmt 0 view .LVU289
 885 005c DAF86410 		ldr	r1, [r10, #100]
 886              	.LVL94:
 681:Drivers/RTT/SEGGER_RTT.c ****     NumBytesRead += NumBytesRem;
 887              		.loc 1 681 5 is_stmt 1 view .LVU290
 888 0060 3246     		mov	r2, r6
 889 0062 3944     		add	r1, r1, r7
 890              	.LVL95:
 681:Drivers/RTT/SEGGER_RTT.c ****     NumBytesRead += NumBytesRem;
 891              		.loc 1 681 5 is_stmt 0 view .LVU291
 892 0064 4046     		mov	r0, r8
 893 0066 FFF7FEFF 		bl	memcpy
 894              	.LVL96:
 682:Drivers/RTT/SEGGER_RTT.c ****     pBuffer      += NumBytesRem;
 895              		.loc 1 682 5 is_stmt 1 view .LVU292
 683:Drivers/RTT/SEGGER_RTT.c ****     BufferSize   -= NumBytesRem;
 896              		.loc 1 683 5 view .LVU293
 683:Drivers/RTT/SEGGER_RTT.c ****     BufferSize   -= NumBytesRem;
 897              		.loc 1 683 18 is_stmt 0 view .LVU294
 898 006a B044     		add	r8, r8, r6
 899              	.LVL97:
 684:Drivers/RTT/SEGGER_RTT.c ****     RdOff        += NumBytesRem;
 900              		.loc 1 684 5 is_stmt 1 view .LVU295
 684:Drivers/RTT/SEGGER_RTT.c ****     RdOff        += NumBytesRem;
 901              		.loc 1 684 18 is_stmt 0 view .LVU296
 902 006c A9EB0609 		sub	r9, r9, r6
 903              	.LVL98:
 685:Drivers/RTT/SEGGER_RTT.c **** #endif
 904              		.loc 1 685 5 is_stmt 1 view .LVU297
 685:Drivers/RTT/SEGGER_RTT.c **** #endif
 905              		.loc 1 685 18 is_stmt 0 view .LVU298
 906 0070 3744     		add	r7, r7, r6
 907              	.LVL99:
 690:Drivers/RTT/SEGGER_RTT.c ****       RdOff = 0u;
 908              		.loc 1 690 5 is_stmt 1 view .LVU299
ARM GAS  C:\Users\seblo\AppData\Local\Temp\ccqImqhn.s 			page 33


 690:Drivers/RTT/SEGGER_RTT.c ****       RdOff = 0u;
 909              		.loc 1 690 23 is_stmt 0 view .LVU300
 910 0072 DAF86830 		ldr	r3, [r10, #104]
 690:Drivers/RTT/SEGGER_RTT.c ****       RdOff = 0u;
 911              		.loc 1 690 8 view .LVU301
 912 0076 BB42     		cmp	r3, r7
 913 0078 D4D1     		bne	.L40
 691:Drivers/RTT/SEGGER_RTT.c ****     }
 914              		.loc 1 691 13 view .LVU302
 915 007a 0027     		movs	r7, #0
 916              	.LVL100:
 691:Drivers/RTT/SEGGER_RTT.c ****     }
 917              		.loc 1 691 13 view .LVU303
 918 007c D2E7     		b	.L40
 919              	.LVL101:
 920              	.L48:
 700:Drivers/RTT/SEGGER_RTT.c **** #if SEGGER_RTT_MEMCPY_USE_BYTELOOP
 921              		.loc 1 700 5 is_stmt 1 view .LVU304
 700:Drivers/RTT/SEGGER_RTT.c **** #if SEGGER_RTT_MEMCPY_USE_BYTELOOP
 922              		.loc 1 700 18 is_stmt 0 view .LVU305
 923 007e 04EB4403 		add	r3, r4, r4, lsl #1
 924 0082 064A     		ldr	r2, .L49
 925 0084 02EBC303 		add	r3, r2, r3, lsl #3
 926 0088 596E     		ldr	r1, [r3, #100]
 927              	.LVL102:
 709:Drivers/RTT/SEGGER_RTT.c ****     NumBytesRead += NumBytesRem;
 928              		.loc 1 709 5 is_stmt 1 view .LVU306
 929 008a 2A46     		mov	r2, r5
 930 008c 3944     		add	r1, r1, r7
 931              	.LVL103:
 709:Drivers/RTT/SEGGER_RTT.c ****     NumBytesRead += NumBytesRem;
 932              		.loc 1 709 5 is_stmt 0 view .LVU307
 933 008e 4046     		mov	r0, r8
 934 0090 FFF7FEFF 		bl	memcpy
 935              	.LVL104:
 710:Drivers/RTT/SEGGER_RTT.c ****     pBuffer      += NumBytesRem;
 936              		.loc 1 710 5 is_stmt 1 view .LVU308
 710:Drivers/RTT/SEGGER_RTT.c ****     pBuffer      += NumBytesRem;
 937              		.loc 1 710 18 is_stmt 0 view .LVU309
 938 0094 2E44     		add	r6, r6, r5
 939              	.LVL105:
 711:Drivers/RTT/SEGGER_RTT.c ****     BufferSize   -= NumBytesRem;
 940              		.loc 1 711 5 is_stmt 1 view .LVU310
 712:Drivers/RTT/SEGGER_RTT.c ****     RdOff        += NumBytesRem;
 941              		.loc 1 712 5 view .LVU311
 713:Drivers/RTT/SEGGER_RTT.c **** #endif
 942              		.loc 1 713 5 view .LVU312
 713:Drivers/RTT/SEGGER_RTT.c **** #endif
 943              		.loc 1 713 18 is_stmt 0 view .LVU313
 944 0096 2F44     		add	r7, r7, r5
 945              	.LVL106:
 713:Drivers/RTT/SEGGER_RTT.c **** #endif
 946              		.loc 1 713 18 view .LVU314
 947 0098 C9E7     		b	.L41
 948              	.L50:
 949 009a 00BF     		.align	2
 950              	.L49:
ARM GAS  C:\Users\seblo\AppData\Local\Temp\ccqImqhn.s 			page 34


 951 009c 00000000 		.word	.LANCHOR1
 952              		.cfi_endproc
 953              	.LFE6:
 955              		.section	.text.SEGGER_RTT_ReadUpBuffer,"ax",%progbits
 956              		.align	1
 957              		.global	SEGGER_RTT_ReadUpBuffer
 958              		.syntax unified
 959              		.thumb
 960              		.thumb_func
 961              		.fpu fpv5-sp-d16
 963              	SEGGER_RTT_ReadUpBuffer:
 964              	.LVL107:
 965              	.LFB7:
 722:Drivers/RTT/SEGGER_RTT.c **** 
 723:Drivers/RTT/SEGGER_RTT.c **** /*********************************************************************
 724:Drivers/RTT/SEGGER_RTT.c **** *
 725:Drivers/RTT/SEGGER_RTT.c **** *       SEGGER_RTT_ReadUpBuffer
 726:Drivers/RTT/SEGGER_RTT.c **** *
 727:Drivers/RTT/SEGGER_RTT.c **** *  Function description
 728:Drivers/RTT/SEGGER_RTT.c **** *    Reads characters from SEGGER real-time-terminal control block
 729:Drivers/RTT/SEGGER_RTT.c **** *    which have been previously stored by the application.
 730:Drivers/RTT/SEGGER_RTT.c **** *    Used to do the same operation that J-Link does, to transfer 
 731:Drivers/RTT/SEGGER_RTT.c **** *    RTT data via other channels, such as TCP/IP or UART.
 732:Drivers/RTT/SEGGER_RTT.c **** *
 733:Drivers/RTT/SEGGER_RTT.c **** *  Parameters
 734:Drivers/RTT/SEGGER_RTT.c **** *    BufferIndex  Index of Up-buffer to be used.
 735:Drivers/RTT/SEGGER_RTT.c **** *    pBuffer      Pointer to buffer provided by target application, to copy characters from RTT-up-
 736:Drivers/RTT/SEGGER_RTT.c **** *    BufferSize   Size of the target application buffer.
 737:Drivers/RTT/SEGGER_RTT.c **** *
 738:Drivers/RTT/SEGGER_RTT.c **** *  Return value
 739:Drivers/RTT/SEGGER_RTT.c **** *    Number of bytes that have been read.
 740:Drivers/RTT/SEGGER_RTT.c **** *
 741:Drivers/RTT/SEGGER_RTT.c **** *  Additional information
 742:Drivers/RTT/SEGGER_RTT.c **** *    This function must not be called when J-Link might also do RTT.
 743:Drivers/RTT/SEGGER_RTT.c **** *    This function locks against all other RTT operations. I.e. during
 744:Drivers/RTT/SEGGER_RTT.c **** *    the read operation, writing is also locked.
 745:Drivers/RTT/SEGGER_RTT.c **** *    If only one consumer reads from the up buffer, 
 746:Drivers/RTT/SEGGER_RTT.c **** *    call sEGGER_RTT_ReadUpBufferNoLock() instead.
 747:Drivers/RTT/SEGGER_RTT.c **** */
 748:Drivers/RTT/SEGGER_RTT.c **** unsigned SEGGER_RTT_ReadUpBuffer(unsigned BufferIndex, void* pBuffer, unsigned BufferSize) {
 966              		.loc 1 748 92 is_stmt 1 view -0
 967              		.cfi_startproc
 968              		@ args = 0, pretend = 0, frame = 0
 969              		@ frame_needed = 0, uses_anonymous_args = 0
 970              		.loc 1 748 92 is_stmt 0 view .LVU316
 971 0000 10B5     		push	{r4, lr}
 972              	.LCFI7:
 973              		.cfi_def_cfa_offset 8
 974              		.cfi_offset 4, -8
 975              		.cfi_offset 14, -4
 976 0002 0B46     		mov	r3, r1
 749:Drivers/RTT/SEGGER_RTT.c ****   unsigned NumBytesRead;
 977              		.loc 1 749 3 is_stmt 1 view .LVU317
 978              	.LBB6:
 750:Drivers/RTT/SEGGER_RTT.c **** 
 751:Drivers/RTT/SEGGER_RTT.c ****   SEGGER_RTT_LOCK();
 979              		.loc 1 751 3 view .LVU318
ARM GAS  C:\Users\seblo\AppData\Local\Temp\ccqImqhn.s 			page 35


 980              		.loc 1 751 3 view .LVU319
 981              		.syntax unified
 982              	@ 751 "Drivers/RTT/SEGGER_RTT.c" 1
 983 0004 EFF31184 		mrs   r4, basepri  
 984 0008 4FF02001 		mov   r1, #32       
 985 000c 81F31188 		msr   basepri, r1  
 986              		
 987              	@ 0 "" 2
 988              	.LVL108:
 989              		.loc 1 751 20 view .LVU320
 752:Drivers/RTT/SEGGER_RTT.c ****   //
 753:Drivers/RTT/SEGGER_RTT.c ****   // Call the non-locking read function
 754:Drivers/RTT/SEGGER_RTT.c ****   //
 755:Drivers/RTT/SEGGER_RTT.c ****   NumBytesRead = SEGGER_RTT_ReadUpBufferNoLock(BufferIndex, pBuffer, BufferSize);
 990              		.loc 1 755 3 view .LVU321
 991              		.loc 1 755 18 is_stmt 0 view .LVU322
 992              		.thumb
 993              		.syntax unified
 994 0010 1946     		mov	r1, r3
 995 0012 FFF7FEFF 		bl	SEGGER_RTT_ReadUpBufferNoLock
 996              	.LVL109:
 756:Drivers/RTT/SEGGER_RTT.c ****   //
 757:Drivers/RTT/SEGGER_RTT.c ****   // Finish up.
 758:Drivers/RTT/SEGGER_RTT.c ****   //
 759:Drivers/RTT/SEGGER_RTT.c ****   SEGGER_RTT_UNLOCK();
 997              		.loc 1 759 3 is_stmt 1 view .LVU323
 998              		.syntax unified
 999              	@ 759 "Drivers/RTT/SEGGER_RTT.c" 1
 1000 0016 84F31188 		msr   basepri, r4  
 1001              		
 1002              	@ 0 "" 2
 1003              		.thumb
 1004              		.syntax unified
 1005              	.LBE6:
 1006              		.loc 1 759 22 view .LVU324
 760:Drivers/RTT/SEGGER_RTT.c ****   //
 761:Drivers/RTT/SEGGER_RTT.c ****   return NumBytesRead;
 1007              		.loc 1 761 3 view .LVU325
 762:Drivers/RTT/SEGGER_RTT.c **** }
 1008              		.loc 1 762 1 is_stmt 0 view .LVU326
 1009 001a 10BD     		pop	{r4, pc}
 1010              		.loc 1 762 1 view .LVU327
 1011              		.cfi_endproc
 1012              	.LFE7:
 1014              		.section	.text.SEGGER_RTT_Read,"ax",%progbits
 1015              		.align	1
 1016              		.global	SEGGER_RTT_Read
 1017              		.syntax unified
 1018              		.thumb
 1019              		.thumb_func
 1020              		.fpu fpv5-sp-d16
 1022              	SEGGER_RTT_Read:
 1023              	.LVL110:
 1024              	.LFB8:
 763:Drivers/RTT/SEGGER_RTT.c **** 
 764:Drivers/RTT/SEGGER_RTT.c **** /*********************************************************************
 765:Drivers/RTT/SEGGER_RTT.c **** *
ARM GAS  C:\Users\seblo\AppData\Local\Temp\ccqImqhn.s 			page 36


 766:Drivers/RTT/SEGGER_RTT.c **** *       SEGGER_RTT_Read
 767:Drivers/RTT/SEGGER_RTT.c **** *
 768:Drivers/RTT/SEGGER_RTT.c **** *  Function description
 769:Drivers/RTT/SEGGER_RTT.c **** *    Reads characters from SEGGER real-time-terminal control block
 770:Drivers/RTT/SEGGER_RTT.c **** *    which have been previously stored by the host.
 771:Drivers/RTT/SEGGER_RTT.c **** *
 772:Drivers/RTT/SEGGER_RTT.c **** *  Parameters
 773:Drivers/RTT/SEGGER_RTT.c **** *    BufferIndex  Index of Down-buffer to be used (e.g. 0 for "Terminal").
 774:Drivers/RTT/SEGGER_RTT.c **** *    pBuffer      Pointer to buffer provided by target application, to copy characters from RTT-dow
 775:Drivers/RTT/SEGGER_RTT.c **** *    BufferSize   Size of the target application buffer.
 776:Drivers/RTT/SEGGER_RTT.c **** *
 777:Drivers/RTT/SEGGER_RTT.c **** *  Return value
 778:Drivers/RTT/SEGGER_RTT.c **** *    Number of bytes that have been read.
 779:Drivers/RTT/SEGGER_RTT.c **** */
 780:Drivers/RTT/SEGGER_RTT.c **** unsigned SEGGER_RTT_Read(unsigned BufferIndex, void* pBuffer, unsigned BufferSize) {
 1025              		.loc 1 780 84 is_stmt 1 view -0
 1026              		.cfi_startproc
 1027              		@ args = 0, pretend = 0, frame = 0
 1028              		@ frame_needed = 0, uses_anonymous_args = 0
 1029              		.loc 1 780 84 is_stmt 0 view .LVU329
 1030 0000 10B5     		push	{r4, lr}
 1031              	.LCFI8:
 1032              		.cfi_def_cfa_offset 8
 1033              		.cfi_offset 4, -8
 1034              		.cfi_offset 14, -4
 1035 0002 0B46     		mov	r3, r1
 781:Drivers/RTT/SEGGER_RTT.c ****   unsigned NumBytesRead;
 1036              		.loc 1 781 3 is_stmt 1 view .LVU330
 1037              	.LBB7:
 782:Drivers/RTT/SEGGER_RTT.c **** 
 783:Drivers/RTT/SEGGER_RTT.c ****   SEGGER_RTT_LOCK();
 1038              		.loc 1 783 3 view .LVU331
 1039              		.loc 1 783 3 view .LVU332
 1040              		.syntax unified
 1041              	@ 783 "Drivers/RTT/SEGGER_RTT.c" 1
 1042 0004 EFF31184 		mrs   r4, basepri  
 1043 0008 4FF02001 		mov   r1, #32       
 1044 000c 81F31188 		msr   basepri, r1  
 1045              		
 1046              	@ 0 "" 2
 1047              	.LVL111:
 1048              		.loc 1 783 20 view .LVU333
 784:Drivers/RTT/SEGGER_RTT.c ****   //
 785:Drivers/RTT/SEGGER_RTT.c ****   // Call the non-locking read function
 786:Drivers/RTT/SEGGER_RTT.c ****   //
 787:Drivers/RTT/SEGGER_RTT.c ****   NumBytesRead = SEGGER_RTT_ReadNoLock(BufferIndex, pBuffer, BufferSize);
 1049              		.loc 1 787 3 view .LVU334
 1050              		.loc 1 787 18 is_stmt 0 view .LVU335
 1051              		.thumb
 1052              		.syntax unified
 1053 0010 1946     		mov	r1, r3
 1054 0012 FFF7FEFF 		bl	SEGGER_RTT_ReadNoLock
 1055              	.LVL112:
 788:Drivers/RTT/SEGGER_RTT.c ****   //
 789:Drivers/RTT/SEGGER_RTT.c ****   // Finish up.
 790:Drivers/RTT/SEGGER_RTT.c ****   //
 791:Drivers/RTT/SEGGER_RTT.c ****   SEGGER_RTT_UNLOCK();
ARM GAS  C:\Users\seblo\AppData\Local\Temp\ccqImqhn.s 			page 37


 1056              		.loc 1 791 3 is_stmt 1 view .LVU336
 1057              		.syntax unified
 1058              	@ 791 "Drivers/RTT/SEGGER_RTT.c" 1
 1059 0016 84F31188 		msr   basepri, r4  
 1060              		
 1061              	@ 0 "" 2
 1062              		.thumb
 1063              		.syntax unified
 1064              	.LBE7:
 1065              		.loc 1 791 22 view .LVU337
 792:Drivers/RTT/SEGGER_RTT.c ****   //
 793:Drivers/RTT/SEGGER_RTT.c ****   return NumBytesRead;
 1066              		.loc 1 793 3 view .LVU338
 794:Drivers/RTT/SEGGER_RTT.c **** }
 1067              		.loc 1 794 1 is_stmt 0 view .LVU339
 1068 001a 10BD     		pop	{r4, pc}
 1069              		.loc 1 794 1 view .LVU340
 1070              		.cfi_endproc
 1071              	.LFE8:
 1073              		.section	.text.SEGGER_RTT_WriteWithOverwriteNoLock,"ax",%progbits
 1074              		.align	1
 1075              		.global	SEGGER_RTT_WriteWithOverwriteNoLock
 1076              		.syntax unified
 1077              		.thumb
 1078              		.thumb_func
 1079              		.fpu fpv5-sp-d16
 1081              	SEGGER_RTT_WriteWithOverwriteNoLock:
 1082              	.LVL113:
 1083              	.LFB9:
 795:Drivers/RTT/SEGGER_RTT.c **** 
 796:Drivers/RTT/SEGGER_RTT.c **** /*********************************************************************
 797:Drivers/RTT/SEGGER_RTT.c **** *
 798:Drivers/RTT/SEGGER_RTT.c **** *       SEGGER_RTT_WriteWithOverwriteNoLock
 799:Drivers/RTT/SEGGER_RTT.c **** *
 800:Drivers/RTT/SEGGER_RTT.c **** *  Function description
 801:Drivers/RTT/SEGGER_RTT.c **** *    Stores a specified number of characters in SEGGER RTT
 802:Drivers/RTT/SEGGER_RTT.c **** *    control block.
 803:Drivers/RTT/SEGGER_RTT.c **** *    SEGGER_RTT_WriteWithOverwriteNoLock does not lock the application 
 804:Drivers/RTT/SEGGER_RTT.c **** *    and overwrites data if the data does not fit into the buffer.
 805:Drivers/RTT/SEGGER_RTT.c **** *
 806:Drivers/RTT/SEGGER_RTT.c **** *  Parameters
 807:Drivers/RTT/SEGGER_RTT.c **** *    BufferIndex  Index of "Up"-buffer to be used (e.g. 0 for "Terminal").
 808:Drivers/RTT/SEGGER_RTT.c **** *    pBuffer      Pointer to character array. Does not need to point to a \0 terminated string.
 809:Drivers/RTT/SEGGER_RTT.c **** *    NumBytes     Number of bytes to be stored in the SEGGER RTT control block.
 810:Drivers/RTT/SEGGER_RTT.c **** *
 811:Drivers/RTT/SEGGER_RTT.c **** *  Notes
 812:Drivers/RTT/SEGGER_RTT.c **** *    (1) If there is not enough space in the "Up"-buffer, data is overwritten.
 813:Drivers/RTT/SEGGER_RTT.c **** *    (2) For performance reasons this function does not call Init()
 814:Drivers/RTT/SEGGER_RTT.c **** *        and may only be called after RTT has been initialized.
 815:Drivers/RTT/SEGGER_RTT.c **** *        Either by calling SEGGER_RTT_Init() or calling another RTT API function first.
 816:Drivers/RTT/SEGGER_RTT.c **** *    (3) Do not use SEGGER_RTT_WriteWithOverwriteNoLock if a J-Link 
 817:Drivers/RTT/SEGGER_RTT.c **** *        connection reads RTT data.
 818:Drivers/RTT/SEGGER_RTT.c **** */
 819:Drivers/RTT/SEGGER_RTT.c **** void SEGGER_RTT_WriteWithOverwriteNoLock(unsigned BufferIndex, const void* pBuffer, unsigned NumByt
 1084              		.loc 1 819 104 is_stmt 1 view -0
 1085              		.cfi_startproc
 1086              		@ args = 0, pretend = 0, frame = 0
ARM GAS  C:\Users\seblo\AppData\Local\Temp\ccqImqhn.s 			page 38


 1087              		@ frame_needed = 0, uses_anonymous_args = 0
 1088              		.loc 1 819 104 is_stmt 0 view .LVU342
 1089 0000 2DE9F843 		push	{r3, r4, r5, r6, r7, r8, r9, lr}
 1090              	.LCFI9:
 1091              		.cfi_def_cfa_offset 32
 1092              		.cfi_offset 3, -32
 1093              		.cfi_offset 4, -28
 1094              		.cfi_offset 5, -24
 1095              		.cfi_offset 6, -20
 1096              		.cfi_offset 7, -16
 1097              		.cfi_offset 8, -12
 1098              		.cfi_offset 9, -8
 1099              		.cfi_offset 14, -4
 1100 0004 0646     		mov	r6, r0
 1101 0006 8846     		mov	r8, r1
 1102 0008 1746     		mov	r7, r2
 820:Drivers/RTT/SEGGER_RTT.c ****   const char*           pData;
 1103              		.loc 1 820 3 is_stmt 1 view .LVU343
 821:Drivers/RTT/SEGGER_RTT.c ****   SEGGER_RTT_BUFFER_UP* pRing;
 1104              		.loc 1 821 3 view .LVU344
 822:Drivers/RTT/SEGGER_RTT.c ****   unsigned              Avail;
 1105              		.loc 1 822 3 view .LVU345
 823:Drivers/RTT/SEGGER_RTT.c ****   volatile char*        pDst;
 1106              		.loc 1 823 3 view .LVU346
 824:Drivers/RTT/SEGGER_RTT.c ****   //
 825:Drivers/RTT/SEGGER_RTT.c ****   // Get "to-host" ring buffer and copy some elements into local variables.
 826:Drivers/RTT/SEGGER_RTT.c ****   //
 827:Drivers/RTT/SEGGER_RTT.c ****   pData = (const char *)pBuffer;
 1107              		.loc 1 827 3 view .LVU347
 1108              	.LVL114:
 828:Drivers/RTT/SEGGER_RTT.c ****   pRing = (SEGGER_RTT_BUFFER_UP*)((char*)&_SEGGER_RTT.aUp[BufferIndex] + SEGGER_RTT_UNCACHED_OFF); 
 1109              		.loc 1 828 3 view .LVU348
 829:Drivers/RTT/SEGGER_RTT.c ****   //
 830:Drivers/RTT/SEGGER_RTT.c ****   // Check if we will overwrite data and need to adjust the RdOff.
 831:Drivers/RTT/SEGGER_RTT.c ****   //
 832:Drivers/RTT/SEGGER_RTT.c ****   if (pRing->WrOff == pRing->RdOff) {
 1110              		.loc 1 832 3 view .LVU349
 1111              		.loc 1 832 12 is_stmt 0 view .LVU350
 1112 000a 00EB4002 		add	r2, r0, r0, lsl #1
 1113              	.LVL115:
 1114              		.loc 1 832 12 view .LVU351
 1115 000e 414B     		ldr	r3, .L68
 1116 0010 03EBC203 		add	r3, r3, r2, lsl #3
 1117 0014 596A     		ldr	r1, [r3, #36]
 1118              	.LVL116:
 1119              		.loc 1 832 28 view .LVU352
 1120 0016 9B6A     		ldr	r3, [r3, #40]
 1121              		.loc 1 832 6 view .LVU353
 1122 0018 9942     		cmp	r1, r3
 1123 001a 0FD0     		beq	.L66
 833:Drivers/RTT/SEGGER_RTT.c ****     Avail = pRing->SizeOfBuffer - 1u;
 834:Drivers/RTT/SEGGER_RTT.c ****   } else if ( pRing->WrOff < pRing->RdOff) {
 1124              		.loc 1 834 10 is_stmt 1 view .LVU354
 1125              		.loc 1 834 35 is_stmt 0 view .LVU355
 1126 001c 00EB4003 		add	r3, r0, r0, lsl #1
 1127 0020 3C4A     		ldr	r2, .L68
 1128 0022 02EBC303 		add	r3, r2, r3, lsl #3
ARM GAS  C:\Users\seblo\AppData\Local\Temp\ccqImqhn.s 			page 39


 1129 0026 9B6A     		ldr	r3, [r3, #40]
 1130              		.loc 1 834 13 view .LVU356
 1131 0028 9942     		cmp	r1, r3
 1132 002a 19D2     		bcs	.L58
 835:Drivers/RTT/SEGGER_RTT.c ****     Avail = pRing->RdOff - pRing->WrOff - 1u;
 1133              		.loc 1 835 5 is_stmt 1 view .LVU357
 1134              		.loc 1 835 18 is_stmt 0 view .LVU358
 1135 002c 00EB4003 		add	r3, r0, r0, lsl #1
 1136 0030 02EBC303 		add	r3, r2, r3, lsl #3
 1137 0034 9B6A     		ldr	r3, [r3, #40]
 1138              		.loc 1 835 26 view .LVU359
 1139 0036 5B1A     		subs	r3, r3, r1
 1140              		.loc 1 835 11 view .LVU360
 1141 0038 013B     		subs	r3, r3, #1
 1142              	.LVL117:
 1143              		.loc 1 835 11 view .LVU361
 1144 003a 05E0     		b	.L57
 1145              	.LVL118:
 1146              	.L66:
 833:Drivers/RTT/SEGGER_RTT.c ****     Avail = pRing->SizeOfBuffer - 1u;
 1147              		.loc 1 833 5 is_stmt 1 view .LVU362
 833:Drivers/RTT/SEGGER_RTT.c ****     Avail = pRing->SizeOfBuffer - 1u;
 1148              		.loc 1 833 18 is_stmt 0 view .LVU363
 1149 003c 1346     		mov	r3, r2
 1150 003e 354A     		ldr	r2, .L68
 1151 0040 02EBC303 		add	r3, r2, r3, lsl #3
 1152 0044 1B6A     		ldr	r3, [r3, #32]
 833:Drivers/RTT/SEGGER_RTT.c ****     Avail = pRing->SizeOfBuffer - 1u;
 1153              		.loc 1 833 11 view .LVU364
 1154 0046 013B     		subs	r3, r3, #1
 1155              	.LVL119:
 1156              	.L57:
 836:Drivers/RTT/SEGGER_RTT.c ****   } else {
 837:Drivers/RTT/SEGGER_RTT.c ****     Avail = pRing->RdOff - pRing->WrOff - 1u + pRing->SizeOfBuffer;
 838:Drivers/RTT/SEGGER_RTT.c ****   }
 839:Drivers/RTT/SEGGER_RTT.c ****   if (NumBytes > Avail) {
 1157              		.loc 1 839 3 is_stmt 1 view .LVU365
 1158              		.loc 1 839 6 is_stmt 0 view .LVU366
 1159 0048 BB42     		cmp	r3, r7
 1160 004a 25D2     		bcs	.L59
 840:Drivers/RTT/SEGGER_RTT.c ****     pRing->RdOff += (NumBytes - Avail);
 1161              		.loc 1 840 5 is_stmt 1 view .LVU367
 1162              		.loc 1 840 18 is_stmt 0 view .LVU368
 1163 004c 06EB4602 		add	r2, r6, r6, lsl #1
 1164 0050 3048     		ldr	r0, .L68
 1165              	.LVL120:
 1166              		.loc 1 840 18 view .LVU369
 1167 0052 00EBC202 		add	r2, r0, r2, lsl #3
 1168 0056 906A     		ldr	r0, [r2, #40]
 1169              		.loc 1 840 31 view .LVU370
 1170 0058 FB1A     		subs	r3, r7, r3
 1171              	.LVL121:
 1172              		.loc 1 840 18 view .LVU371
 1173 005a 0344     		add	r3, r3, r0
 1174 005c 9362     		str	r3, [r2, #40]
 841:Drivers/RTT/SEGGER_RTT.c ****     while (pRing->RdOff >= pRing->SizeOfBuffer) {
 1175              		.loc 1 841 5 is_stmt 1 view .LVU372
ARM GAS  C:\Users\seblo\AppData\Local\Temp\ccqImqhn.s 			page 40


 1176              		.loc 1 841 11 is_stmt 0 view .LVU373
 1177 005e 12E0     		b	.L60
 1178              	.LVL122:
 1179              	.L58:
 837:Drivers/RTT/SEGGER_RTT.c ****   }
 1180              		.loc 1 837 5 is_stmt 1 view .LVU374
 837:Drivers/RTT/SEGGER_RTT.c ****   }
 1181              		.loc 1 837 18 is_stmt 0 view .LVU375
 1182 0060 00EB4002 		add	r2, r0, r0, lsl #1
 1183 0064 2B4B     		ldr	r3, .L68
 1184 0066 03EBC202 		add	r2, r3, r2, lsl #3
 1185 006a 936A     		ldr	r3, [r2, #40]
 837:Drivers/RTT/SEGGER_RTT.c ****   }
 1186              		.loc 1 837 26 view .LVU376
 1187 006c 5B1A     		subs	r3, r3, r1
 837:Drivers/RTT/SEGGER_RTT.c ****   }
 1188              		.loc 1 837 53 view .LVU377
 1189 006e 126A     		ldr	r2, [r2, #32]
 837:Drivers/RTT/SEGGER_RTT.c ****   }
 1190              		.loc 1 837 46 view .LVU378
 1191 0070 1344     		add	r3, r3, r2
 837:Drivers/RTT/SEGGER_RTT.c ****   }
 1192              		.loc 1 837 11 view .LVU379
 1193 0072 013B     		subs	r3, r3, #1
 1194              	.LVL123:
 837:Drivers/RTT/SEGGER_RTT.c ****   }
 1195              		.loc 1 837 11 view .LVU380
 1196 0074 E8E7     		b	.L57
 1197              	.LVL124:
 1198              	.L61:
 842:Drivers/RTT/SEGGER_RTT.c ****       pRing->RdOff -= pRing->SizeOfBuffer;
 1199              		.loc 1 842 7 is_stmt 1 view .LVU381
 1200              		.loc 1 842 20 is_stmt 0 view .LVU382
 1201 0076 06EB4603 		add	r3, r6, r6, lsl #1
 1202 007a 264A     		ldr	r2, .L68
 1203 007c 02EBC303 		add	r3, r2, r3, lsl #3
 1204 0080 9A6A     		ldr	r2, [r3, #40]
 1205 0082 121A     		subs	r2, r2, r0
 1206 0084 9A62     		str	r2, [r3, #40]
 1207              	.L60:
 841:Drivers/RTT/SEGGER_RTT.c ****     while (pRing->RdOff >= pRing->SizeOfBuffer) {
 1208              		.loc 1 841 11 is_stmt 1 view .LVU383
 841:Drivers/RTT/SEGGER_RTT.c ****     while (pRing->RdOff >= pRing->SizeOfBuffer) {
 1209              		.loc 1 841 17 is_stmt 0 view .LVU384
 1210 0086 06EB4603 		add	r3, r6, r6, lsl #1
 1211 008a 224A     		ldr	r2, .L68
 1212 008c 02EBC303 		add	r3, r2, r3, lsl #3
 1213 0090 9A6A     		ldr	r2, [r3, #40]
 841:Drivers/RTT/SEGGER_RTT.c ****     while (pRing->RdOff >= pRing->SizeOfBuffer) {
 1214              		.loc 1 841 33 view .LVU385
 1215 0092 186A     		ldr	r0, [r3, #32]
 841:Drivers/RTT/SEGGER_RTT.c ****     while (pRing->RdOff >= pRing->SizeOfBuffer) {
 1216              		.loc 1 841 11 view .LVU386
 1217 0094 8242     		cmp	r2, r0
 1218 0096 EED2     		bcs	.L61
 1219              	.L59:
 843:Drivers/RTT/SEGGER_RTT.c ****     }
ARM GAS  C:\Users\seblo\AppData\Local\Temp\ccqImqhn.s 			page 41


 844:Drivers/RTT/SEGGER_RTT.c ****   }
 845:Drivers/RTT/SEGGER_RTT.c ****   //
 846:Drivers/RTT/SEGGER_RTT.c ****   // Write all data, no need to check the RdOff, but possibly handle multiple wrap-arounds
 847:Drivers/RTT/SEGGER_RTT.c ****   //
 848:Drivers/RTT/SEGGER_RTT.c ****   Avail = pRing->SizeOfBuffer - pRing->WrOff;
 1220              		.loc 1 848 3 is_stmt 1 view .LVU387
 1221              		.loc 1 848 16 is_stmt 0 view .LVU388
 1222 0098 06EB4603 		add	r3, r6, r6, lsl #1
 1223 009c 1D4A     		ldr	r2, .L68
 1224 009e 02EBC303 		add	r3, r2, r3, lsl #3
 1225 00a2 1C6A     		ldr	r4, [r3, #32]
 1226              		.loc 1 848 9 view .LVU389
 1227 00a4 641A     		subs	r4, r4, r1
 1228              	.LVL125:
 1229              	.L64:
 849:Drivers/RTT/SEGGER_RTT.c ****   do {
 1230              		.loc 1 849 3 is_stmt 1 view .LVU390
 850:Drivers/RTT/SEGGER_RTT.c ****     if (Avail > NumBytes) {
 1231              		.loc 1 850 5 view .LVU391
 1232              		.loc 1 850 8 is_stmt 0 view .LVU392
 1233 00a6 A742     		cmp	r7, r4
 1234 00a8 1BD3     		bcc	.L67
 851:Drivers/RTT/SEGGER_RTT.c ****       //
 852:Drivers/RTT/SEGGER_RTT.c ****       // Last round
 853:Drivers/RTT/SEGGER_RTT.c ****       //
 854:Drivers/RTT/SEGGER_RTT.c ****       pDst = (pRing->pBuffer + pRing->WrOff) + SEGGER_RTT_UNCACHED_OFF;
 855:Drivers/RTT/SEGGER_RTT.c **** #if SEGGER_RTT_MEMCPY_USE_BYTELOOP
 856:Drivers/RTT/SEGGER_RTT.c ****       Avail = NumBytes;
 857:Drivers/RTT/SEGGER_RTT.c ****       while (NumBytes--) {
 858:Drivers/RTT/SEGGER_RTT.c ****         *pDst++ = *pData++;
 859:Drivers/RTT/SEGGER_RTT.c ****       };
 860:Drivers/RTT/SEGGER_RTT.c ****       RTT__DMB();                     // Force data write to be complete before writing the <WrOff>
 861:Drivers/RTT/SEGGER_RTT.c ****       pRing->WrOff += Avail;
 862:Drivers/RTT/SEGGER_RTT.c **** #else
 863:Drivers/RTT/SEGGER_RTT.c ****       SEGGER_RTT_MEMCPY((void*)pDst, pData, NumBytes);
 864:Drivers/RTT/SEGGER_RTT.c ****       RTT__DMB();                     // Force data write to be complete before writing the <WrOff>
 865:Drivers/RTT/SEGGER_RTT.c ****       pRing->WrOff += NumBytes;
 866:Drivers/RTT/SEGGER_RTT.c **** #endif
 867:Drivers/RTT/SEGGER_RTT.c ****       break;
 868:Drivers/RTT/SEGGER_RTT.c ****     } else {
 869:Drivers/RTT/SEGGER_RTT.c ****       //
 870:Drivers/RTT/SEGGER_RTT.c ****       //  Wrap-around necessary, write until wrap-around and reset WrOff
 871:Drivers/RTT/SEGGER_RTT.c ****       //
 872:Drivers/RTT/SEGGER_RTT.c ****       pDst = (pRing->pBuffer + pRing->WrOff) + SEGGER_RTT_UNCACHED_OFF;
 1235              		.loc 1 872 7 is_stmt 1 view .LVU393
 1236              		.loc 1 872 20 is_stmt 0 view .LVU394
 1237 00aa 1A4D     		ldr	r5, .L68
 1238 00ac 731C     		adds	r3, r6, #1
 1239 00ae 03EB4303 		add	r3, r3, r3, lsl #1
 1240 00b2 05EBC303 		add	r3, r5, r3, lsl #3
 1241 00b6 5868     		ldr	r0, [r3, #4]
 1242              		.loc 1 872 37 view .LVU395
 1243 00b8 06EB4603 		add	r3, r6, r6, lsl #1
 1244 00bc 05EBC305 		add	r5, r5, r3, lsl #3
 1245 00c0 6B6A     		ldr	r3, [r5, #36]
 1246              	.LVL126:
 873:Drivers/RTT/SEGGER_RTT.c **** #if SEGGER_RTT_MEMCPY_USE_BYTELOOP
ARM GAS  C:\Users\seblo\AppData\Local\Temp\ccqImqhn.s 			page 42


 874:Drivers/RTT/SEGGER_RTT.c ****       NumBytes -= Avail;
 875:Drivers/RTT/SEGGER_RTT.c ****       while (Avail--) {
 876:Drivers/RTT/SEGGER_RTT.c ****         *pDst++ = *pData++;
 877:Drivers/RTT/SEGGER_RTT.c ****       };
 878:Drivers/RTT/SEGGER_RTT.c ****       RTT__DMB();                     // Force data write to be complete before writing the <WrOff>
 879:Drivers/RTT/SEGGER_RTT.c ****       pRing->WrOff = 0;
 880:Drivers/RTT/SEGGER_RTT.c **** #else
 881:Drivers/RTT/SEGGER_RTT.c ****       SEGGER_RTT_MEMCPY((void*)pDst, pData, Avail);
 1247              		.loc 1 881 7 is_stmt 1 view .LVU396
 1248 00c2 2246     		mov	r2, r4
 1249 00c4 4146     		mov	r1, r8
 1250 00c6 1844     		add	r0, r0, r3
 1251              	.LVL127:
 1252              		.loc 1 881 7 is_stmt 0 view .LVU397
 1253 00c8 FFF7FEFF 		bl	memcpy
 1254              	.LVL128:
 882:Drivers/RTT/SEGGER_RTT.c ****       pData += Avail;
 1255              		.loc 1 882 7 is_stmt 1 view .LVU398
 1256              		.loc 1 882 13 is_stmt 0 view .LVU399
 1257 00cc A044     		add	r8, r8, r4
 1258              	.LVL129:
 883:Drivers/RTT/SEGGER_RTT.c ****       RTT__DMB();                     // Force data write to be complete before writing the <WrOff>
 1259              		.loc 1 883 7 is_stmt 1 view .LVU400
 1260              		.syntax unified
 1261              	@ 883 "Drivers/RTT/SEGGER_RTT.c" 1
 1262 00ce BFF35F8F 		dmb
 1263              	
 1264              	@ 0 "" 2
 1265              		.loc 1 883 17 view .LVU401
 884:Drivers/RTT/SEGGER_RTT.c ****       pRing->WrOff = 0;
 1266              		.loc 1 884 7 view .LVU402
 1267              		.loc 1 884 20 is_stmt 0 view .LVU403
 1268              		.thumb
 1269              		.syntax unified
 1270 00d2 0023     		movs	r3, #0
 1271 00d4 6B62     		str	r3, [r5, #36]
 885:Drivers/RTT/SEGGER_RTT.c ****       NumBytes -= Avail;
 1272              		.loc 1 885 7 is_stmt 1 view .LVU404
 1273              		.loc 1 885 16 is_stmt 0 view .LVU405
 1274 00d6 3F1B     		subs	r7, r7, r4
 1275              	.LVL130:
 886:Drivers/RTT/SEGGER_RTT.c **** #endif
 887:Drivers/RTT/SEGGER_RTT.c ****       Avail = (pRing->SizeOfBuffer - 1);
 1276              		.loc 1 887 7 is_stmt 1 view .LVU406
 1277              		.loc 1 887 21 is_stmt 0 view .LVU407
 1278 00d8 2C6A     		ldr	r4, [r5, #32]
 1279              	.LVL131:
 1280              		.loc 1 887 13 view .LVU408
 1281 00da 013C     		subs	r4, r4, #1
 1282              	.LVL132:
 888:Drivers/RTT/SEGGER_RTT.c ****     }
 889:Drivers/RTT/SEGGER_RTT.c ****   } while (NumBytes);
 1283              		.loc 1 889 11 is_stmt 1 view .LVU409
 1284              		.loc 1 889 3 is_stmt 0 view .LVU410
 1285 00dc 002F     		cmp	r7, #0
 1286 00de E2D1     		bne	.L64
 1287 00e0 15E0     		b	.L55
ARM GAS  C:\Users\seblo\AppData\Local\Temp\ccqImqhn.s 			page 43


 1288              	.L67:
 854:Drivers/RTT/SEGGER_RTT.c **** #if SEGGER_RTT_MEMCPY_USE_BYTELOOP
 1289              		.loc 1 854 7 is_stmt 1 view .LVU411
 854:Drivers/RTT/SEGGER_RTT.c **** #if SEGGER_RTT_MEMCPY_USE_BYTELOOP
 1290              		.loc 1 854 20 is_stmt 0 view .LVU412
 1291 00e2 0C4C     		ldr	r4, .L68
 1292              	.LVL133:
 854:Drivers/RTT/SEGGER_RTT.c **** #if SEGGER_RTT_MEMCPY_USE_BYTELOOP
 1293              		.loc 1 854 20 view .LVU413
 1294 00e4 731C     		adds	r3, r6, #1
 1295 00e6 03EB4303 		add	r3, r3, r3, lsl #1
 1296 00ea 04EBC303 		add	r3, r4, r3, lsl #3
 1297 00ee 5868     		ldr	r0, [r3, #4]
 854:Drivers/RTT/SEGGER_RTT.c **** #if SEGGER_RTT_MEMCPY_USE_BYTELOOP
 1298              		.loc 1 854 37 view .LVU414
 1299 00f0 06EB4605 		add	r5, r6, r6, lsl #1
 1300 00f4 04EBC505 		add	r5, r4, r5, lsl #3
 1301 00f8 6B6A     		ldr	r3, [r5, #36]
 1302              	.LVL134:
 863:Drivers/RTT/SEGGER_RTT.c ****       RTT__DMB();                     // Force data write to be complete before writing the <WrOff>
 1303              		.loc 1 863 7 is_stmt 1 view .LVU415
 1304 00fa 3A46     		mov	r2, r7
 1305 00fc 4146     		mov	r1, r8
 1306 00fe 1844     		add	r0, r0, r3
 1307              	.LVL135:
 863:Drivers/RTT/SEGGER_RTT.c ****       RTT__DMB();                     // Force data write to be complete before writing the <WrOff>
 1308              		.loc 1 863 7 is_stmt 0 view .LVU416
 1309 0100 FFF7FEFF 		bl	memcpy
 1310              	.LVL136:
 864:Drivers/RTT/SEGGER_RTT.c ****       pRing->WrOff += NumBytes;
 1311              		.loc 1 864 7 is_stmt 1 view .LVU417
 1312              		.syntax unified
 1313              	@ 864 "Drivers/RTT/SEGGER_RTT.c" 1
 1314 0104 BFF35F8F 		dmb
 1315              	
 1316              	@ 0 "" 2
 864:Drivers/RTT/SEGGER_RTT.c ****       pRing->WrOff += NumBytes;
 1317              		.loc 1 864 17 view .LVU418
 865:Drivers/RTT/SEGGER_RTT.c **** #endif
 1318              		.loc 1 865 7 view .LVU419
 865:Drivers/RTT/SEGGER_RTT.c **** #endif
 1319              		.loc 1 865 20 is_stmt 0 view .LVU420
 1320              		.thumb
 1321              		.syntax unified
 1322 0108 6B6A     		ldr	r3, [r5, #36]
 1323 010a 1F44     		add	r7, r7, r3
 1324              	.LVL137:
 865:Drivers/RTT/SEGGER_RTT.c **** #endif
 1325              		.loc 1 865 20 view .LVU421
 1326 010c 6F62     		str	r7, [r5, #36]
 867:Drivers/RTT/SEGGER_RTT.c ****     } else {
 1327              		.loc 1 867 7 is_stmt 1 view .LVU422
 1328              	.L55:
 890:Drivers/RTT/SEGGER_RTT.c **** }
 1329              		.loc 1 890 1 is_stmt 0 view .LVU423
 1330 010e BDE8F883 		pop	{r3, r4, r5, r6, r7, r8, r9, pc}
 1331              	.LVL138:
ARM GAS  C:\Users\seblo\AppData\Local\Temp\ccqImqhn.s 			page 44


 1332              	.L69:
 1333              		.loc 1 890 1 view .LVU424
 1334 0112 00BF     		.align	2
 1335              	.L68:
 1336 0114 00000000 		.word	.LANCHOR1
 1337              		.cfi_endproc
 1338              	.LFE9:
 1340              		.section	.text.SEGGER_RTT_WriteDownBufferNoLock,"ax",%progbits
 1341              		.align	1
 1342              		.global	SEGGER_RTT_WriteDownBufferNoLock
 1343              		.syntax unified
 1344              		.thumb
 1345              		.thumb_func
 1346              		.fpu fpv5-sp-d16
 1348              	SEGGER_RTT_WriteDownBufferNoLock:
 1349              	.LVL139:
 1350              	.LFB10:
 891:Drivers/RTT/SEGGER_RTT.c **** 
 892:Drivers/RTT/SEGGER_RTT.c **** /*********************************************************************
 893:Drivers/RTT/SEGGER_RTT.c **** *
 894:Drivers/RTT/SEGGER_RTT.c **** *       SEGGER_RTT_WriteSkipNoLock
 895:Drivers/RTT/SEGGER_RTT.c **** *
 896:Drivers/RTT/SEGGER_RTT.c **** *  Function description
 897:Drivers/RTT/SEGGER_RTT.c **** *    Stores a specified number of characters in SEGGER RTT
 898:Drivers/RTT/SEGGER_RTT.c **** *    control block which is then read by the host.
 899:Drivers/RTT/SEGGER_RTT.c **** *    SEGGER_RTT_WriteSkipNoLock does not lock the application and
 900:Drivers/RTT/SEGGER_RTT.c **** *    skips all data, if the data does not fit into the buffer.
 901:Drivers/RTT/SEGGER_RTT.c **** *
 902:Drivers/RTT/SEGGER_RTT.c **** *  Parameters
 903:Drivers/RTT/SEGGER_RTT.c **** *    BufferIndex  Index of "Up"-buffer to be used (e.g. 0 for "Terminal").
 904:Drivers/RTT/SEGGER_RTT.c **** *    pBuffer      Pointer to character array. Does not need to point to a \0 terminated string.
 905:Drivers/RTT/SEGGER_RTT.c **** *    NumBytes     Number of bytes to be stored in the SEGGER RTT control block.
 906:Drivers/RTT/SEGGER_RTT.c **** *                 MUST be > 0!!!
 907:Drivers/RTT/SEGGER_RTT.c **** *                 This is done for performance reasons, so no initial check has do be done.
 908:Drivers/RTT/SEGGER_RTT.c **** *
 909:Drivers/RTT/SEGGER_RTT.c **** *  Return value
 910:Drivers/RTT/SEGGER_RTT.c **** *    1: Data has been copied
 911:Drivers/RTT/SEGGER_RTT.c **** *    0: No space, data has not been copied
 912:Drivers/RTT/SEGGER_RTT.c **** *
 913:Drivers/RTT/SEGGER_RTT.c **** *  Notes
 914:Drivers/RTT/SEGGER_RTT.c **** *    (1) If there is not enough space in the "Up"-buffer, all data is dropped.
 915:Drivers/RTT/SEGGER_RTT.c **** *    (2) For performance reasons this function does not call Init()
 916:Drivers/RTT/SEGGER_RTT.c **** *        and may only be called after RTT has been initialized.
 917:Drivers/RTT/SEGGER_RTT.c **** *        Either by calling SEGGER_RTT_Init() or calling another RTT API function first.
 918:Drivers/RTT/SEGGER_RTT.c **** */
 919:Drivers/RTT/SEGGER_RTT.c **** #if (RTT_USE_ASM == 0)
 920:Drivers/RTT/SEGGER_RTT.c **** unsigned SEGGER_RTT_WriteSkipNoLock(unsigned BufferIndex, const void* pBuffer, unsigned NumBytes) {
 921:Drivers/RTT/SEGGER_RTT.c ****   const char*           pData;
 922:Drivers/RTT/SEGGER_RTT.c ****   SEGGER_RTT_BUFFER_UP* pRing;
 923:Drivers/RTT/SEGGER_RTT.c ****   unsigned              Avail;
 924:Drivers/RTT/SEGGER_RTT.c ****   unsigned              RdOff;
 925:Drivers/RTT/SEGGER_RTT.c ****   unsigned              WrOff;
 926:Drivers/RTT/SEGGER_RTT.c ****   unsigned              Rem;
 927:Drivers/RTT/SEGGER_RTT.c ****   volatile char*        pDst;
 928:Drivers/RTT/SEGGER_RTT.c ****   //
 929:Drivers/RTT/SEGGER_RTT.c ****   // Cases:
 930:Drivers/RTT/SEGGER_RTT.c ****   //   1) RdOff <= WrOff => Space until wrap-around is sufficient
ARM GAS  C:\Users\seblo\AppData\Local\Temp\ccqImqhn.s 			page 45


 931:Drivers/RTT/SEGGER_RTT.c ****   //   2) RdOff <= WrOff => Space after wrap-around needed (copy in 2 chunks)
 932:Drivers/RTT/SEGGER_RTT.c ****   //   3) RdOff <  WrOff => No space in buf
 933:Drivers/RTT/SEGGER_RTT.c ****   //   4) RdOff >  WrOff => Space is sufficient
 934:Drivers/RTT/SEGGER_RTT.c ****   //   5) RdOff >  WrOff => No space in buf
 935:Drivers/RTT/SEGGER_RTT.c ****   //
 936:Drivers/RTT/SEGGER_RTT.c ****   // 1) is the most common case for large buffers and assuming that J-Link reads the data fast enou
 937:Drivers/RTT/SEGGER_RTT.c ****   //
 938:Drivers/RTT/SEGGER_RTT.c ****   pData = (const char *)pBuffer;
 939:Drivers/RTT/SEGGER_RTT.c ****   pRing = (SEGGER_RTT_BUFFER_UP*)((char*)&_SEGGER_RTT.aUp[BufferIndex] + SEGGER_RTT_UNCACHED_OFF); 
 940:Drivers/RTT/SEGGER_RTT.c ****   RdOff = pRing->RdOff;
 941:Drivers/RTT/SEGGER_RTT.c ****   WrOff = pRing->WrOff;
 942:Drivers/RTT/SEGGER_RTT.c ****   if (RdOff <= WrOff) {                                 // Case 1), 2) or 3)
 943:Drivers/RTT/SEGGER_RTT.c ****     Avail = pRing->SizeOfBuffer - WrOff - 1u;           // Space until wrap-around (assume 1 byte n
 944:Drivers/RTT/SEGGER_RTT.c ****     if (Avail >= NumBytes) {                            // Case 1)?
 945:Drivers/RTT/SEGGER_RTT.c **** CopyStraight:
 946:Drivers/RTT/SEGGER_RTT.c ****       pDst = (pRing->pBuffer + WrOff) + SEGGER_RTT_UNCACHED_OFF;
 947:Drivers/RTT/SEGGER_RTT.c ****       memcpy((void*)pDst, pData, NumBytes);
 948:Drivers/RTT/SEGGER_RTT.c ****       RTT__DMB();                     // Force data write to be complete before writing the <WrOff>
 949:Drivers/RTT/SEGGER_RTT.c ****       pRing->WrOff = WrOff + NumBytes;
 950:Drivers/RTT/SEGGER_RTT.c ****       return 1;
 951:Drivers/RTT/SEGGER_RTT.c ****     }
 952:Drivers/RTT/SEGGER_RTT.c ****     Avail += RdOff;                                     // Space incl. wrap-around
 953:Drivers/RTT/SEGGER_RTT.c ****     if (Avail >= NumBytes) {                            // Case 2? => If not, we have case 3) (does
 954:Drivers/RTT/SEGGER_RTT.c ****       Rem = pRing->SizeOfBuffer - WrOff;                // Space until end of buffer
 955:Drivers/RTT/SEGGER_RTT.c ****       pDst = (pRing->pBuffer + WrOff) + SEGGER_RTT_UNCACHED_OFF;
 956:Drivers/RTT/SEGGER_RTT.c ****       memcpy((void*)pDst, pData, Rem);                  // Copy 1st chunk
 957:Drivers/RTT/SEGGER_RTT.c ****       NumBytes -= Rem;
 958:Drivers/RTT/SEGGER_RTT.c ****       //
 959:Drivers/RTT/SEGGER_RTT.c ****       // Special case: First check that assumed RdOff == 0 calculated that last element before wrap
 960:Drivers/RTT/SEGGER_RTT.c ****       // But 2nd check (considering space until wrap-around and until RdOff) revealed that RdOff is
 961:Drivers/RTT/SEGGER_RTT.c ****       // In this case, we may use a copy straight until buffer end anyway without needing to copy 2
 962:Drivers/RTT/SEGGER_RTT.c ****       // Therefore, check if 2nd memcpy is necessary at all
 963:Drivers/RTT/SEGGER_RTT.c ****       //
 964:Drivers/RTT/SEGGER_RTT.c ****       if (NumBytes) {
 965:Drivers/RTT/SEGGER_RTT.c ****         pDst = pRing->pBuffer + SEGGER_RTT_UNCACHED_OFF;
 966:Drivers/RTT/SEGGER_RTT.c ****         memcpy((void*)pDst, pData + Rem, NumBytes);
 967:Drivers/RTT/SEGGER_RTT.c ****       }
 968:Drivers/RTT/SEGGER_RTT.c ****       RTT__DMB();                     // Force data write to be complete before writing the <WrOff>
 969:Drivers/RTT/SEGGER_RTT.c ****       pRing->WrOff = NumBytes;
 970:Drivers/RTT/SEGGER_RTT.c ****       return 1;
 971:Drivers/RTT/SEGGER_RTT.c ****     }
 972:Drivers/RTT/SEGGER_RTT.c ****   } else {                                             // Potential case 4)
 973:Drivers/RTT/SEGGER_RTT.c ****     Avail = RdOff - WrOff - 1u;
 974:Drivers/RTT/SEGGER_RTT.c ****     if (Avail >= NumBytes) {                           // Case 4)? => If not, we have case 5) (does
 975:Drivers/RTT/SEGGER_RTT.c ****       goto CopyStraight;
 976:Drivers/RTT/SEGGER_RTT.c ****     }
 977:Drivers/RTT/SEGGER_RTT.c ****   }
 978:Drivers/RTT/SEGGER_RTT.c ****   return 0;     // No space in buffer
 979:Drivers/RTT/SEGGER_RTT.c **** }
 980:Drivers/RTT/SEGGER_RTT.c **** #endif
 981:Drivers/RTT/SEGGER_RTT.c **** 
 982:Drivers/RTT/SEGGER_RTT.c **** /*********************************************************************
 983:Drivers/RTT/SEGGER_RTT.c **** *
 984:Drivers/RTT/SEGGER_RTT.c **** *       SEGGER_RTT_WriteDownBufferNoLock
 985:Drivers/RTT/SEGGER_RTT.c **** *
 986:Drivers/RTT/SEGGER_RTT.c **** *  Function description
 987:Drivers/RTT/SEGGER_RTT.c **** *    Stores a specified number of characters in SEGGER RTT
ARM GAS  C:\Users\seblo\AppData\Local\Temp\ccqImqhn.s 			page 46


 988:Drivers/RTT/SEGGER_RTT.c **** *    control block inside a <Down> buffer.
 989:Drivers/RTT/SEGGER_RTT.c **** *    SEGGER_RTT_WriteDownBufferNoLock does not lock the application.
 990:Drivers/RTT/SEGGER_RTT.c **** *    Used to do the same operation that J-Link does, to transfer 
 991:Drivers/RTT/SEGGER_RTT.c **** *    RTT data from other channels, such as TCP/IP or UART.
 992:Drivers/RTT/SEGGER_RTT.c **** *
 993:Drivers/RTT/SEGGER_RTT.c **** *  Parameters
 994:Drivers/RTT/SEGGER_RTT.c **** *    BufferIndex  Index of "Down"-buffer to be used.
 995:Drivers/RTT/SEGGER_RTT.c **** *    pBuffer      Pointer to character array. Does not need to point to a \0 terminated string.
 996:Drivers/RTT/SEGGER_RTT.c **** *    NumBytes     Number of bytes to be stored in the SEGGER RTT control block.
 997:Drivers/RTT/SEGGER_RTT.c **** *
 998:Drivers/RTT/SEGGER_RTT.c **** *  Return value
 999:Drivers/RTT/SEGGER_RTT.c **** *    Number of bytes which have been stored in the "Down"-buffer.
1000:Drivers/RTT/SEGGER_RTT.c **** *
1001:Drivers/RTT/SEGGER_RTT.c **** *  Notes
1002:Drivers/RTT/SEGGER_RTT.c **** *    (1) Data is stored according to buffer flags.
1003:Drivers/RTT/SEGGER_RTT.c **** *    (2) For performance reasons this function does not call Init()
1004:Drivers/RTT/SEGGER_RTT.c **** *        and may only be called after RTT has been initialized.
1005:Drivers/RTT/SEGGER_RTT.c **** *        Either by calling SEGGER_RTT_Init() or calling another RTT API function first.
1006:Drivers/RTT/SEGGER_RTT.c **** *
1007:Drivers/RTT/SEGGER_RTT.c **** *  Additional information
1008:Drivers/RTT/SEGGER_RTT.c **** *    This function must not be called when J-Link might also do RTT.
1009:Drivers/RTT/SEGGER_RTT.c **** */
1010:Drivers/RTT/SEGGER_RTT.c **** unsigned SEGGER_RTT_WriteDownBufferNoLock(unsigned BufferIndex, const void* pBuffer, unsigned NumBy
 1351              		.loc 1 1010 105 is_stmt 1 view -0
 1352              		.cfi_startproc
 1353              		@ args = 0, pretend = 0, frame = 0
 1354              		@ frame_needed = 0, uses_anonymous_args = 0
 1355              		.loc 1 1010 105 is_stmt 0 view .LVU426
 1356 0000 F8B5     		push	{r3, r4, r5, r6, r7, lr}
 1357              	.LCFI10:
 1358              		.cfi_def_cfa_offset 24
 1359              		.cfi_offset 3, -24
 1360              		.cfi_offset 4, -20
 1361              		.cfi_offset 5, -16
 1362              		.cfi_offset 6, -12
 1363              		.cfi_offset 7, -8
 1364              		.cfi_offset 14, -4
 1365 0002 0E46     		mov	r6, r1
 1366 0004 1546     		mov	r5, r2
1011:Drivers/RTT/SEGGER_RTT.c ****   unsigned                Status;
 1367              		.loc 1 1011 3 is_stmt 1 view .LVU427
1012:Drivers/RTT/SEGGER_RTT.c ****   unsigned                Avail;
 1368              		.loc 1 1012 3 view .LVU428
1013:Drivers/RTT/SEGGER_RTT.c ****   const char*             pData;
 1369              		.loc 1 1013 3 view .LVU429
1014:Drivers/RTT/SEGGER_RTT.c ****   SEGGER_RTT_BUFFER_UP*   pRing;
 1370              		.loc 1 1014 3 view .LVU430
1015:Drivers/RTT/SEGGER_RTT.c ****   //
1016:Drivers/RTT/SEGGER_RTT.c ****   // Get "to-target" ring buffer.
1017:Drivers/RTT/SEGGER_RTT.c ****   // It is save to cast that to a "to-host" buffer. Up and Down buffer differ in volatility of offs
1018:Drivers/RTT/SEGGER_RTT.c ****   //
1019:Drivers/RTT/SEGGER_RTT.c ****   pData = (const char *)pBuffer;
 1371              		.loc 1 1019 3 view .LVU431
 1372              	.LVL140:
1020:Drivers/RTT/SEGGER_RTT.c ****   pRing = (SEGGER_RTT_BUFFER_UP*)((char*)&_SEGGER_RTT.aDown[BufferIndex] + SEGGER_RTT_UNCACHED_OFF)
 1373              		.loc 1 1020 3 view .LVU432
 1374              		.loc 1 1020 9 is_stmt 0 view .LVU433
ARM GAS  C:\Users\seblo\AppData\Local\Temp\ccqImqhn.s 			page 47


 1375 0006 00EB4000 		add	r0, r0, r0, lsl #1
 1376              	.LVL141:
 1377              		.loc 1 1020 9 view .LVU434
 1378 000a C000     		lsls	r0, r0, #3
 1379 000c 6030     		adds	r0, r0, #96
 1380 000e 144F     		ldr	r7, .L77
 1381 0010 0744     		add	r7, r7, r0
 1382              	.LVL142:
1021:Drivers/RTT/SEGGER_RTT.c ****   //
1022:Drivers/RTT/SEGGER_RTT.c ****   // How we output depends upon the mode...
1023:Drivers/RTT/SEGGER_RTT.c ****   //
1024:Drivers/RTT/SEGGER_RTT.c ****   switch (pRing->Flags) {
 1383              		.loc 1 1024 3 is_stmt 1 view .LVU435
 1384              		.loc 1 1024 16 is_stmt 0 view .LVU436
 1385 0012 7C69     		ldr	r4, [r7, #20]
 1386              		.loc 1 1024 3 view .LVU437
 1387 0014 012C     		cmp	r4, #1
 1388 0016 11D0     		beq	.L71
 1389 0018 022C     		cmp	r4, #2
 1390 001a 1CD0     		beq	.L72
 1391 001c 14B1     		cbz	r4, .L76
 1392 001e 0024     		movs	r4, #0
 1393              	.LVL143:
1025:Drivers/RTT/SEGGER_RTT.c ****   case SEGGER_RTT_MODE_NO_BLOCK_SKIP:
1026:Drivers/RTT/SEGGER_RTT.c ****     //
1027:Drivers/RTT/SEGGER_RTT.c ****     // If we are in skip mode and there is no space for the whole
1028:Drivers/RTT/SEGGER_RTT.c ****     // of this output, don't bother.
1029:Drivers/RTT/SEGGER_RTT.c ****     //
1030:Drivers/RTT/SEGGER_RTT.c ****     Avail = _GetAvailWriteSpace(pRing);
1031:Drivers/RTT/SEGGER_RTT.c ****     if (Avail < NumBytes) {
1032:Drivers/RTT/SEGGER_RTT.c ****       Status = 0u;
1033:Drivers/RTT/SEGGER_RTT.c ****     } else {
1034:Drivers/RTT/SEGGER_RTT.c ****       Status = NumBytes;
1035:Drivers/RTT/SEGGER_RTT.c ****       _WriteNoCheck(pRing, pData, NumBytes);
1036:Drivers/RTT/SEGGER_RTT.c ****     }
1037:Drivers/RTT/SEGGER_RTT.c ****     break;
1038:Drivers/RTT/SEGGER_RTT.c ****   case SEGGER_RTT_MODE_NO_BLOCK_TRIM:
1039:Drivers/RTT/SEGGER_RTT.c ****     //
1040:Drivers/RTT/SEGGER_RTT.c ****     // If we are in trim mode, trim to what we can output without blocking.
1041:Drivers/RTT/SEGGER_RTT.c ****     //
1042:Drivers/RTT/SEGGER_RTT.c ****     Avail = _GetAvailWriteSpace(pRing);
1043:Drivers/RTT/SEGGER_RTT.c ****     Status = Avail < NumBytes ? Avail : NumBytes;
1044:Drivers/RTT/SEGGER_RTT.c ****     _WriteNoCheck(pRing, pData, Status);
1045:Drivers/RTT/SEGGER_RTT.c ****     break;
1046:Drivers/RTT/SEGGER_RTT.c ****   case SEGGER_RTT_MODE_BLOCK_IF_FIFO_FULL:
1047:Drivers/RTT/SEGGER_RTT.c ****     //
1048:Drivers/RTT/SEGGER_RTT.c ****     // If we are in blocking mode, output everything.
1049:Drivers/RTT/SEGGER_RTT.c ****     //
1050:Drivers/RTT/SEGGER_RTT.c ****     Status = _WriteBlocking(pRing, pData, NumBytes);
1051:Drivers/RTT/SEGGER_RTT.c ****     break;
1052:Drivers/RTT/SEGGER_RTT.c ****   default:
1053:Drivers/RTT/SEGGER_RTT.c ****     Status = 0u;
1054:Drivers/RTT/SEGGER_RTT.c ****     break;
1055:Drivers/RTT/SEGGER_RTT.c ****   }
1056:Drivers/RTT/SEGGER_RTT.c ****   //
1057:Drivers/RTT/SEGGER_RTT.c ****   // Finish up.
1058:Drivers/RTT/SEGGER_RTT.c ****   //
ARM GAS  C:\Users\seblo\AppData\Local\Temp\ccqImqhn.s 			page 48


1059:Drivers/RTT/SEGGER_RTT.c ****   return Status;
 1394              		.loc 1 1059 3 is_stmt 1 view .LVU438
 1395              	.L70:
1060:Drivers/RTT/SEGGER_RTT.c **** }
 1396              		.loc 1 1060 1 is_stmt 0 view .LVU439
 1397 0020 2046     		mov	r0, r4
 1398 0022 F8BD     		pop	{r3, r4, r5, r6, r7, pc}
 1399              	.LVL144:
 1400              	.L76:
1030:Drivers/RTT/SEGGER_RTT.c ****     if (Avail < NumBytes) {
 1401              		.loc 1 1030 5 is_stmt 1 view .LVU440
1030:Drivers/RTT/SEGGER_RTT.c ****     if (Avail < NumBytes) {
 1402              		.loc 1 1030 13 is_stmt 0 view .LVU441
 1403 0024 3846     		mov	r0, r7
 1404 0026 FFF7FEFF 		bl	_GetAvailWriteSpace
 1405              	.LVL145:
1031:Drivers/RTT/SEGGER_RTT.c ****       Status = 0u;
 1406              		.loc 1 1031 5 is_stmt 1 view .LVU442
1031:Drivers/RTT/SEGGER_RTT.c ****       Status = 0u;
 1407              		.loc 1 1031 8 is_stmt 0 view .LVU443
 1408 002a 8542     		cmp	r5, r0
 1409 002c F8D8     		bhi	.L70
1034:Drivers/RTT/SEGGER_RTT.c ****       _WriteNoCheck(pRing, pData, NumBytes);
 1410              		.loc 1 1034 7 is_stmt 1 view .LVU444
 1411              	.LVL146:
1035:Drivers/RTT/SEGGER_RTT.c ****     }
 1412              		.loc 1 1035 7 view .LVU445
 1413 002e 2A46     		mov	r2, r5
 1414 0030 3146     		mov	r1, r6
 1415 0032 3846     		mov	r0, r7
 1416              	.LVL147:
1035:Drivers/RTT/SEGGER_RTT.c ****     }
 1417              		.loc 1 1035 7 is_stmt 0 view .LVU446
 1418 0034 FFF7FEFF 		bl	_WriteNoCheck
 1419              	.LVL148:
1034:Drivers/RTT/SEGGER_RTT.c ****       _WriteNoCheck(pRing, pData, NumBytes);
 1420              		.loc 1 1034 14 view .LVU447
 1421 0038 2C46     		mov	r4, r5
 1422 003a F1E7     		b	.L70
 1423              	.LVL149:
 1424              	.L71:
1042:Drivers/RTT/SEGGER_RTT.c ****     Status = Avail < NumBytes ? Avail : NumBytes;
 1425              		.loc 1 1042 5 is_stmt 1 view .LVU448
1042:Drivers/RTT/SEGGER_RTT.c ****     Status = Avail < NumBytes ? Avail : NumBytes;
 1426              		.loc 1 1042 13 is_stmt 0 view .LVU449
 1427 003c 3846     		mov	r0, r7
 1428 003e FFF7FEFF 		bl	_GetAvailWriteSpace
 1429              	.LVL150:
1043:Drivers/RTT/SEGGER_RTT.c ****     _WriteNoCheck(pRing, pData, Status);
 1430              		.loc 1 1043 5 is_stmt 1 view .LVU450
1043:Drivers/RTT/SEGGER_RTT.c ****     _WriteNoCheck(pRing, pData, Status);
 1431              		.loc 1 1043 12 is_stmt 0 view .LVU451
 1432 0042 2C46     		mov	r4, r5
 1433 0044 8542     		cmp	r5, r0
 1434 0046 28BF     		it	cs
 1435 0048 0446     		movcs	r4, r0
 1436              	.LVL151:
ARM GAS  C:\Users\seblo\AppData\Local\Temp\ccqImqhn.s 			page 49


1044:Drivers/RTT/SEGGER_RTT.c ****     break;
 1437              		.loc 1 1044 5 is_stmt 1 view .LVU452
 1438 004a 2246     		mov	r2, r4
 1439 004c 3146     		mov	r1, r6
 1440 004e 3846     		mov	r0, r7
 1441              	.LVL152:
1044:Drivers/RTT/SEGGER_RTT.c ****     break;
 1442              		.loc 1 1044 5 is_stmt 0 view .LVU453
 1443 0050 FFF7FEFF 		bl	_WriteNoCheck
 1444              	.LVL153:
1045:Drivers/RTT/SEGGER_RTT.c ****   case SEGGER_RTT_MODE_BLOCK_IF_FIFO_FULL:
 1445              		.loc 1 1045 5 is_stmt 1 view .LVU454
 1446 0054 E4E7     		b	.L70
 1447              	.LVL154:
 1448              	.L72:
1050:Drivers/RTT/SEGGER_RTT.c ****     break;
 1449              		.loc 1 1050 5 view .LVU455
1050:Drivers/RTT/SEGGER_RTT.c ****     break;
 1450              		.loc 1 1050 14 is_stmt 0 view .LVU456
 1451 0056 3846     		mov	r0, r7
 1452 0058 FFF7FEFF 		bl	_WriteBlocking
 1453              	.LVL155:
1050:Drivers/RTT/SEGGER_RTT.c ****     break;
 1454              		.loc 1 1050 14 view .LVU457
 1455 005c 0446     		mov	r4, r0
 1456              	.LVL156:
1051:Drivers/RTT/SEGGER_RTT.c ****   default:
 1457              		.loc 1 1051 5 is_stmt 1 view .LVU458
 1458 005e DFE7     		b	.L70
 1459              	.L78:
 1460              		.align	2
 1461              	.L77:
 1462 0060 00000000 		.word	.LANCHOR1
 1463              		.cfi_endproc
 1464              	.LFE10:
 1466              		.section	.text.SEGGER_RTT_WriteNoLock,"ax",%progbits
 1467              		.align	1
 1468              		.global	SEGGER_RTT_WriteNoLock
 1469              		.syntax unified
 1470              		.thumb
 1471              		.thumb_func
 1472              		.fpu fpv5-sp-d16
 1474              	SEGGER_RTT_WriteNoLock:
 1475              	.LVL157:
 1476              	.LFB11:
1061:Drivers/RTT/SEGGER_RTT.c **** 
1062:Drivers/RTT/SEGGER_RTT.c **** /*********************************************************************
1063:Drivers/RTT/SEGGER_RTT.c **** *
1064:Drivers/RTT/SEGGER_RTT.c **** *       SEGGER_RTT_WriteNoLock
1065:Drivers/RTT/SEGGER_RTT.c **** *
1066:Drivers/RTT/SEGGER_RTT.c **** *  Function description
1067:Drivers/RTT/SEGGER_RTT.c **** *    Stores a specified number of characters in SEGGER RTT
1068:Drivers/RTT/SEGGER_RTT.c **** *    control block which is then read by the host.
1069:Drivers/RTT/SEGGER_RTT.c **** *    SEGGER_RTT_WriteNoLock does not lock the application.
1070:Drivers/RTT/SEGGER_RTT.c **** *
1071:Drivers/RTT/SEGGER_RTT.c **** *  Parameters
1072:Drivers/RTT/SEGGER_RTT.c **** *    BufferIndex  Index of "Up"-buffer to be used (e.g. 0 for "Terminal").
ARM GAS  C:\Users\seblo\AppData\Local\Temp\ccqImqhn.s 			page 50


1073:Drivers/RTT/SEGGER_RTT.c **** *    pBuffer      Pointer to character array. Does not need to point to a \0 terminated string.
1074:Drivers/RTT/SEGGER_RTT.c **** *    NumBytes     Number of bytes to be stored in the SEGGER RTT control block.
1075:Drivers/RTT/SEGGER_RTT.c **** *
1076:Drivers/RTT/SEGGER_RTT.c **** *  Return value
1077:Drivers/RTT/SEGGER_RTT.c **** *    Number of bytes which have been stored in the "Up"-buffer.
1078:Drivers/RTT/SEGGER_RTT.c **** *
1079:Drivers/RTT/SEGGER_RTT.c **** *  Notes
1080:Drivers/RTT/SEGGER_RTT.c **** *    (1) Data is stored according to buffer flags.
1081:Drivers/RTT/SEGGER_RTT.c **** *    (2) For performance reasons this function does not call Init()
1082:Drivers/RTT/SEGGER_RTT.c **** *        and may only be called after RTT has been initialized.
1083:Drivers/RTT/SEGGER_RTT.c **** *        Either by calling SEGGER_RTT_Init() or calling another RTT API function first.
1084:Drivers/RTT/SEGGER_RTT.c **** */
1085:Drivers/RTT/SEGGER_RTT.c **** unsigned SEGGER_RTT_WriteNoLock(unsigned BufferIndex, const void* pBuffer, unsigned NumBytes) {
 1477              		.loc 1 1085 95 view -0
 1478              		.cfi_startproc
 1479              		@ args = 0, pretend = 0, frame = 0
 1480              		@ frame_needed = 0, uses_anonymous_args = 0
 1481              		.loc 1 1085 95 is_stmt 0 view .LVU460
 1482 0000 F8B5     		push	{r3, r4, r5, r6, r7, lr}
 1483              	.LCFI11:
 1484              		.cfi_def_cfa_offset 24
 1485              		.cfi_offset 3, -24
 1486              		.cfi_offset 4, -20
 1487              		.cfi_offset 5, -16
 1488              		.cfi_offset 6, -12
 1489              		.cfi_offset 7, -8
 1490              		.cfi_offset 14, -4
 1491 0002 0F46     		mov	r7, r1
 1492 0004 1646     		mov	r6, r2
1086:Drivers/RTT/SEGGER_RTT.c ****   unsigned              Status;
 1493              		.loc 1 1086 3 is_stmt 1 view .LVU461
1087:Drivers/RTT/SEGGER_RTT.c ****   unsigned              Avail;
 1494              		.loc 1 1087 3 view .LVU462
1088:Drivers/RTT/SEGGER_RTT.c ****   const char*           pData;
 1495              		.loc 1 1088 3 view .LVU463
1089:Drivers/RTT/SEGGER_RTT.c ****   SEGGER_RTT_BUFFER_UP* pRing;
 1496              		.loc 1 1089 3 view .LVU464
1090:Drivers/RTT/SEGGER_RTT.c ****   //
1091:Drivers/RTT/SEGGER_RTT.c ****   // Get "to-host" ring buffer.
1092:Drivers/RTT/SEGGER_RTT.c ****   //
1093:Drivers/RTT/SEGGER_RTT.c ****   pData = (const char *)pBuffer;
 1497              		.loc 1 1093 3 view .LVU465
 1498              	.LVL158:
1094:Drivers/RTT/SEGGER_RTT.c ****   pRing = (SEGGER_RTT_BUFFER_UP*)((char*)&_SEGGER_RTT.aUp[BufferIndex] + SEGGER_RTT_UNCACHED_OFF); 
 1499              		.loc 1 1094 3 view .LVU466
 1500              		.loc 1 1094 9 is_stmt 0 view .LVU467
 1501 0006 184B     		ldr	r3, .L86
 1502 0008 451C     		adds	r5, r0, #1
 1503 000a 05EB4505 		add	r5, r5, r5, lsl #1
 1504 000e 03EBC505 		add	r5, r3, r5, lsl #3
 1505              	.LVL159:
1095:Drivers/RTT/SEGGER_RTT.c ****   //
1096:Drivers/RTT/SEGGER_RTT.c ****   // How we output depends upon the mode...
1097:Drivers/RTT/SEGGER_RTT.c ****   //
1098:Drivers/RTT/SEGGER_RTT.c ****   switch (pRing->Flags) {
 1506              		.loc 1 1098 3 is_stmt 1 view .LVU468
 1507              		.loc 1 1098 16 is_stmt 0 view .LVU469
ARM GAS  C:\Users\seblo\AppData\Local\Temp\ccqImqhn.s 			page 51


 1508 0012 00EB4000 		add	r0, r0, r0, lsl #1
 1509              	.LVL160:
 1510              		.loc 1 1098 16 view .LVU470
 1511 0016 03EBC000 		add	r0, r3, r0, lsl #3
 1512 001a C46A     		ldr	r4, [r0, #44]
 1513              		.loc 1 1098 3 view .LVU471
 1514 001c 012C     		cmp	r4, #1
 1515 001e 11D0     		beq	.L80
 1516 0020 022C     		cmp	r4, #2
 1517 0022 1CD0     		beq	.L81
 1518 0024 14B1     		cbz	r4, .L85
 1519 0026 0024     		movs	r4, #0
 1520              	.LVL161:
1099:Drivers/RTT/SEGGER_RTT.c ****   case SEGGER_RTT_MODE_NO_BLOCK_SKIP:
1100:Drivers/RTT/SEGGER_RTT.c ****     //
1101:Drivers/RTT/SEGGER_RTT.c ****     // If we are in skip mode and there is no space for the whole
1102:Drivers/RTT/SEGGER_RTT.c ****     // of this output, don't bother.
1103:Drivers/RTT/SEGGER_RTT.c ****     //
1104:Drivers/RTT/SEGGER_RTT.c ****     Avail = _GetAvailWriteSpace(pRing);
1105:Drivers/RTT/SEGGER_RTT.c ****     if (Avail < NumBytes) {
1106:Drivers/RTT/SEGGER_RTT.c ****       Status = 0u;
1107:Drivers/RTT/SEGGER_RTT.c ****     } else {
1108:Drivers/RTT/SEGGER_RTT.c ****       Status = NumBytes;
1109:Drivers/RTT/SEGGER_RTT.c ****       _WriteNoCheck(pRing, pData, NumBytes);
1110:Drivers/RTT/SEGGER_RTT.c ****     }
1111:Drivers/RTT/SEGGER_RTT.c ****     break;
1112:Drivers/RTT/SEGGER_RTT.c ****   case SEGGER_RTT_MODE_NO_BLOCK_TRIM:
1113:Drivers/RTT/SEGGER_RTT.c ****     //
1114:Drivers/RTT/SEGGER_RTT.c ****     // If we are in trim mode, trim to what we can output without blocking.
1115:Drivers/RTT/SEGGER_RTT.c ****     //
1116:Drivers/RTT/SEGGER_RTT.c ****     Avail = _GetAvailWriteSpace(pRing);
1117:Drivers/RTT/SEGGER_RTT.c ****     Status = Avail < NumBytes ? Avail : NumBytes;
1118:Drivers/RTT/SEGGER_RTT.c ****     _WriteNoCheck(pRing, pData, Status);
1119:Drivers/RTT/SEGGER_RTT.c ****     break;
1120:Drivers/RTT/SEGGER_RTT.c ****   case SEGGER_RTT_MODE_BLOCK_IF_FIFO_FULL:
1121:Drivers/RTT/SEGGER_RTT.c ****     //
1122:Drivers/RTT/SEGGER_RTT.c ****     // If we are in blocking mode, output everything.
1123:Drivers/RTT/SEGGER_RTT.c ****     //
1124:Drivers/RTT/SEGGER_RTT.c ****     Status = _WriteBlocking(pRing, pData, NumBytes);
1125:Drivers/RTT/SEGGER_RTT.c ****     break;
1126:Drivers/RTT/SEGGER_RTT.c ****   default:
1127:Drivers/RTT/SEGGER_RTT.c ****     Status = 0u;
1128:Drivers/RTT/SEGGER_RTT.c ****     break;
1129:Drivers/RTT/SEGGER_RTT.c ****   }
1130:Drivers/RTT/SEGGER_RTT.c ****   //
1131:Drivers/RTT/SEGGER_RTT.c ****   // Finish up.
1132:Drivers/RTT/SEGGER_RTT.c ****   //
1133:Drivers/RTT/SEGGER_RTT.c ****   return Status;
 1521              		.loc 1 1133 3 is_stmt 1 view .LVU472
 1522              	.L79:
1134:Drivers/RTT/SEGGER_RTT.c **** }
 1523              		.loc 1 1134 1 is_stmt 0 view .LVU473
 1524 0028 2046     		mov	r0, r4
 1525 002a F8BD     		pop	{r3, r4, r5, r6, r7, pc}
 1526              	.LVL162:
 1527              	.L85:
1104:Drivers/RTT/SEGGER_RTT.c ****     if (Avail < NumBytes) {
ARM GAS  C:\Users\seblo\AppData\Local\Temp\ccqImqhn.s 			page 52


 1528              		.loc 1 1104 5 is_stmt 1 view .LVU474
1104:Drivers/RTT/SEGGER_RTT.c ****     if (Avail < NumBytes) {
 1529              		.loc 1 1104 13 is_stmt 0 view .LVU475
 1530 002c 2846     		mov	r0, r5
 1531 002e FFF7FEFF 		bl	_GetAvailWriteSpace
 1532              	.LVL163:
1105:Drivers/RTT/SEGGER_RTT.c ****       Status = 0u;
 1533              		.loc 1 1105 5 is_stmt 1 view .LVU476
1105:Drivers/RTT/SEGGER_RTT.c ****       Status = 0u;
 1534              		.loc 1 1105 8 is_stmt 0 view .LVU477
 1535 0032 8642     		cmp	r6, r0
 1536 0034 F8D8     		bhi	.L79
1108:Drivers/RTT/SEGGER_RTT.c ****       _WriteNoCheck(pRing, pData, NumBytes);
 1537              		.loc 1 1108 7 is_stmt 1 view .LVU478
 1538              	.LVL164:
1109:Drivers/RTT/SEGGER_RTT.c ****     }
 1539              		.loc 1 1109 7 view .LVU479
 1540 0036 3246     		mov	r2, r6
 1541 0038 3946     		mov	r1, r7
 1542 003a 2846     		mov	r0, r5
 1543              	.LVL165:
1109:Drivers/RTT/SEGGER_RTT.c ****     }
 1544              		.loc 1 1109 7 is_stmt 0 view .LVU480
 1545 003c FFF7FEFF 		bl	_WriteNoCheck
 1546              	.LVL166:
1108:Drivers/RTT/SEGGER_RTT.c ****       _WriteNoCheck(pRing, pData, NumBytes);
 1547              		.loc 1 1108 14 view .LVU481
 1548 0040 3446     		mov	r4, r6
 1549 0042 F1E7     		b	.L79
 1550              	.LVL167:
 1551              	.L80:
1116:Drivers/RTT/SEGGER_RTT.c ****     Status = Avail < NumBytes ? Avail : NumBytes;
 1552              		.loc 1 1116 5 is_stmt 1 view .LVU482
1116:Drivers/RTT/SEGGER_RTT.c ****     Status = Avail < NumBytes ? Avail : NumBytes;
 1553              		.loc 1 1116 13 is_stmt 0 view .LVU483
 1554 0044 2846     		mov	r0, r5
 1555 0046 FFF7FEFF 		bl	_GetAvailWriteSpace
 1556              	.LVL168:
1117:Drivers/RTT/SEGGER_RTT.c ****     _WriteNoCheck(pRing, pData, Status);
 1557              		.loc 1 1117 5 is_stmt 1 view .LVU484
1117:Drivers/RTT/SEGGER_RTT.c ****     _WriteNoCheck(pRing, pData, Status);
 1558              		.loc 1 1117 12 is_stmt 0 view .LVU485
 1559 004a 3446     		mov	r4, r6
 1560 004c 8642     		cmp	r6, r0
 1561 004e 28BF     		it	cs
 1562 0050 0446     		movcs	r4, r0
 1563              	.LVL169:
1118:Drivers/RTT/SEGGER_RTT.c ****     break;
 1564              		.loc 1 1118 5 is_stmt 1 view .LVU486
 1565 0052 2246     		mov	r2, r4
 1566 0054 3946     		mov	r1, r7
 1567 0056 2846     		mov	r0, r5
 1568              	.LVL170:
1118:Drivers/RTT/SEGGER_RTT.c ****     break;
 1569              		.loc 1 1118 5 is_stmt 0 view .LVU487
 1570 0058 FFF7FEFF 		bl	_WriteNoCheck
 1571              	.LVL171:
ARM GAS  C:\Users\seblo\AppData\Local\Temp\ccqImqhn.s 			page 53


1119:Drivers/RTT/SEGGER_RTT.c ****   case SEGGER_RTT_MODE_BLOCK_IF_FIFO_FULL:
 1572              		.loc 1 1119 5 is_stmt 1 view .LVU488
 1573 005c E4E7     		b	.L79
 1574              	.LVL172:
 1575              	.L81:
1124:Drivers/RTT/SEGGER_RTT.c ****     break;
 1576              		.loc 1 1124 5 view .LVU489
1124:Drivers/RTT/SEGGER_RTT.c ****     break;
 1577              		.loc 1 1124 14 is_stmt 0 view .LVU490
 1578 005e 2846     		mov	r0, r5
 1579 0060 FFF7FEFF 		bl	_WriteBlocking
 1580              	.LVL173:
1124:Drivers/RTT/SEGGER_RTT.c ****     break;
 1581              		.loc 1 1124 14 view .LVU491
 1582 0064 0446     		mov	r4, r0
 1583              	.LVL174:
1125:Drivers/RTT/SEGGER_RTT.c ****   default:
 1584              		.loc 1 1125 5 is_stmt 1 view .LVU492
 1585 0066 DFE7     		b	.L79
 1586              	.L87:
 1587              		.align	2
 1588              	.L86:
 1589 0068 00000000 		.word	.LANCHOR1
 1590              		.cfi_endproc
 1591              	.LFE11:
 1593              		.section	.text.SEGGER_RTT_WriteDownBuffer,"ax",%progbits
 1594              		.align	1
 1595              		.global	SEGGER_RTT_WriteDownBuffer
 1596              		.syntax unified
 1597              		.thumb
 1598              		.thumb_func
 1599              		.fpu fpv5-sp-d16
 1601              	SEGGER_RTT_WriteDownBuffer:
 1602              	.LVL175:
 1603              	.LFB12:
1135:Drivers/RTT/SEGGER_RTT.c **** 
1136:Drivers/RTT/SEGGER_RTT.c **** /*********************************************************************
1137:Drivers/RTT/SEGGER_RTT.c **** *
1138:Drivers/RTT/SEGGER_RTT.c **** *       SEGGER_RTT_WriteDownBuffer
1139:Drivers/RTT/SEGGER_RTT.c **** *
1140:Drivers/RTT/SEGGER_RTT.c **** *  Function description
1141:Drivers/RTT/SEGGER_RTT.c **** *    Stores a specified number of characters in SEGGER RTT control block in a <Down> buffer.
1142:Drivers/RTT/SEGGER_RTT.c **** *
1143:Drivers/RTT/SEGGER_RTT.c **** *  Parameters
1144:Drivers/RTT/SEGGER_RTT.c **** *    BufferIndex  Index of "Up"-buffer to be used (e.g. 0 for "Terminal").
1145:Drivers/RTT/SEGGER_RTT.c **** *    pBuffer      Pointer to character array. Does not need to point to a \0 terminated string.
1146:Drivers/RTT/SEGGER_RTT.c **** *    NumBytes     Number of bytes to be stored in the SEGGER RTT control block.
1147:Drivers/RTT/SEGGER_RTT.c **** *
1148:Drivers/RTT/SEGGER_RTT.c **** *  Return value
1149:Drivers/RTT/SEGGER_RTT.c **** *    Number of bytes which have been stored in the "Down"-buffer.
1150:Drivers/RTT/SEGGER_RTT.c **** *
1151:Drivers/RTT/SEGGER_RTT.c **** *  Notes
1152:Drivers/RTT/SEGGER_RTT.c **** *    (1) Data is stored according to buffer flags.
1153:Drivers/RTT/SEGGER_RTT.c **** *
1154:Drivers/RTT/SEGGER_RTT.c **** *  Additional information
1155:Drivers/RTT/SEGGER_RTT.c **** *    This function must not be called when J-Link might also do RTT.
1156:Drivers/RTT/SEGGER_RTT.c **** *    This function locks against all other RTT operations. I.e. during
ARM GAS  C:\Users\seblo\AppData\Local\Temp\ccqImqhn.s 			page 54


1157:Drivers/RTT/SEGGER_RTT.c **** *    the write operation, writing from the application is also locked.
1158:Drivers/RTT/SEGGER_RTT.c **** *    If only one consumer writes to the down buffer, 
1159:Drivers/RTT/SEGGER_RTT.c **** *    call SEGGER_RTT_WriteDownBufferNoLock() instead.
1160:Drivers/RTT/SEGGER_RTT.c **** */
1161:Drivers/RTT/SEGGER_RTT.c **** unsigned SEGGER_RTT_WriteDownBuffer(unsigned BufferIndex, const void* pBuffer, unsigned NumBytes) {
 1604              		.loc 1 1161 99 view -0
 1605              		.cfi_startproc
 1606              		@ args = 0, pretend = 0, frame = 0
 1607              		@ frame_needed = 0, uses_anonymous_args = 0
 1608              		.loc 1 1161 99 is_stmt 0 view .LVU494
 1609 0000 F8B5     		push	{r3, r4, r5, r6, r7, lr}
 1610              	.LCFI12:
 1611              		.cfi_def_cfa_offset 24
 1612              		.cfi_offset 3, -24
 1613              		.cfi_offset 4, -20
 1614              		.cfi_offset 5, -16
 1615              		.cfi_offset 6, -12
 1616              		.cfi_offset 7, -8
 1617              		.cfi_offset 14, -4
 1618 0002 0446     		mov	r4, r0
 1619 0004 0D46     		mov	r5, r1
 1620 0006 1646     		mov	r6, r2
1162:Drivers/RTT/SEGGER_RTT.c ****   unsigned Status;
 1621              		.loc 1 1162 3 is_stmt 1 view .LVU495
 1622              	.LBB8:
1163:Drivers/RTT/SEGGER_RTT.c **** 
1164:Drivers/RTT/SEGGER_RTT.c ****   INIT();
 1623              		.loc 1 1164 3 view .LVU496
 1624              		.loc 1 1164 3 view .LVU497
 1625              	.LVL176:
 1626              		.loc 1 1164 3 view .LVU498
 1627              		.loc 1 1164 3 view .LVU499
 1628 0008 094B     		ldr	r3, .L92
 1629 000a 1B78     		ldrb	r3, [r3]	@ zero_extendqisi2
 1630 000c 6BB1     		cbz	r3, .L91
 1631              	.LVL177:
 1632              	.L89:
 1633              		.loc 1 1164 3 discriminator 3 view .LVU500
 1634              	.LBE8:
 1635              		.loc 1 1164 9 discriminator 3 view .LVU501
 1636              	.LBB9:
1165:Drivers/RTT/SEGGER_RTT.c ****   SEGGER_RTT_LOCK();
 1637              		.loc 1 1165 3 discriminator 3 view .LVU502
 1638              		.loc 1 1165 3 discriminator 3 view .LVU503
 1639              		.syntax unified
 1640              	@ 1165 "Drivers/RTT/SEGGER_RTT.c" 1
 1641 000e EFF31187 		mrs   r7, basepri  
 1642 0012 4FF02001 		mov   r1, #32       
 1643 0016 81F31188 		msr   basepri, r1  
 1644              		
 1645              	@ 0 "" 2
 1646              	.LVL178:
 1647              		.loc 1 1165 20 discriminator 3 view .LVU504
1166:Drivers/RTT/SEGGER_RTT.c ****   Status = SEGGER_RTT_WriteDownBufferNoLock(BufferIndex, pBuffer, NumBytes);  // Call the non-locki
 1648              		.loc 1 1166 3 discriminator 3 view .LVU505
 1649              		.loc 1 1166 12 is_stmt 0 discriminator 3 view .LVU506
 1650              		.thumb
ARM GAS  C:\Users\seblo\AppData\Local\Temp\ccqImqhn.s 			page 55


 1651              		.syntax unified
 1652 001a 3246     		mov	r2, r6
 1653 001c 2946     		mov	r1, r5
 1654 001e 2046     		mov	r0, r4
 1655 0020 FFF7FEFF 		bl	SEGGER_RTT_WriteDownBufferNoLock
 1656              	.LVL179:
1167:Drivers/RTT/SEGGER_RTT.c ****   SEGGER_RTT_UNLOCK();
 1657              		.loc 1 1167 3 is_stmt 1 discriminator 3 view .LVU507
 1658              		.syntax unified
 1659              	@ 1167 "Drivers/RTT/SEGGER_RTT.c" 1
 1660 0024 87F31188 		msr   basepri, r7  
 1661              		
 1662              	@ 0 "" 2
 1663              		.thumb
 1664              		.syntax unified
 1665              	.LBE9:
 1666              		.loc 1 1167 22 discriminator 3 view .LVU508
1168:Drivers/RTT/SEGGER_RTT.c ****   return Status;
 1667              		.loc 1 1168 3 discriminator 3 view .LVU509
1169:Drivers/RTT/SEGGER_RTT.c **** }
 1668              		.loc 1 1169 1 is_stmt 0 discriminator 3 view .LVU510
 1669 0028 F8BD     		pop	{r3, r4, r5, r6, r7, pc}
 1670              	.LVL180:
 1671              	.L91:
 1672              	.LBB10:
1164:Drivers/RTT/SEGGER_RTT.c ****   SEGGER_RTT_LOCK();
 1673              		.loc 1 1164 3 is_stmt 1 discriminator 1 view .LVU511
 1674 002a FFF7FEFF 		bl	_DoInit
 1675              	.LVL181:
1164:Drivers/RTT/SEGGER_RTT.c ****   SEGGER_RTT_LOCK();
 1676              		.loc 1 1164 3 is_stmt 0 discriminator 1 view .LVU512
 1677 002e EEE7     		b	.L89
 1678              	.L93:
 1679              		.align	2
 1680              	.L92:
 1681 0030 00000000 		.word	.LANCHOR1
 1682              	.LBE10:
 1683              		.cfi_endproc
 1684              	.LFE12:
 1686              		.section	.text.SEGGER_RTT_Write,"ax",%progbits
 1687              		.align	1
 1688              		.global	SEGGER_RTT_Write
 1689              		.syntax unified
 1690              		.thumb
 1691              		.thumb_func
 1692              		.fpu fpv5-sp-d16
 1694              	SEGGER_RTT_Write:
 1695              	.LVL182:
 1696              	.LFB13:
1170:Drivers/RTT/SEGGER_RTT.c **** 
1171:Drivers/RTT/SEGGER_RTT.c **** /*********************************************************************
1172:Drivers/RTT/SEGGER_RTT.c **** *
1173:Drivers/RTT/SEGGER_RTT.c **** *       SEGGER_RTT_Write
1174:Drivers/RTT/SEGGER_RTT.c **** *
1175:Drivers/RTT/SEGGER_RTT.c **** *  Function description
1176:Drivers/RTT/SEGGER_RTT.c **** *    Stores a specified number of characters in SEGGER RTT
1177:Drivers/RTT/SEGGER_RTT.c **** *    control block which is then read by the host.
ARM GAS  C:\Users\seblo\AppData\Local\Temp\ccqImqhn.s 			page 56


1178:Drivers/RTT/SEGGER_RTT.c **** *
1179:Drivers/RTT/SEGGER_RTT.c **** *  Parameters
1180:Drivers/RTT/SEGGER_RTT.c **** *    BufferIndex  Index of "Up"-buffer to be used (e.g. 0 for "Terminal").
1181:Drivers/RTT/SEGGER_RTT.c **** *    pBuffer      Pointer to character array. Does not need to point to a \0 terminated string.
1182:Drivers/RTT/SEGGER_RTT.c **** *    NumBytes     Number of bytes to be stored in the SEGGER RTT control block.
1183:Drivers/RTT/SEGGER_RTT.c **** *
1184:Drivers/RTT/SEGGER_RTT.c **** *  Return value
1185:Drivers/RTT/SEGGER_RTT.c **** *    Number of bytes which have been stored in the "Up"-buffer.
1186:Drivers/RTT/SEGGER_RTT.c **** *
1187:Drivers/RTT/SEGGER_RTT.c **** *  Notes
1188:Drivers/RTT/SEGGER_RTT.c **** *    (1) Data is stored according to buffer flags.
1189:Drivers/RTT/SEGGER_RTT.c **** */
1190:Drivers/RTT/SEGGER_RTT.c **** unsigned SEGGER_RTT_Write(unsigned BufferIndex, const void* pBuffer, unsigned NumBytes) {
 1697              		.loc 1 1190 89 is_stmt 1 view -0
 1698              		.cfi_startproc
 1699              		@ args = 0, pretend = 0, frame = 0
 1700              		@ frame_needed = 0, uses_anonymous_args = 0
 1701              		.loc 1 1190 89 is_stmt 0 view .LVU514
 1702 0000 F8B5     		push	{r3, r4, r5, r6, r7, lr}
 1703              	.LCFI13:
 1704              		.cfi_def_cfa_offset 24
 1705              		.cfi_offset 3, -24
 1706              		.cfi_offset 4, -20
 1707              		.cfi_offset 5, -16
 1708              		.cfi_offset 6, -12
 1709              		.cfi_offset 7, -8
 1710              		.cfi_offset 14, -4
 1711 0002 0446     		mov	r4, r0
 1712 0004 0D46     		mov	r5, r1
 1713 0006 1646     		mov	r6, r2
1191:Drivers/RTT/SEGGER_RTT.c ****   unsigned Status;
 1714              		.loc 1 1191 3 is_stmt 1 view .LVU515
 1715              	.LBB11:
1192:Drivers/RTT/SEGGER_RTT.c **** 
1193:Drivers/RTT/SEGGER_RTT.c ****   INIT();
 1716              		.loc 1 1193 3 view .LVU516
 1717              		.loc 1 1193 3 view .LVU517
 1718              	.LVL183:
 1719              		.loc 1 1193 3 view .LVU518
 1720              		.loc 1 1193 3 view .LVU519
 1721 0008 094B     		ldr	r3, .L98
 1722 000a 1B78     		ldrb	r3, [r3]	@ zero_extendqisi2
 1723 000c 6BB1     		cbz	r3, .L97
 1724              	.LVL184:
 1725              	.L95:
 1726              		.loc 1 1193 3 discriminator 3 view .LVU520
 1727              	.LBE11:
 1728              		.loc 1 1193 9 discriminator 3 view .LVU521
 1729              	.LBB12:
1194:Drivers/RTT/SEGGER_RTT.c ****   SEGGER_RTT_LOCK();
 1730              		.loc 1 1194 3 discriminator 3 view .LVU522
 1731              		.loc 1 1194 3 discriminator 3 view .LVU523
 1732              		.syntax unified
 1733              	@ 1194 "Drivers/RTT/SEGGER_RTT.c" 1
 1734 000e EFF31187 		mrs   r7, basepri  
 1735 0012 4FF02001 		mov   r1, #32       
 1736 0016 81F31188 		msr   basepri, r1  
ARM GAS  C:\Users\seblo\AppData\Local\Temp\ccqImqhn.s 			page 57


 1737              		
 1738              	@ 0 "" 2
 1739              	.LVL185:
 1740              		.loc 1 1194 20 discriminator 3 view .LVU524
1195:Drivers/RTT/SEGGER_RTT.c ****   Status = SEGGER_RTT_WriteNoLock(BufferIndex, pBuffer, NumBytes);  // Call the non-locking write f
 1741              		.loc 1 1195 3 discriminator 3 view .LVU525
 1742              		.loc 1 1195 12 is_stmt 0 discriminator 3 view .LVU526
 1743              		.thumb
 1744              		.syntax unified
 1745 001a 3246     		mov	r2, r6
 1746 001c 2946     		mov	r1, r5
 1747 001e 2046     		mov	r0, r4
 1748 0020 FFF7FEFF 		bl	SEGGER_RTT_WriteNoLock
 1749              	.LVL186:
1196:Drivers/RTT/SEGGER_RTT.c ****   SEGGER_RTT_UNLOCK();
 1750              		.loc 1 1196 3 is_stmt 1 discriminator 3 view .LVU527
 1751              		.syntax unified
 1752              	@ 1196 "Drivers/RTT/SEGGER_RTT.c" 1
 1753 0024 87F31188 		msr   basepri, r7  
 1754              		
 1755              	@ 0 "" 2
 1756              		.thumb
 1757              		.syntax unified
 1758              	.LBE12:
 1759              		.loc 1 1196 22 discriminator 3 view .LVU528
1197:Drivers/RTT/SEGGER_RTT.c ****   return Status;
 1760              		.loc 1 1197 3 discriminator 3 view .LVU529
1198:Drivers/RTT/SEGGER_RTT.c **** }
 1761              		.loc 1 1198 1 is_stmt 0 discriminator 3 view .LVU530
 1762 0028 F8BD     		pop	{r3, r4, r5, r6, r7, pc}
 1763              	.LVL187:
 1764              	.L97:
 1765              	.LBB13:
1193:Drivers/RTT/SEGGER_RTT.c ****   SEGGER_RTT_LOCK();
 1766              		.loc 1 1193 3 is_stmt 1 discriminator 1 view .LVU531
 1767 002a FFF7FEFF 		bl	_DoInit
 1768              	.LVL188:
1193:Drivers/RTT/SEGGER_RTT.c ****   SEGGER_RTT_LOCK();
 1769              		.loc 1 1193 3 is_stmt 0 discriminator 1 view .LVU532
 1770 002e EEE7     		b	.L95
 1771              	.L99:
 1772              		.align	2
 1773              	.L98:
 1774 0030 00000000 		.word	.LANCHOR1
 1775              	.LBE13:
 1776              		.cfi_endproc
 1777              	.LFE13:
 1779              		.section	.text.SEGGER_RTT_WriteString,"ax",%progbits
 1780              		.align	1
 1781              		.global	SEGGER_RTT_WriteString
 1782              		.syntax unified
 1783              		.thumb
 1784              		.thumb_func
 1785              		.fpu fpv5-sp-d16
 1787              	SEGGER_RTT_WriteString:
 1788              	.LVL189:
 1789              	.LFB14:
ARM GAS  C:\Users\seblo\AppData\Local\Temp\ccqImqhn.s 			page 58


1199:Drivers/RTT/SEGGER_RTT.c **** 
1200:Drivers/RTT/SEGGER_RTT.c **** /*********************************************************************
1201:Drivers/RTT/SEGGER_RTT.c **** *
1202:Drivers/RTT/SEGGER_RTT.c **** *       SEGGER_RTT_WriteString
1203:Drivers/RTT/SEGGER_RTT.c **** *
1204:Drivers/RTT/SEGGER_RTT.c **** *  Function description
1205:Drivers/RTT/SEGGER_RTT.c **** *    Stores string in SEGGER RTT control block.
1206:Drivers/RTT/SEGGER_RTT.c **** *    This data is read by the host.
1207:Drivers/RTT/SEGGER_RTT.c **** *
1208:Drivers/RTT/SEGGER_RTT.c **** *  Parameters
1209:Drivers/RTT/SEGGER_RTT.c **** *    BufferIndex  Index of "Up"-buffer to be used (e.g. 0 for "Terminal").
1210:Drivers/RTT/SEGGER_RTT.c **** *    s            Pointer to string.
1211:Drivers/RTT/SEGGER_RTT.c **** *
1212:Drivers/RTT/SEGGER_RTT.c **** *  Return value
1213:Drivers/RTT/SEGGER_RTT.c **** *    Number of bytes which have been stored in the "Up"-buffer.
1214:Drivers/RTT/SEGGER_RTT.c **** *
1215:Drivers/RTT/SEGGER_RTT.c **** *  Notes
1216:Drivers/RTT/SEGGER_RTT.c **** *    (1) Data is stored according to buffer flags.
1217:Drivers/RTT/SEGGER_RTT.c **** *    (2) String passed to this function has to be \0 terminated
1218:Drivers/RTT/SEGGER_RTT.c **** *    (3) \0 termination character is *not* stored in RTT buffer
1219:Drivers/RTT/SEGGER_RTT.c **** */
1220:Drivers/RTT/SEGGER_RTT.c **** unsigned SEGGER_RTT_WriteString(unsigned BufferIndex, const char* s) {
 1790              		.loc 1 1220 70 is_stmt 1 view -0
 1791              		.cfi_startproc
 1792              		@ args = 0, pretend = 0, frame = 0
 1793              		@ frame_needed = 0, uses_anonymous_args = 0
 1794              		.loc 1 1220 70 is_stmt 0 view .LVU534
 1795 0000 38B5     		push	{r3, r4, r5, lr}
 1796              	.LCFI14:
 1797              		.cfi_def_cfa_offset 16
 1798              		.cfi_offset 3, -16
 1799              		.cfi_offset 4, -12
 1800              		.cfi_offset 5, -8
 1801              		.cfi_offset 14, -4
 1802 0002 0546     		mov	r5, r0
 1803 0004 0C46     		mov	r4, r1
1221:Drivers/RTT/SEGGER_RTT.c ****   unsigned Len;
 1804              		.loc 1 1221 3 is_stmt 1 view .LVU535
1222:Drivers/RTT/SEGGER_RTT.c **** 
1223:Drivers/RTT/SEGGER_RTT.c ****   Len = STRLEN(s);
 1805              		.loc 1 1223 3 view .LVU536
 1806              		.loc 1 1223 9 is_stmt 0 view .LVU537
 1807 0006 0846     		mov	r0, r1
 1808              	.LVL190:
 1809              		.loc 1 1223 9 view .LVU538
 1810 0008 FFF7FEFF 		bl	strlen
 1811              	.LVL191:
 1812              		.loc 1 1223 9 view .LVU539
 1813 000c 0246     		mov	r2, r0
 1814              	.LVL192:
1224:Drivers/RTT/SEGGER_RTT.c ****   return SEGGER_RTT_Write(BufferIndex, s, Len);
 1815              		.loc 1 1224 3 is_stmt 1 view .LVU540
 1816              		.loc 1 1224 10 is_stmt 0 view .LVU541
 1817 000e 2146     		mov	r1, r4
 1818 0010 2846     		mov	r0, r5
 1819              	.LVL193:
 1820              		.loc 1 1224 10 view .LVU542
ARM GAS  C:\Users\seblo\AppData\Local\Temp\ccqImqhn.s 			page 59


 1821 0012 FFF7FEFF 		bl	SEGGER_RTT_Write
 1822              	.LVL194:
1225:Drivers/RTT/SEGGER_RTT.c **** }
 1823              		.loc 1 1225 1 view .LVU543
 1824 0016 38BD     		pop	{r3, r4, r5, pc}
 1825              		.loc 1 1225 1 view .LVU544
 1826              		.cfi_endproc
 1827              	.LFE14:
 1829              		.section	.text.SEGGER_RTT_PutCharSkipNoLock,"ax",%progbits
 1830              		.align	1
 1831              		.global	SEGGER_RTT_PutCharSkipNoLock
 1832              		.syntax unified
 1833              		.thumb
 1834              		.thumb_func
 1835              		.fpu fpv5-sp-d16
 1837              	SEGGER_RTT_PutCharSkipNoLock:
 1838              	.LVL195:
 1839              	.LFB15:
1226:Drivers/RTT/SEGGER_RTT.c **** 
1227:Drivers/RTT/SEGGER_RTT.c **** /*********************************************************************
1228:Drivers/RTT/SEGGER_RTT.c **** *
1229:Drivers/RTT/SEGGER_RTT.c **** *       SEGGER_RTT_PutCharSkipNoLock
1230:Drivers/RTT/SEGGER_RTT.c **** *
1231:Drivers/RTT/SEGGER_RTT.c **** *  Function description
1232:Drivers/RTT/SEGGER_RTT.c **** *    Stores a single character/byte in SEGGER RTT buffer.
1233:Drivers/RTT/SEGGER_RTT.c **** *    SEGGER_RTT_PutCharSkipNoLock does not lock the application and
1234:Drivers/RTT/SEGGER_RTT.c **** *    skips the byte, if it does not fit into the buffer.
1235:Drivers/RTT/SEGGER_RTT.c **** *
1236:Drivers/RTT/SEGGER_RTT.c **** *  Parameters
1237:Drivers/RTT/SEGGER_RTT.c **** *    BufferIndex  Index of "Up"-buffer to be used (e.g. 0 for "Terminal").
1238:Drivers/RTT/SEGGER_RTT.c **** *    c            Byte to be stored.
1239:Drivers/RTT/SEGGER_RTT.c **** *
1240:Drivers/RTT/SEGGER_RTT.c **** *  Return value
1241:Drivers/RTT/SEGGER_RTT.c **** *    Number of bytes which have been stored in the "Up"-buffer.
1242:Drivers/RTT/SEGGER_RTT.c **** *
1243:Drivers/RTT/SEGGER_RTT.c **** *  Notes
1244:Drivers/RTT/SEGGER_RTT.c **** *    (1) If there is not enough space in the "Up"-buffer, the character is dropped.
1245:Drivers/RTT/SEGGER_RTT.c **** *    (2) For performance reasons this function does not call Init()
1246:Drivers/RTT/SEGGER_RTT.c **** *        and may only be called after RTT has been initialized.
1247:Drivers/RTT/SEGGER_RTT.c **** *        Either by calling SEGGER_RTT_Init() or calling another RTT API function first.
1248:Drivers/RTT/SEGGER_RTT.c **** */
1249:Drivers/RTT/SEGGER_RTT.c **** 
1250:Drivers/RTT/SEGGER_RTT.c **** unsigned SEGGER_RTT_PutCharSkipNoLock(unsigned BufferIndex, char c) {
 1840              		.loc 1 1250 69 is_stmt 1 view -0
 1841              		.cfi_startproc
 1842              		@ args = 0, pretend = 0, frame = 0
 1843              		@ frame_needed = 0, uses_anonymous_args = 0
 1844              		@ link register save eliminated.
 1845              		.loc 1 1250 69 is_stmt 0 view .LVU546
 1846 0000 30B4     		push	{r4, r5}
 1847              	.LCFI15:
 1848              		.cfi_def_cfa_offset 8
 1849              		.cfi_offset 4, -8
 1850              		.cfi_offset 5, -4
1251:Drivers/RTT/SEGGER_RTT.c ****   SEGGER_RTT_BUFFER_UP* pRing;
 1851              		.loc 1 1251 3 is_stmt 1 view .LVU547
1252:Drivers/RTT/SEGGER_RTT.c ****   unsigned              WrOff;
ARM GAS  C:\Users\seblo\AppData\Local\Temp\ccqImqhn.s 			page 60


 1852              		.loc 1 1252 3 view .LVU548
1253:Drivers/RTT/SEGGER_RTT.c ****   unsigned              Status;
 1853              		.loc 1 1253 3 view .LVU549
1254:Drivers/RTT/SEGGER_RTT.c ****   volatile char*        pDst;
 1854              		.loc 1 1254 3 view .LVU550
1255:Drivers/RTT/SEGGER_RTT.c ****   //
1256:Drivers/RTT/SEGGER_RTT.c ****   // Get "to-host" ring buffer.
1257:Drivers/RTT/SEGGER_RTT.c ****   //
1258:Drivers/RTT/SEGGER_RTT.c ****   pRing = (SEGGER_RTT_BUFFER_UP*)((char*)&_SEGGER_RTT.aUp[BufferIndex] + SEGGER_RTT_UNCACHED_OFF); 
 1855              		.loc 1 1258 3 view .LVU551
 1856              	.LVL196:
1259:Drivers/RTT/SEGGER_RTT.c ****   //
1260:Drivers/RTT/SEGGER_RTT.c ****   // Get write position and handle wrap-around if necessary
1261:Drivers/RTT/SEGGER_RTT.c ****   //
1262:Drivers/RTT/SEGGER_RTT.c ****   WrOff = pRing->WrOff + 1;
 1857              		.loc 1 1262 3 view .LVU552
 1858              		.loc 1 1262 16 is_stmt 0 view .LVU553
 1859 0002 00EB4002 		add	r2, r0, r0, lsl #1
 1860 0006 124B     		ldr	r3, .L109
 1861 0008 03EBC203 		add	r3, r3, r2, lsl #3
 1862 000c 5D6A     		ldr	r5, [r3, #36]
 1863              		.loc 1 1262 9 view .LVU554
 1864 000e 6A1C     		adds	r2, r5, #1
 1865              	.LVL197:
1263:Drivers/RTT/SEGGER_RTT.c ****   if (WrOff == pRing->SizeOfBuffer) {
 1866              		.loc 1 1263 3 is_stmt 1 view .LVU555
 1867              		.loc 1 1263 21 is_stmt 0 view .LVU556
 1868 0010 1B6A     		ldr	r3, [r3, #32]
 1869              		.loc 1 1263 6 view .LVU557
 1870 0012 9342     		cmp	r3, r2
 1871 0014 18D0     		beq	.L108
 1872              	.LVL198:
 1873              	.L103:
1264:Drivers/RTT/SEGGER_RTT.c ****     WrOff = 0;
1265:Drivers/RTT/SEGGER_RTT.c ****   }
1266:Drivers/RTT/SEGGER_RTT.c ****   //
1267:Drivers/RTT/SEGGER_RTT.c ****   // Output byte if free space is available
1268:Drivers/RTT/SEGGER_RTT.c ****   //
1269:Drivers/RTT/SEGGER_RTT.c ****   if (WrOff != pRing->RdOff) {
 1874              		.loc 1 1269 3 is_stmt 1 view .LVU558
 1875              		.loc 1 1269 21 is_stmt 0 view .LVU559
 1876 0016 00EB4003 		add	r3, r0, r0, lsl #1
 1877 001a 0D4C     		ldr	r4, .L109
 1878 001c 04EBC303 		add	r3, r4, r3, lsl #3
 1879 0020 9B6A     		ldr	r3, [r3, #40]
 1880              		.loc 1 1269 6 view .LVU560
 1881 0022 9342     		cmp	r3, r2
 1882 0024 12D0     		beq	.L106
1270:Drivers/RTT/SEGGER_RTT.c ****     pDst = (pRing->pBuffer + pRing->WrOff) + SEGGER_RTT_UNCACHED_OFF;
 1883              		.loc 1 1270 5 is_stmt 1 view .LVU561
 1884              		.loc 1 1270 18 is_stmt 0 view .LVU562
 1885 0026 431C     		adds	r3, r0, #1
 1886 0028 03EB4303 		add	r3, r3, r3, lsl #1
 1887 002c 04EBC303 		add	r3, r4, r3, lsl #3
 1888 0030 5B68     		ldr	r3, [r3, #4]
 1889              	.LVL199:
1271:Drivers/RTT/SEGGER_RTT.c ****     *pDst = c;
ARM GAS  C:\Users\seblo\AppData\Local\Temp\ccqImqhn.s 			page 61


 1890              		.loc 1 1271 5 is_stmt 1 view .LVU563
 1891              		.loc 1 1271 11 is_stmt 0 view .LVU564
 1892 0032 5955     		strb	r1, [r3, r5]
1272:Drivers/RTT/SEGGER_RTT.c ****     RTT__DMB();                     // Force data write to be complete before writing the <WrOff>, 
 1893              		.loc 1 1272 5 is_stmt 1 view .LVU565
 1894              		.syntax unified
 1895              	@ 1272 "Drivers/RTT/SEGGER_RTT.c" 1
 1896 0034 BFF35F8F 		dmb
 1897              	
 1898              	@ 0 "" 2
 1899              		.loc 1 1272 15 view .LVU566
1273:Drivers/RTT/SEGGER_RTT.c ****     pRing->WrOff = WrOff;
 1900              		.loc 1 1273 5 view .LVU567
 1901              		.loc 1 1273 18 is_stmt 0 view .LVU568
 1902              		.thumb
 1903              		.syntax unified
 1904 0038 00EB4000 		add	r0, r0, r0, lsl #1
 1905              	.LVL200:
 1906              		.loc 1 1273 18 view .LVU569
 1907 003c 04EBC000 		add	r0, r4, r0, lsl #3
 1908 0040 4262     		str	r2, [r0, #36]
1274:Drivers/RTT/SEGGER_RTT.c ****     Status = 1;
 1909              		.loc 1 1274 5 is_stmt 1 view .LVU570
 1910              	.LVL201:
 1911              		.loc 1 1274 12 is_stmt 0 view .LVU571
 1912 0042 0120     		movs	r0, #1
 1913              	.LVL202:
 1914              	.L102:
1275:Drivers/RTT/SEGGER_RTT.c ****   } else {
1276:Drivers/RTT/SEGGER_RTT.c ****     Status = 0;
1277:Drivers/RTT/SEGGER_RTT.c ****   }
1278:Drivers/RTT/SEGGER_RTT.c ****   //
1279:Drivers/RTT/SEGGER_RTT.c ****   return Status;
1280:Drivers/RTT/SEGGER_RTT.c **** }
 1915              		.loc 1 1280 1 view .LVU572
 1916 0044 30BC     		pop	{r4, r5}
 1917              	.LCFI16:
 1918              		.cfi_remember_state
 1919              		.cfi_restore 5
 1920              		.cfi_restore 4
 1921              		.cfi_def_cfa_offset 0
 1922 0046 7047     		bx	lr
 1923              	.LVL203:
 1924              	.L108:
 1925              	.LCFI17:
 1926              		.cfi_restore_state
1264:Drivers/RTT/SEGGER_RTT.c ****   }
 1927              		.loc 1 1264 11 view .LVU573
 1928 0048 0022     		movs	r2, #0
 1929              	.LVL204:
1264:Drivers/RTT/SEGGER_RTT.c ****   }
 1930              		.loc 1 1264 11 view .LVU574
 1931 004a E4E7     		b	.L103
 1932              	.LVL205:
 1933              	.L106:
1276:Drivers/RTT/SEGGER_RTT.c ****   }
 1934              		.loc 1 1276 12 view .LVU575
ARM GAS  C:\Users\seblo\AppData\Local\Temp\ccqImqhn.s 			page 62


 1935 004c 0020     		movs	r0, #0
 1936              	.LVL206:
1279:Drivers/RTT/SEGGER_RTT.c **** }
 1937              		.loc 1 1279 3 is_stmt 1 view .LVU576
1279:Drivers/RTT/SEGGER_RTT.c **** }
 1938              		.loc 1 1279 10 is_stmt 0 view .LVU577
 1939 004e F9E7     		b	.L102
 1940              	.L110:
 1941              		.align	2
 1942              	.L109:
 1943 0050 00000000 		.word	.LANCHOR1
 1944              		.cfi_endproc
 1945              	.LFE15:
 1947              		.section	.text.SEGGER_RTT_PutCharSkip,"ax",%progbits
 1948              		.align	1
 1949              		.global	SEGGER_RTT_PutCharSkip
 1950              		.syntax unified
 1951              		.thumb
 1952              		.thumb_func
 1953              		.fpu fpv5-sp-d16
 1955              	SEGGER_RTT_PutCharSkip:
 1956              	.LVL207:
 1957              	.LFB16:
1281:Drivers/RTT/SEGGER_RTT.c **** 
1282:Drivers/RTT/SEGGER_RTT.c **** /*********************************************************************
1283:Drivers/RTT/SEGGER_RTT.c **** *
1284:Drivers/RTT/SEGGER_RTT.c **** *       SEGGER_RTT_PutCharSkip
1285:Drivers/RTT/SEGGER_RTT.c **** *
1286:Drivers/RTT/SEGGER_RTT.c **** *  Function description
1287:Drivers/RTT/SEGGER_RTT.c **** *    Stores a single character/byte in SEGGER RTT buffer.
1288:Drivers/RTT/SEGGER_RTT.c **** *
1289:Drivers/RTT/SEGGER_RTT.c **** *  Parameters
1290:Drivers/RTT/SEGGER_RTT.c **** *    BufferIndex  Index of "Up"-buffer to be used (e.g. 0 for "Terminal").
1291:Drivers/RTT/SEGGER_RTT.c **** *    c            Byte to be stored.
1292:Drivers/RTT/SEGGER_RTT.c **** *
1293:Drivers/RTT/SEGGER_RTT.c **** *  Return value
1294:Drivers/RTT/SEGGER_RTT.c **** *    Number of bytes which have been stored in the "Up"-buffer.
1295:Drivers/RTT/SEGGER_RTT.c **** *
1296:Drivers/RTT/SEGGER_RTT.c **** *  Notes
1297:Drivers/RTT/SEGGER_RTT.c **** *    (1) If there is not enough space in the "Up"-buffer, the character is dropped.
1298:Drivers/RTT/SEGGER_RTT.c **** */
1299:Drivers/RTT/SEGGER_RTT.c **** 
1300:Drivers/RTT/SEGGER_RTT.c **** unsigned SEGGER_RTT_PutCharSkip(unsigned BufferIndex, char c) {
 1958              		.loc 1 1300 63 is_stmt 1 view -0
 1959              		.cfi_startproc
 1960              		@ args = 0, pretend = 0, frame = 0
 1961              		@ frame_needed = 0, uses_anonymous_args = 0
 1962              		.loc 1 1300 63 is_stmt 0 view .LVU579
 1963 0000 38B5     		push	{r3, r4, r5, lr}
 1964              	.LCFI18:
 1965              		.cfi_def_cfa_offset 16
 1966              		.cfi_offset 3, -16
 1967              		.cfi_offset 4, -12
 1968              		.cfi_offset 5, -8
 1969              		.cfi_offset 14, -4
 1970 0002 0446     		mov	r4, r0
 1971 0004 0D46     		mov	r5, r1
ARM GAS  C:\Users\seblo\AppData\Local\Temp\ccqImqhn.s 			page 63


1301:Drivers/RTT/SEGGER_RTT.c ****   SEGGER_RTT_BUFFER_UP* pRing;
 1972              		.loc 1 1301 3 is_stmt 1 view .LVU580
1302:Drivers/RTT/SEGGER_RTT.c ****   unsigned              WrOff;
 1973              		.loc 1 1302 3 view .LVU581
1303:Drivers/RTT/SEGGER_RTT.c ****   unsigned              Status;
 1974              		.loc 1 1303 3 view .LVU582
1304:Drivers/RTT/SEGGER_RTT.c ****   volatile char*        pDst;
 1975              		.loc 1 1304 3 view .LVU583
 1976              	.LBB14:
1305:Drivers/RTT/SEGGER_RTT.c ****   //
1306:Drivers/RTT/SEGGER_RTT.c ****   // Prepare
1307:Drivers/RTT/SEGGER_RTT.c ****   //
1308:Drivers/RTT/SEGGER_RTT.c ****   INIT();
 1977              		.loc 1 1308 3 view .LVU584
 1978              		.loc 1 1308 3 view .LVU585
 1979              	.LVL208:
 1980              		.loc 1 1308 3 view .LVU586
 1981              		.loc 1 1308 3 view .LVU587
 1982 0006 1A4B     		ldr	r3, .L120
 1983 0008 1B78     		ldrb	r3, [r3]	@ zero_extendqisi2
 1984 000a 4BB3     		cbz	r3, .L118
 1985              	.LVL209:
 1986              	.L112:
 1987              		.loc 1 1308 3 discriminator 3 view .LVU588
 1988              	.LBE14:
 1989              		.loc 1 1308 9 discriminator 3 view .LVU589
 1990              	.LBB15:
1309:Drivers/RTT/SEGGER_RTT.c ****   SEGGER_RTT_LOCK();
 1991              		.loc 1 1309 3 discriminator 3 view .LVU590
 1992              		.loc 1 1309 3 discriminator 3 view .LVU591
 1993              		.syntax unified
 1994              	@ 1309 "Drivers/RTT/SEGGER_RTT.c" 1
 1995 000c EFF3118C 		mrs   ip, basepri  
 1996 0010 4FF02001 		mov   r1, #32       
 1997 0014 81F31188 		msr   basepri, r1  
 1998              		
 1999              	@ 0 "" 2
 2000              	.LVL210:
 2001              		.loc 1 1309 20 discriminator 3 view .LVU592
1310:Drivers/RTT/SEGGER_RTT.c ****   //
1311:Drivers/RTT/SEGGER_RTT.c ****   // Get "to-host" ring buffer.
1312:Drivers/RTT/SEGGER_RTT.c ****   //
1313:Drivers/RTT/SEGGER_RTT.c ****   pRing = (SEGGER_RTT_BUFFER_UP*)((char*)&_SEGGER_RTT.aUp[BufferIndex] + SEGGER_RTT_UNCACHED_OFF); 
 2002              		.loc 1 1313 3 discriminator 3 view .LVU593
1314:Drivers/RTT/SEGGER_RTT.c ****   //
1315:Drivers/RTT/SEGGER_RTT.c ****   // Get write position and handle wrap-around if necessary
1316:Drivers/RTT/SEGGER_RTT.c ****   //
1317:Drivers/RTT/SEGGER_RTT.c ****   WrOff = pRing->WrOff + 1;
 2003              		.loc 1 1317 3 discriminator 3 view .LVU594
 2004              		.loc 1 1317 16 is_stmt 0 discriminator 3 view .LVU595
 2005              		.thumb
 2006              		.syntax unified
 2007 0018 04EB4403 		add	r3, r4, r4, lsl #1
 2008 001c 144A     		ldr	r2, .L120
 2009 001e 02EBC303 		add	r3, r2, r3, lsl #3
 2010 0022 586A     		ldr	r0, [r3, #36]
 2011              		.loc 1 1317 9 discriminator 3 view .LVU596
ARM GAS  C:\Users\seblo\AppData\Local\Temp\ccqImqhn.s 			page 64


 2012 0024 421C     		adds	r2, r0, #1
 2013              	.LVL211:
1318:Drivers/RTT/SEGGER_RTT.c ****   if (WrOff == pRing->SizeOfBuffer) {
 2014              		.loc 1 1318 3 is_stmt 1 discriminator 3 view .LVU597
 2015              		.loc 1 1318 21 is_stmt 0 discriminator 3 view .LVU598
 2016 0026 1B6A     		ldr	r3, [r3, #32]
 2017              		.loc 1 1318 6 discriminator 3 view .LVU599
 2018 0028 9342     		cmp	r3, r2
 2019 002a 1CD0     		beq	.L119
 2020              	.LVL212:
 2021              	.L113:
1319:Drivers/RTT/SEGGER_RTT.c ****     WrOff = 0;
1320:Drivers/RTT/SEGGER_RTT.c ****   }
1321:Drivers/RTT/SEGGER_RTT.c ****   //
1322:Drivers/RTT/SEGGER_RTT.c ****   // Output byte if free space is available
1323:Drivers/RTT/SEGGER_RTT.c ****   //
1324:Drivers/RTT/SEGGER_RTT.c ****   if (WrOff != pRing->RdOff) {
 2022              		.loc 1 1324 3 is_stmt 1 view .LVU600
 2023              		.loc 1 1324 21 is_stmt 0 view .LVU601
 2024 002c 04EB4403 		add	r3, r4, r4, lsl #1
 2025 0030 0F49     		ldr	r1, .L120
 2026 0032 01EBC303 		add	r3, r1, r3, lsl #3
 2027 0036 9B6A     		ldr	r3, [r3, #40]
 2028              		.loc 1 1324 6 view .LVU602
 2029 0038 9342     		cmp	r3, r2
 2030 003a 16D0     		beq	.L116
1325:Drivers/RTT/SEGGER_RTT.c ****     pDst  = (pRing->pBuffer + pRing->WrOff) + SEGGER_RTT_UNCACHED_OFF;
 2031              		.loc 1 1325 5 is_stmt 1 view .LVU603
 2032              		.loc 1 1325 19 is_stmt 0 view .LVU604
 2033 003c 631C     		adds	r3, r4, #1
 2034 003e 03EB4303 		add	r3, r3, r3, lsl #1
 2035 0042 01EBC303 		add	r3, r1, r3, lsl #3
 2036 0046 5B68     		ldr	r3, [r3, #4]
 2037              	.LVL213:
1326:Drivers/RTT/SEGGER_RTT.c ****     *pDst = c;
 2038              		.loc 1 1326 5 is_stmt 1 view .LVU605
 2039              		.loc 1 1326 11 is_stmt 0 view .LVU606
 2040 0048 1D54     		strb	r5, [r3, r0]
1327:Drivers/RTT/SEGGER_RTT.c ****     RTT__DMB();                     // Force data write to be complete before writing the <WrOff>, 
 2041              		.loc 1 1327 5 is_stmt 1 view .LVU607
 2042              		.syntax unified
 2043              	@ 1327 "Drivers/RTT/SEGGER_RTT.c" 1
 2044 004a BFF35F8F 		dmb
 2045              	
 2046              	@ 0 "" 2
 2047              		.loc 1 1327 15 view .LVU608
1328:Drivers/RTT/SEGGER_RTT.c ****     pRing->WrOff = WrOff;
 2048              		.loc 1 1328 5 view .LVU609
 2049              		.loc 1 1328 18 is_stmt 0 view .LVU610
 2050              		.thumb
 2051              		.syntax unified
 2052 004e 04EB4404 		add	r4, r4, r4, lsl #1
 2053              	.LVL214:
 2054              		.loc 1 1328 18 view .LVU611
 2055 0052 01EBC404 		add	r4, r1, r4, lsl #3
 2056 0056 6262     		str	r2, [r4, #36]
1329:Drivers/RTT/SEGGER_RTT.c ****     Status = 1;
ARM GAS  C:\Users\seblo\AppData\Local\Temp\ccqImqhn.s 			page 65


 2057              		.loc 1 1329 5 is_stmt 1 view .LVU612
 2058              	.LVL215:
 2059              		.loc 1 1329 12 is_stmt 0 view .LVU613
 2060 0058 0120     		movs	r0, #1
 2061              	.LVL216:
 2062              	.L114:
1330:Drivers/RTT/SEGGER_RTT.c ****   } else {
1331:Drivers/RTT/SEGGER_RTT.c ****     Status = 0;
1332:Drivers/RTT/SEGGER_RTT.c ****   }
1333:Drivers/RTT/SEGGER_RTT.c ****   //
1334:Drivers/RTT/SEGGER_RTT.c ****   // Finish up.
1335:Drivers/RTT/SEGGER_RTT.c ****   //
1336:Drivers/RTT/SEGGER_RTT.c ****   SEGGER_RTT_UNLOCK();
 2063              		.loc 1 1336 3 is_stmt 1 view .LVU614
 2064              		.syntax unified
 2065              	@ 1336 "Drivers/RTT/SEGGER_RTT.c" 1
 2066 005a 8CF31188 		msr   basepri, ip  
 2067              		
 2068              	@ 0 "" 2
 2069              		.thumb
 2070              		.syntax unified
 2071              	.LBE15:
 2072              		.loc 1 1336 22 view .LVU615
1337:Drivers/RTT/SEGGER_RTT.c ****   //
1338:Drivers/RTT/SEGGER_RTT.c ****   return Status;
 2073              		.loc 1 1338 3 view .LVU616
1339:Drivers/RTT/SEGGER_RTT.c **** }
 2074              		.loc 1 1339 1 is_stmt 0 view .LVU617
 2075 005e 38BD     		pop	{r3, r4, r5, pc}
 2076              	.LVL217:
 2077              	.L118:
 2078              	.LBB16:
1308:Drivers/RTT/SEGGER_RTT.c ****   SEGGER_RTT_LOCK();
 2079              		.loc 1 1308 3 is_stmt 1 discriminator 1 view .LVU618
 2080 0060 FFF7FEFF 		bl	_DoInit
 2081              	.LVL218:
1308:Drivers/RTT/SEGGER_RTT.c ****   SEGGER_RTT_LOCK();
 2082              		.loc 1 1308 3 is_stmt 0 discriminator 1 view .LVU619
 2083 0064 D2E7     		b	.L112
 2084              	.LVL219:
 2085              	.L119:
1308:Drivers/RTT/SEGGER_RTT.c ****   SEGGER_RTT_LOCK();
 2086              		.loc 1 1308 3 discriminator 1 view .LVU620
 2087              	.LBE16:
 2088              	.LBB17:
1319:Drivers/RTT/SEGGER_RTT.c ****   }
 2089              		.loc 1 1319 11 view .LVU621
 2090 0066 0022     		movs	r2, #0
 2091              	.LVL220:
1319:Drivers/RTT/SEGGER_RTT.c ****   }
 2092              		.loc 1 1319 11 view .LVU622
 2093 0068 E0E7     		b	.L113
 2094              	.LVL221:
 2095              	.L116:
1331:Drivers/RTT/SEGGER_RTT.c ****   }
 2096              		.loc 1 1331 12 view .LVU623
 2097 006a 0020     		movs	r0, #0
ARM GAS  C:\Users\seblo\AppData\Local\Temp\ccqImqhn.s 			page 66


 2098 006c F5E7     		b	.L114
 2099              	.L121:
 2100 006e 00BF     		.align	2
 2101              	.L120:
 2102 0070 00000000 		.word	.LANCHOR1
 2103              	.LBE17:
 2104              		.cfi_endproc
 2105              	.LFE16:
 2107              		.section	.text.SEGGER_RTT_PutChar,"ax",%progbits
 2108              		.align	1
 2109              		.global	SEGGER_RTT_PutChar
 2110              		.syntax unified
 2111              		.thumb
 2112              		.thumb_func
 2113              		.fpu fpv5-sp-d16
 2115              	SEGGER_RTT_PutChar:
 2116              	.LVL222:
 2117              	.LFB17:
1340:Drivers/RTT/SEGGER_RTT.c **** 
1341:Drivers/RTT/SEGGER_RTT.c ****  /*********************************************************************
1342:Drivers/RTT/SEGGER_RTT.c **** *
1343:Drivers/RTT/SEGGER_RTT.c **** *       SEGGER_RTT_PutChar
1344:Drivers/RTT/SEGGER_RTT.c **** *
1345:Drivers/RTT/SEGGER_RTT.c **** *  Function description
1346:Drivers/RTT/SEGGER_RTT.c **** *    Stores a single character/byte in SEGGER RTT buffer.
1347:Drivers/RTT/SEGGER_RTT.c **** *
1348:Drivers/RTT/SEGGER_RTT.c **** *  Parameters
1349:Drivers/RTT/SEGGER_RTT.c **** *    BufferIndex  Index of "Up"-buffer to be used (e.g. 0 for "Terminal").
1350:Drivers/RTT/SEGGER_RTT.c **** *    c            Byte to be stored.
1351:Drivers/RTT/SEGGER_RTT.c **** *
1352:Drivers/RTT/SEGGER_RTT.c **** *  Return value
1353:Drivers/RTT/SEGGER_RTT.c **** *    Number of bytes which have been stored in the "Up"-buffer.
1354:Drivers/RTT/SEGGER_RTT.c **** *
1355:Drivers/RTT/SEGGER_RTT.c **** *  Notes
1356:Drivers/RTT/SEGGER_RTT.c **** *    (1) Data is stored according to buffer flags.
1357:Drivers/RTT/SEGGER_RTT.c **** */
1358:Drivers/RTT/SEGGER_RTT.c **** 
1359:Drivers/RTT/SEGGER_RTT.c **** unsigned SEGGER_RTT_PutChar(unsigned BufferIndex, char c) {
 2118              		.loc 1 1359 59 is_stmt 1 view -0
 2119              		.cfi_startproc
 2120              		@ args = 0, pretend = 0, frame = 0
 2121              		@ frame_needed = 0, uses_anonymous_args = 0
 2122              		.loc 1 1359 59 is_stmt 0 view .LVU625
 2123 0000 38B5     		push	{r3, r4, r5, lr}
 2124              	.LCFI19:
 2125              		.cfi_def_cfa_offset 16
 2126              		.cfi_offset 3, -16
 2127              		.cfi_offset 4, -12
 2128              		.cfi_offset 5, -8
 2129              		.cfi_offset 14, -4
 2130 0002 0446     		mov	r4, r0
 2131 0004 0D46     		mov	r5, r1
1360:Drivers/RTT/SEGGER_RTT.c ****   SEGGER_RTT_BUFFER_UP* pRing;
 2132              		.loc 1 1360 3 is_stmt 1 view .LVU626
1361:Drivers/RTT/SEGGER_RTT.c ****   unsigned              WrOff;
 2133              		.loc 1 1361 3 view .LVU627
1362:Drivers/RTT/SEGGER_RTT.c ****   unsigned              Status;
ARM GAS  C:\Users\seblo\AppData\Local\Temp\ccqImqhn.s 			page 67


 2134              		.loc 1 1362 3 view .LVU628
1363:Drivers/RTT/SEGGER_RTT.c ****   volatile char*        pDst;
 2135              		.loc 1 1363 3 view .LVU629
 2136              	.LBB18:
1364:Drivers/RTT/SEGGER_RTT.c ****   //
1365:Drivers/RTT/SEGGER_RTT.c ****   // Prepare
1366:Drivers/RTT/SEGGER_RTT.c ****   //
1367:Drivers/RTT/SEGGER_RTT.c ****   INIT();
 2137              		.loc 1 1367 3 view .LVU630
 2138              		.loc 1 1367 3 view .LVU631
 2139              	.LVL223:
 2140              		.loc 1 1367 3 view .LVU632
 2141              		.loc 1 1367 3 view .LVU633
 2142 0006 234B     		ldr	r3, .L133
 2143 0008 1B78     		ldrb	r3, [r3]	@ zero_extendqisi2
 2144 000a 002B     		cmp	r3, #0
 2145 000c 31D0     		beq	.L131
 2146              	.LVL224:
 2147              	.L123:
 2148              		.loc 1 1367 3 discriminator 3 view .LVU634
 2149              	.LBE18:
 2150              		.loc 1 1367 9 discriminator 3 view .LVU635
 2151              	.LBB19:
1368:Drivers/RTT/SEGGER_RTT.c ****   SEGGER_RTT_LOCK();
 2152              		.loc 1 1368 3 discriminator 3 view .LVU636
 2153              		.loc 1 1368 3 discriminator 3 view .LVU637
 2154              		.syntax unified
 2155              	@ 1368 "Drivers/RTT/SEGGER_RTT.c" 1
 2156 000e EFF3118C 		mrs   ip, basepri  
 2157 0012 4FF02001 		mov   r1, #32       
 2158 0016 81F31188 		msr   basepri, r1  
 2159              		
 2160              	@ 0 "" 2
 2161              	.LVL225:
 2162              		.loc 1 1368 20 discriminator 3 view .LVU638
1369:Drivers/RTT/SEGGER_RTT.c ****   //
1370:Drivers/RTT/SEGGER_RTT.c ****   // Get "to-host" ring buffer.
1371:Drivers/RTT/SEGGER_RTT.c ****   //
1372:Drivers/RTT/SEGGER_RTT.c ****   pRing = (SEGGER_RTT_BUFFER_UP*)((char*)&_SEGGER_RTT.aUp[BufferIndex] + SEGGER_RTT_UNCACHED_OFF); 
 2163              		.loc 1 1372 3 discriminator 3 view .LVU639
1373:Drivers/RTT/SEGGER_RTT.c ****   //
1374:Drivers/RTT/SEGGER_RTT.c ****   // Get write position and handle wrap-around if necessary
1375:Drivers/RTT/SEGGER_RTT.c ****   //
1376:Drivers/RTT/SEGGER_RTT.c ****   WrOff = pRing->WrOff + 1;
 2164              		.loc 1 1376 3 discriminator 3 view .LVU640
 2165              		.loc 1 1376 16 is_stmt 0 discriminator 3 view .LVU641
 2166              		.thumb
 2167              		.syntax unified
 2168 001a 04EB4403 		add	r3, r4, r4, lsl #1
 2169 001e 1D4A     		ldr	r2, .L133
 2170 0020 02EBC303 		add	r3, r2, r3, lsl #3
 2171 0024 596A     		ldr	r1, [r3, #36]
 2172              		.loc 1 1376 9 discriminator 3 view .LVU642
 2173 0026 481C     		adds	r0, r1, #1
 2174              	.LVL226:
1377:Drivers/RTT/SEGGER_RTT.c ****   if (WrOff == pRing->SizeOfBuffer) {
 2175              		.loc 1 1377 3 is_stmt 1 discriminator 3 view .LVU643
ARM GAS  C:\Users\seblo\AppData\Local\Temp\ccqImqhn.s 			page 68


 2176              		.loc 1 1377 21 is_stmt 0 discriminator 3 view .LVU644
 2177 0028 1B6A     		ldr	r3, [r3, #32]
 2178              		.loc 1 1377 6 discriminator 3 view .LVU645
 2179 002a 8342     		cmp	r3, r0
 2180 002c 24D0     		beq	.L132
 2181              	.LVL227:
 2182              	.L124:
1378:Drivers/RTT/SEGGER_RTT.c ****     WrOff = 0;
1379:Drivers/RTT/SEGGER_RTT.c ****   }
1380:Drivers/RTT/SEGGER_RTT.c ****   //
1381:Drivers/RTT/SEGGER_RTT.c ****   // Wait for free space if mode is set to blocking
1382:Drivers/RTT/SEGGER_RTT.c ****   //
1383:Drivers/RTT/SEGGER_RTT.c ****   if (pRing->Flags == SEGGER_RTT_MODE_BLOCK_IF_FIFO_FULL) {
 2183              		.loc 1 1383 3 is_stmt 1 view .LVU646
 2184              		.loc 1 1383 12 is_stmt 0 view .LVU647
 2185 002e 04EB4403 		add	r3, r4, r4, lsl #1
 2186 0032 184A     		ldr	r2, .L133
 2187 0034 02EBC303 		add	r3, r2, r3, lsl #3
 2188 0038 DB6A     		ldr	r3, [r3, #44]
 2189              		.loc 1 1383 6 view .LVU648
 2190 003a 022B     		cmp	r3, #2
 2191 003c 1ED0     		beq	.L126
 2192              	.L125:
1384:Drivers/RTT/SEGGER_RTT.c ****     while (WrOff == pRing->RdOff) {
1385:Drivers/RTT/SEGGER_RTT.c ****       ;
1386:Drivers/RTT/SEGGER_RTT.c ****     }
1387:Drivers/RTT/SEGGER_RTT.c ****   }
1388:Drivers/RTT/SEGGER_RTT.c ****   //
1389:Drivers/RTT/SEGGER_RTT.c ****   // Output byte if free space is available
1390:Drivers/RTT/SEGGER_RTT.c ****   //
1391:Drivers/RTT/SEGGER_RTT.c ****   if (WrOff != pRing->RdOff) {
 2193              		.loc 1 1391 3 is_stmt 1 view .LVU649
 2194              		.loc 1 1391 21 is_stmt 0 view .LVU650
 2195 003e 04EB4403 		add	r3, r4, r4, lsl #1
 2196 0042 144A     		ldr	r2, .L133
 2197 0044 02EBC303 		add	r3, r2, r3, lsl #3
 2198 0048 9B6A     		ldr	r3, [r3, #40]
 2199              		.loc 1 1391 6 view .LVU651
 2200 004a 8342     		cmp	r3, r0
 2201 004c 1FD0     		beq	.L129
1392:Drivers/RTT/SEGGER_RTT.c ****     pDst  = (pRing->pBuffer + pRing->WrOff) + SEGGER_RTT_UNCACHED_OFF;
 2202              		.loc 1 1392 5 is_stmt 1 view .LVU652
 2203              		.loc 1 1392 19 is_stmt 0 view .LVU653
 2204 004e 631C     		adds	r3, r4, #1
 2205 0050 03EB4303 		add	r3, r3, r3, lsl #1
 2206 0054 02EBC303 		add	r3, r2, r3, lsl #3
 2207 0058 5B68     		ldr	r3, [r3, #4]
 2208              	.LVL228:
1393:Drivers/RTT/SEGGER_RTT.c ****     *pDst = c;
 2209              		.loc 1 1393 5 is_stmt 1 view .LVU654
 2210              		.loc 1 1393 11 is_stmt 0 view .LVU655
 2211 005a 5D54     		strb	r5, [r3, r1]
1394:Drivers/RTT/SEGGER_RTT.c ****     RTT__DMB();                     // Force data write to be complete before writing the <WrOff>, 
 2212              		.loc 1 1394 5 is_stmt 1 view .LVU656
 2213              		.syntax unified
 2214              	@ 1394 "Drivers/RTT/SEGGER_RTT.c" 1
 2215 005c BFF35F8F 		dmb
ARM GAS  C:\Users\seblo\AppData\Local\Temp\ccqImqhn.s 			page 69


 2216              	
 2217              	@ 0 "" 2
 2218              		.loc 1 1394 15 view .LVU657
1395:Drivers/RTT/SEGGER_RTT.c ****     pRing->WrOff = WrOff;
 2219              		.loc 1 1395 5 view .LVU658
 2220              		.loc 1 1395 18 is_stmt 0 view .LVU659
 2221              		.thumb
 2222              		.syntax unified
 2223 0060 04EB4404 		add	r4, r4, r4, lsl #1
 2224              	.LVL229:
 2225              		.loc 1 1395 18 view .LVU660
 2226 0064 02EBC404 		add	r4, r2, r4, lsl #3
 2227 0068 6062     		str	r0, [r4, #36]
1396:Drivers/RTT/SEGGER_RTT.c ****     Status = 1;
 2228              		.loc 1 1396 5 is_stmt 1 view .LVU661
 2229              	.LVL230:
 2230              		.loc 1 1396 12 is_stmt 0 view .LVU662
 2231 006a 0120     		movs	r0, #1
 2232              	.LVL231:
 2233              	.L127:
1397:Drivers/RTT/SEGGER_RTT.c ****   } else {
1398:Drivers/RTT/SEGGER_RTT.c ****     Status = 0;
1399:Drivers/RTT/SEGGER_RTT.c ****   }
1400:Drivers/RTT/SEGGER_RTT.c ****   //
1401:Drivers/RTT/SEGGER_RTT.c ****   // Finish up.
1402:Drivers/RTT/SEGGER_RTT.c ****   //
1403:Drivers/RTT/SEGGER_RTT.c ****   SEGGER_RTT_UNLOCK();
 2234              		.loc 1 1403 3 is_stmt 1 view .LVU663
 2235              		.syntax unified
 2236              	@ 1403 "Drivers/RTT/SEGGER_RTT.c" 1
 2237 006c 8CF31188 		msr   basepri, ip  
 2238              		
 2239              	@ 0 "" 2
 2240              		.thumb
 2241              		.syntax unified
 2242              	.LBE19:
 2243              		.loc 1 1403 22 view .LVU664
1404:Drivers/RTT/SEGGER_RTT.c ****   return Status;
 2244              		.loc 1 1404 3 view .LVU665
1405:Drivers/RTT/SEGGER_RTT.c **** }
 2245              		.loc 1 1405 1 is_stmt 0 view .LVU666
 2246 0070 38BD     		pop	{r3, r4, r5, pc}
 2247              	.LVL232:
 2248              	.L131:
 2249              	.LBB20:
1367:Drivers/RTT/SEGGER_RTT.c ****   SEGGER_RTT_LOCK();
 2250              		.loc 1 1367 3 is_stmt 1 discriminator 1 view .LVU667
 2251 0072 FFF7FEFF 		bl	_DoInit
 2252              	.LVL233:
1367:Drivers/RTT/SEGGER_RTT.c ****   SEGGER_RTT_LOCK();
 2253              		.loc 1 1367 3 is_stmt 0 discriminator 1 view .LVU668
 2254 0076 CAE7     		b	.L123
 2255              	.LVL234:
 2256              	.L132:
1367:Drivers/RTT/SEGGER_RTT.c ****   SEGGER_RTT_LOCK();
 2257              		.loc 1 1367 3 discriminator 1 view .LVU669
 2258              	.LBE20:
ARM GAS  C:\Users\seblo\AppData\Local\Temp\ccqImqhn.s 			page 70


 2259              	.LBB21:
1378:Drivers/RTT/SEGGER_RTT.c ****   }
 2260              		.loc 1 1378 11 view .LVU670
 2261 0078 0020     		movs	r0, #0
 2262              	.LVL235:
1378:Drivers/RTT/SEGGER_RTT.c ****   }
 2263              		.loc 1 1378 11 view .LVU671
 2264 007a D8E7     		b	.L124
 2265              	.LVL236:
 2266              	.L126:
1385:Drivers/RTT/SEGGER_RTT.c ****     }
 2267              		.loc 1 1385 7 is_stmt 1 discriminator 1 view .LVU672
1384:Drivers/RTT/SEGGER_RTT.c ****       ;
 2268              		.loc 1 1384 11 discriminator 1 view .LVU673
1384:Drivers/RTT/SEGGER_RTT.c ****       ;
 2269              		.loc 1 1384 26 is_stmt 0 discriminator 1 view .LVU674
 2270 007c 04EB4403 		add	r3, r4, r4, lsl #1
 2271 0080 044A     		ldr	r2, .L133
 2272 0082 02EBC303 		add	r3, r2, r3, lsl #3
 2273 0086 9B6A     		ldr	r3, [r3, #40]
1384:Drivers/RTT/SEGGER_RTT.c ****       ;
 2274              		.loc 1 1384 11 discriminator 1 view .LVU675
 2275 0088 8342     		cmp	r3, r0
 2276 008a F7D0     		beq	.L126
 2277 008c D7E7     		b	.L125
 2278              	.L129:
1398:Drivers/RTT/SEGGER_RTT.c ****   }
 2279              		.loc 1 1398 12 view .LVU676
 2280 008e 0020     		movs	r0, #0
 2281              	.LVL237:
1398:Drivers/RTT/SEGGER_RTT.c ****   }
 2282              		.loc 1 1398 12 view .LVU677
 2283 0090 ECE7     		b	.L127
 2284              	.L134:
 2285 0092 00BF     		.align	2
 2286              	.L133:
 2287 0094 00000000 		.word	.LANCHOR1
 2288              	.LBE21:
 2289              		.cfi_endproc
 2290              	.LFE17:
 2292              		.section	.text.SEGGER_RTT_GetKey,"ax",%progbits
 2293              		.align	1
 2294              		.global	SEGGER_RTT_GetKey
 2295              		.syntax unified
 2296              		.thumb
 2297              		.thumb_func
 2298              		.fpu fpv5-sp-d16
 2300              	SEGGER_RTT_GetKey:
 2301              	.LFB18:
1406:Drivers/RTT/SEGGER_RTT.c **** 
1407:Drivers/RTT/SEGGER_RTT.c **** /*********************************************************************
1408:Drivers/RTT/SEGGER_RTT.c **** *
1409:Drivers/RTT/SEGGER_RTT.c **** *       SEGGER_RTT_GetKey
1410:Drivers/RTT/SEGGER_RTT.c **** *
1411:Drivers/RTT/SEGGER_RTT.c **** *  Function description
1412:Drivers/RTT/SEGGER_RTT.c **** *    Reads one character from the SEGGER RTT buffer.
1413:Drivers/RTT/SEGGER_RTT.c **** *    Host has previously stored data there.
ARM GAS  C:\Users\seblo\AppData\Local\Temp\ccqImqhn.s 			page 71


1414:Drivers/RTT/SEGGER_RTT.c **** *
1415:Drivers/RTT/SEGGER_RTT.c **** *  Return value
1416:Drivers/RTT/SEGGER_RTT.c **** *    <  0 -   No character available (buffer empty).
1417:Drivers/RTT/SEGGER_RTT.c **** *    >= 0 -   Character which has been read. (Possible values: 0 - 255)
1418:Drivers/RTT/SEGGER_RTT.c **** *
1419:Drivers/RTT/SEGGER_RTT.c **** *  Notes
1420:Drivers/RTT/SEGGER_RTT.c **** *    (1) This function is only specified for accesses to RTT buffer 0.
1421:Drivers/RTT/SEGGER_RTT.c **** */
1422:Drivers/RTT/SEGGER_RTT.c **** int SEGGER_RTT_GetKey(void) {
 2302              		.loc 1 1422 29 is_stmt 1 view -0
 2303              		.cfi_startproc
 2304              		@ args = 0, pretend = 0, frame = 8
 2305              		@ frame_needed = 0, uses_anonymous_args = 0
 2306 0000 00B5     		push	{lr}
 2307              	.LCFI20:
 2308              		.cfi_def_cfa_offset 4
 2309              		.cfi_offset 14, -4
 2310 0002 83B0     		sub	sp, sp, #12
 2311              	.LCFI21:
 2312              		.cfi_def_cfa_offset 16
1423:Drivers/RTT/SEGGER_RTT.c ****   char c;
 2313              		.loc 1 1423 3 view .LVU679
1424:Drivers/RTT/SEGGER_RTT.c ****   int r;
 2314              		.loc 1 1424 3 view .LVU680
1425:Drivers/RTT/SEGGER_RTT.c **** 
1426:Drivers/RTT/SEGGER_RTT.c ****   r = (int)SEGGER_RTT_Read(0u, &c, 1u);
 2315              		.loc 1 1426 3 view .LVU681
 2316              		.loc 1 1426 12 is_stmt 0 view .LVU682
 2317 0004 0122     		movs	r2, #1
 2318 0006 0DF10701 		add	r1, sp, #7
 2319 000a 0020     		movs	r0, #0
 2320 000c FFF7FEFF 		bl	SEGGER_RTT_Read
 2321              	.LVL238:
1427:Drivers/RTT/SEGGER_RTT.c ****   if (r == 1) {
 2322              		.loc 1 1427 3 is_stmt 1 view .LVU683
 2323              		.loc 1 1427 6 is_stmt 0 view .LVU684
 2324 0010 0128     		cmp	r0, #1
 2325 0012 04D1     		bne	.L137
1428:Drivers/RTT/SEGGER_RTT.c ****     r = (int)(unsigned char)c;
 2326              		.loc 1 1428 5 is_stmt 1 view .LVU685
 2327              		.loc 1 1428 9 is_stmt 0 view .LVU686
 2328 0014 9DF80700 		ldrb	r0, [sp, #7]	@ zero_extendqisi2
 2329              	.LVL239:
 2330              	.L135:
1429:Drivers/RTT/SEGGER_RTT.c ****   } else {
1430:Drivers/RTT/SEGGER_RTT.c ****     r = -1;
1431:Drivers/RTT/SEGGER_RTT.c ****   }
1432:Drivers/RTT/SEGGER_RTT.c ****   return r;
1433:Drivers/RTT/SEGGER_RTT.c **** }
 2331              		.loc 1 1433 1 view .LVU687
 2332 0018 03B0     		add	sp, sp, #12
 2333              	.LCFI22:
 2334              		.cfi_remember_state
 2335              		.cfi_def_cfa_offset 4
 2336              		@ sp needed
 2337 001a 5DF804FB 		ldr	pc, [sp], #4
 2338              	.LVL240:
ARM GAS  C:\Users\seblo\AppData\Local\Temp\ccqImqhn.s 			page 72


 2339              	.L137:
 2340              	.LCFI23:
 2341              		.cfi_restore_state
1430:Drivers/RTT/SEGGER_RTT.c ****   }
 2342              		.loc 1 1430 7 view .LVU688
 2343 001e 4FF0FF30 		mov	r0, #-1
 2344              	.LVL241:
1432:Drivers/RTT/SEGGER_RTT.c **** }
 2345              		.loc 1 1432 3 is_stmt 1 view .LVU689
1432:Drivers/RTT/SEGGER_RTT.c **** }
 2346              		.loc 1 1432 10 is_stmt 0 view .LVU690
 2347 0022 F9E7     		b	.L135
 2348              		.cfi_endproc
 2349              	.LFE18:
 2351              		.section	.text.SEGGER_RTT_WaitKey,"ax",%progbits
 2352              		.align	1
 2353              		.global	SEGGER_RTT_WaitKey
 2354              		.syntax unified
 2355              		.thumb
 2356              		.thumb_func
 2357              		.fpu fpv5-sp-d16
 2359              	SEGGER_RTT_WaitKey:
 2360              	.LFB19:
1434:Drivers/RTT/SEGGER_RTT.c **** 
1435:Drivers/RTT/SEGGER_RTT.c **** /*********************************************************************
1436:Drivers/RTT/SEGGER_RTT.c **** *
1437:Drivers/RTT/SEGGER_RTT.c **** *       SEGGER_RTT_WaitKey
1438:Drivers/RTT/SEGGER_RTT.c **** *
1439:Drivers/RTT/SEGGER_RTT.c **** *  Function description
1440:Drivers/RTT/SEGGER_RTT.c **** *    Waits until at least one character is avaible in the SEGGER RTT buffer.
1441:Drivers/RTT/SEGGER_RTT.c **** *    Once a character is available, it is read and this function returns.
1442:Drivers/RTT/SEGGER_RTT.c **** *
1443:Drivers/RTT/SEGGER_RTT.c **** *  Return value
1444:Drivers/RTT/SEGGER_RTT.c **** *    >=0 -   Character which has been read.
1445:Drivers/RTT/SEGGER_RTT.c **** *
1446:Drivers/RTT/SEGGER_RTT.c **** *  Notes
1447:Drivers/RTT/SEGGER_RTT.c **** *    (1) This function is only specified for accesses to RTT buffer 0
1448:Drivers/RTT/SEGGER_RTT.c **** *    (2) This function is blocking if no character is present in RTT buffer
1449:Drivers/RTT/SEGGER_RTT.c **** */
1450:Drivers/RTT/SEGGER_RTT.c **** int SEGGER_RTT_WaitKey(void) {
 2361              		.loc 1 1450 30 is_stmt 1 view -0
 2362              		.cfi_startproc
 2363              		@ args = 0, pretend = 0, frame = 0
 2364              		@ frame_needed = 0, uses_anonymous_args = 0
 2365 0000 08B5     		push	{r3, lr}
 2366              	.LCFI24:
 2367              		.cfi_def_cfa_offset 8
 2368              		.cfi_offset 3, -8
 2369              		.cfi_offset 14, -4
 2370              	.L140:
1451:Drivers/RTT/SEGGER_RTT.c ****   int r;
 2371              		.loc 1 1451 3 discriminator 1 view .LVU692
1452:Drivers/RTT/SEGGER_RTT.c **** 
1453:Drivers/RTT/SEGGER_RTT.c ****   do {
 2372              		.loc 1 1453 3 discriminator 1 view .LVU693
1454:Drivers/RTT/SEGGER_RTT.c ****     r = SEGGER_RTT_GetKey();
 2373              		.loc 1 1454 5 discriminator 1 view .LVU694
ARM GAS  C:\Users\seblo\AppData\Local\Temp\ccqImqhn.s 			page 73


 2374              		.loc 1 1454 9 is_stmt 0 discriminator 1 view .LVU695
 2375 0002 FFF7FEFF 		bl	SEGGER_RTT_GetKey
 2376              	.LVL242:
1455:Drivers/RTT/SEGGER_RTT.c ****   } while (r < 0);
 2377              		.loc 1 1455 11 is_stmt 1 discriminator 1 view .LVU696
 2378              		.loc 1 1455 3 is_stmt 0 discriminator 1 view .LVU697
 2379 0006 0028     		cmp	r0, #0
 2380              		.loc 1 1455 3 discriminator 1 view .LVU698
 2381 0008 FBDB     		blt	.L140
1456:Drivers/RTT/SEGGER_RTT.c ****   return r;
 2382              		.loc 1 1456 3 is_stmt 1 view .LVU699
1457:Drivers/RTT/SEGGER_RTT.c **** }
 2383              		.loc 1 1457 1 is_stmt 0 view .LVU700
 2384 000a 08BD     		pop	{r3, pc}
 2385              		.cfi_endproc
 2386              	.LFE19:
 2388              		.section	.text.SEGGER_RTT_HasKey,"ax",%progbits
 2389              		.align	1
 2390              		.global	SEGGER_RTT_HasKey
 2391              		.syntax unified
 2392              		.thumb
 2393              		.thumb_func
 2394              		.fpu fpv5-sp-d16
 2396              	SEGGER_RTT_HasKey:
 2397              	.LFB20:
1458:Drivers/RTT/SEGGER_RTT.c **** 
1459:Drivers/RTT/SEGGER_RTT.c **** /*********************************************************************
1460:Drivers/RTT/SEGGER_RTT.c **** *
1461:Drivers/RTT/SEGGER_RTT.c **** *       SEGGER_RTT_HasKey
1462:Drivers/RTT/SEGGER_RTT.c **** *
1463:Drivers/RTT/SEGGER_RTT.c **** *  Function description
1464:Drivers/RTT/SEGGER_RTT.c **** *    Checks if at least one character for reading is available in the SEGGER RTT buffer.
1465:Drivers/RTT/SEGGER_RTT.c **** *
1466:Drivers/RTT/SEGGER_RTT.c **** *  Return value
1467:Drivers/RTT/SEGGER_RTT.c **** *    == 0 -     No characters are available to read.
1468:Drivers/RTT/SEGGER_RTT.c **** *    == 1 -     At least one character is available.
1469:Drivers/RTT/SEGGER_RTT.c **** *
1470:Drivers/RTT/SEGGER_RTT.c **** *  Notes
1471:Drivers/RTT/SEGGER_RTT.c **** *    (1) This function is only specified for accesses to RTT buffer 0
1472:Drivers/RTT/SEGGER_RTT.c **** */
1473:Drivers/RTT/SEGGER_RTT.c **** int SEGGER_RTT_HasKey(void) {
 2398              		.loc 1 1473 29 is_stmt 1 view -0
 2399              		.cfi_startproc
 2400              		@ args = 0, pretend = 0, frame = 0
 2401              		@ frame_needed = 0, uses_anonymous_args = 0
 2402 0000 08B5     		push	{r3, lr}
 2403              	.LCFI25:
 2404              		.cfi_def_cfa_offset 8
 2405              		.cfi_offset 3, -8
 2406              		.cfi_offset 14, -4
1474:Drivers/RTT/SEGGER_RTT.c ****   SEGGER_RTT_BUFFER_DOWN* pRing;
 2407              		.loc 1 1474 3 view .LVU702
1475:Drivers/RTT/SEGGER_RTT.c ****   unsigned RdOff;
 2408              		.loc 1 1475 3 view .LVU703
1476:Drivers/RTT/SEGGER_RTT.c ****   int r;
 2409              		.loc 1 1476 3 view .LVU704
 2410              	.LBB22:
ARM GAS  C:\Users\seblo\AppData\Local\Temp\ccqImqhn.s 			page 74


1477:Drivers/RTT/SEGGER_RTT.c **** 
1478:Drivers/RTT/SEGGER_RTT.c ****   INIT();
 2411              		.loc 1 1478 3 view .LVU705
 2412              		.loc 1 1478 3 view .LVU706
 2413              	.LVL243:
 2414              		.loc 1 1478 3 view .LVU707
 2415              		.loc 1 1478 3 view .LVU708
 2416 0002 074B     		ldr	r3, .L148
 2417 0004 1B78     		ldrb	r3, [r3]	@ zero_extendqisi2
 2418 0006 33B1     		cbz	r3, .L147
 2419              	.L143:
 2420              		.loc 1 1478 3 discriminator 3 view .LVU709
 2421              	.LBE22:
 2422              		.loc 1 1478 9 discriminator 3 view .LVU710
1479:Drivers/RTT/SEGGER_RTT.c ****   pRing = (SEGGER_RTT_BUFFER_DOWN*)((char*)&_SEGGER_RTT.aDown[0] + SEGGER_RTT_UNCACHED_OFF);  // Ac
 2423              		.loc 1 1479 3 discriminator 3 view .LVU711
 2424              	.LVL244:
1480:Drivers/RTT/SEGGER_RTT.c ****   RdOff = pRing->RdOff;
 2425              		.loc 1 1480 3 discriminator 3 view .LVU712
 2426              		.loc 1 1480 9 is_stmt 0 discriminator 3 view .LVU713
 2427 0008 054B     		ldr	r3, .L148
 2428 000a 1A6F     		ldr	r2, [r3, #112]
 2429              	.LVL245:
1481:Drivers/RTT/SEGGER_RTT.c ****   if (RdOff != pRing->WrOff) {
 2430              		.loc 1 1481 3 is_stmt 1 discriminator 3 view .LVU714
 2431              		.loc 1 1481 21 is_stmt 0 discriminator 3 view .LVU715
 2432 000c DB6E     		ldr	r3, [r3, #108]
 2433              		.loc 1 1481 6 discriminator 3 view .LVU716
 2434 000e 9342     		cmp	r3, r2
 2435 0010 04D0     		beq	.L145
1482:Drivers/RTT/SEGGER_RTT.c ****     r = 1;
 2436              		.loc 1 1482 7 view .LVU717
 2437 0012 0120     		movs	r0, #1
 2438              	.L142:
1483:Drivers/RTT/SEGGER_RTT.c ****   } else {
1484:Drivers/RTT/SEGGER_RTT.c ****     r = 0;
1485:Drivers/RTT/SEGGER_RTT.c ****   }
1486:Drivers/RTT/SEGGER_RTT.c ****   return r;
1487:Drivers/RTT/SEGGER_RTT.c **** }
 2439              		.loc 1 1487 1 view .LVU718
 2440 0014 08BD     		pop	{r3, pc}
 2441              	.LVL246:
 2442              	.L147:
 2443              	.LBB23:
1478:Drivers/RTT/SEGGER_RTT.c ****   pRing = (SEGGER_RTT_BUFFER_DOWN*)((char*)&_SEGGER_RTT.aDown[0] + SEGGER_RTT_UNCACHED_OFF);  // Ac
 2444              		.loc 1 1478 3 is_stmt 1 discriminator 1 view .LVU719
 2445 0016 FFF7FEFF 		bl	_DoInit
 2446              	.LVL247:
 2447 001a F5E7     		b	.L143
 2448              	.LVL248:
 2449              	.L145:
1478:Drivers/RTT/SEGGER_RTT.c ****   pRing = (SEGGER_RTT_BUFFER_DOWN*)((char*)&_SEGGER_RTT.aDown[0] + SEGGER_RTT_UNCACHED_OFF);  // Ac
 2450              		.loc 1 1478 3 is_stmt 0 discriminator 1 view .LVU720
 2451              	.LBE23:
1484:Drivers/RTT/SEGGER_RTT.c ****   }
 2452              		.loc 1 1484 7 view .LVU721
 2453 001c 0020     		movs	r0, #0
ARM GAS  C:\Users\seblo\AppData\Local\Temp\ccqImqhn.s 			page 75


 2454              	.LVL249:
1486:Drivers/RTT/SEGGER_RTT.c **** }
 2455              		.loc 1 1486 3 is_stmt 1 view .LVU722
1486:Drivers/RTT/SEGGER_RTT.c **** }
 2456              		.loc 1 1486 10 is_stmt 0 view .LVU723
 2457 001e F9E7     		b	.L142
 2458              	.L149:
 2459              		.align	2
 2460              	.L148:
 2461 0020 00000000 		.word	.LANCHOR1
 2462              		.cfi_endproc
 2463              	.LFE20:
 2465              		.section	.text.SEGGER_RTT_HasData,"ax",%progbits
 2466              		.align	1
 2467              		.global	SEGGER_RTT_HasData
 2468              		.syntax unified
 2469              		.thumb
 2470              		.thumb_func
 2471              		.fpu fpv5-sp-d16
 2473              	SEGGER_RTT_HasData:
 2474              	.LVL250:
 2475              	.LFB21:
1488:Drivers/RTT/SEGGER_RTT.c **** 
1489:Drivers/RTT/SEGGER_RTT.c **** /*********************************************************************
1490:Drivers/RTT/SEGGER_RTT.c **** *
1491:Drivers/RTT/SEGGER_RTT.c **** *       SEGGER_RTT_HasData
1492:Drivers/RTT/SEGGER_RTT.c **** *
1493:Drivers/RTT/SEGGER_RTT.c **** *  Function description
1494:Drivers/RTT/SEGGER_RTT.c **** *    Check if there is data from the host in the given buffer.
1495:Drivers/RTT/SEGGER_RTT.c **** *
1496:Drivers/RTT/SEGGER_RTT.c **** *  Return value:
1497:Drivers/RTT/SEGGER_RTT.c **** *  ==0:  No data
1498:Drivers/RTT/SEGGER_RTT.c **** *  !=0:  Data in buffer
1499:Drivers/RTT/SEGGER_RTT.c **** *
1500:Drivers/RTT/SEGGER_RTT.c **** */
1501:Drivers/RTT/SEGGER_RTT.c **** unsigned SEGGER_RTT_HasData(unsigned BufferIndex) {
 2476              		.loc 1 1501 51 is_stmt 1 view -0
 2477              		.cfi_startproc
 2478              		@ args = 0, pretend = 0, frame = 0
 2479              		@ frame_needed = 0, uses_anonymous_args = 0
 2480              		@ link register save eliminated.
1502:Drivers/RTT/SEGGER_RTT.c ****   SEGGER_RTT_BUFFER_DOWN* pRing;
 2481              		.loc 1 1502 3 view .LVU725
1503:Drivers/RTT/SEGGER_RTT.c ****   unsigned                v;
 2482              		.loc 1 1503 3 view .LVU726
1504:Drivers/RTT/SEGGER_RTT.c **** 
1505:Drivers/RTT/SEGGER_RTT.c ****   pRing = (SEGGER_RTT_BUFFER_DOWN*)((char*)&_SEGGER_RTT.aDown[BufferIndex] + SEGGER_RTT_UNCACHED_OF
 2483              		.loc 1 1505 3 view .LVU727
1506:Drivers/RTT/SEGGER_RTT.c ****   v = pRing->WrOff;
 2484              		.loc 1 1506 3 view .LVU728
 2485              		.loc 1 1506 5 is_stmt 0 view .LVU729
 2486 0000 064B     		ldr	r3, .L151
 2487 0002 00EB4002 		add	r2, r0, r0, lsl #1
 2488 0006 03EBC202 		add	r2, r3, r2, lsl #3
 2489 000a D26E     		ldr	r2, [r2, #108]
 2490              	.LVL251:
1507:Drivers/RTT/SEGGER_RTT.c ****   return v - pRing->RdOff;
ARM GAS  C:\Users\seblo\AppData\Local\Temp\ccqImqhn.s 			page 76


 2491              		.loc 1 1507 3 is_stmt 1 view .LVU730
 2492              		.loc 1 1507 19 is_stmt 0 view .LVU731
 2493 000c 00EB4000 		add	r0, r0, r0, lsl #1
 2494              	.LVL252:
 2495              		.loc 1 1507 19 view .LVU732
 2496 0010 03EBC000 		add	r0, r3, r0, lsl #3
 2497 0014 006F     		ldr	r0, [r0, #112]
1508:Drivers/RTT/SEGGER_RTT.c **** }
 2498              		.loc 1 1508 1 view .LVU733
 2499 0016 101A     		subs	r0, r2, r0
 2500 0018 7047     		bx	lr
 2501              	.L152:
 2502 001a 00BF     		.align	2
 2503              	.L151:
 2504 001c 00000000 		.word	.LANCHOR1
 2505              		.cfi_endproc
 2506              	.LFE21:
 2508              		.section	.text.SEGGER_RTT_HasDataUp,"ax",%progbits
 2509              		.align	1
 2510              		.global	SEGGER_RTT_HasDataUp
 2511              		.syntax unified
 2512              		.thumb
 2513              		.thumb_func
 2514              		.fpu fpv5-sp-d16
 2516              	SEGGER_RTT_HasDataUp:
 2517              	.LVL253:
 2518              	.LFB22:
1509:Drivers/RTT/SEGGER_RTT.c **** 
1510:Drivers/RTT/SEGGER_RTT.c **** /*********************************************************************
1511:Drivers/RTT/SEGGER_RTT.c **** *
1512:Drivers/RTT/SEGGER_RTT.c **** *       SEGGER_RTT_HasDataUp
1513:Drivers/RTT/SEGGER_RTT.c **** *
1514:Drivers/RTT/SEGGER_RTT.c **** *  Function description
1515:Drivers/RTT/SEGGER_RTT.c **** *    Check if there is data remaining to be sent in the given buffer.
1516:Drivers/RTT/SEGGER_RTT.c **** *
1517:Drivers/RTT/SEGGER_RTT.c **** *  Return value:
1518:Drivers/RTT/SEGGER_RTT.c **** *  ==0:  No data
1519:Drivers/RTT/SEGGER_RTT.c **** *  !=0:  Data in buffer
1520:Drivers/RTT/SEGGER_RTT.c **** *
1521:Drivers/RTT/SEGGER_RTT.c **** */
1522:Drivers/RTT/SEGGER_RTT.c **** unsigned SEGGER_RTT_HasDataUp(unsigned BufferIndex) {
 2519              		.loc 1 1522 53 is_stmt 1 view -0
 2520              		.cfi_startproc
 2521              		@ args = 0, pretend = 0, frame = 0
 2522              		@ frame_needed = 0, uses_anonymous_args = 0
 2523              		@ link register save eliminated.
1523:Drivers/RTT/SEGGER_RTT.c ****   SEGGER_RTT_BUFFER_UP* pRing;
 2524              		.loc 1 1523 3 view .LVU735
1524:Drivers/RTT/SEGGER_RTT.c ****   unsigned                v;
 2525              		.loc 1 1524 3 view .LVU736
1525:Drivers/RTT/SEGGER_RTT.c **** 
1526:Drivers/RTT/SEGGER_RTT.c ****   pRing = (SEGGER_RTT_BUFFER_UP*)((char*)&_SEGGER_RTT.aUp[BufferIndex] + SEGGER_RTT_UNCACHED_OFF); 
 2526              		.loc 1 1526 3 view .LVU737
1527:Drivers/RTT/SEGGER_RTT.c ****   v = pRing->RdOff;
 2527              		.loc 1 1527 3 view .LVU738
 2528              		.loc 1 1527 5 is_stmt 0 view .LVU739
 2529 0000 064B     		ldr	r3, .L154
ARM GAS  C:\Users\seblo\AppData\Local\Temp\ccqImqhn.s 			page 77


 2530 0002 00EB4002 		add	r2, r0, r0, lsl #1
 2531 0006 03EBC202 		add	r2, r3, r2, lsl #3
 2532 000a 926A     		ldr	r2, [r2, #40]
 2533              	.LVL254:
1528:Drivers/RTT/SEGGER_RTT.c ****   return pRing->WrOff - v;
 2534              		.loc 1 1528 3 is_stmt 1 view .LVU740
 2535              		.loc 1 1528 15 is_stmt 0 view .LVU741
 2536 000c 00EB4000 		add	r0, r0, r0, lsl #1
 2537              	.LVL255:
 2538              		.loc 1 1528 15 view .LVU742
 2539 0010 03EBC000 		add	r0, r3, r0, lsl #3
 2540 0014 406A     		ldr	r0, [r0, #36]
1529:Drivers/RTT/SEGGER_RTT.c **** }
 2541              		.loc 1 1529 1 view .LVU743
 2542 0016 801A     		subs	r0, r0, r2
 2543 0018 7047     		bx	lr
 2544              	.L155:
 2545 001a 00BF     		.align	2
 2546              	.L154:
 2547 001c 00000000 		.word	.LANCHOR1
 2548              		.cfi_endproc
 2549              	.LFE22:
 2551              		.section	.text.SEGGER_RTT_AllocDownBuffer,"ax",%progbits
 2552              		.align	1
 2553              		.global	SEGGER_RTT_AllocDownBuffer
 2554              		.syntax unified
 2555              		.thumb
 2556              		.thumb_func
 2557              		.fpu fpv5-sp-d16
 2559              	SEGGER_RTT_AllocDownBuffer:
 2560              	.LVL256:
 2561              	.LFB23:
1530:Drivers/RTT/SEGGER_RTT.c **** 
1531:Drivers/RTT/SEGGER_RTT.c **** /*********************************************************************
1532:Drivers/RTT/SEGGER_RTT.c **** *
1533:Drivers/RTT/SEGGER_RTT.c **** *       SEGGER_RTT_AllocDownBuffer
1534:Drivers/RTT/SEGGER_RTT.c **** *
1535:Drivers/RTT/SEGGER_RTT.c **** *  Function description
1536:Drivers/RTT/SEGGER_RTT.c **** *    Run-time configuration of the next down-buffer (H->T).
1537:Drivers/RTT/SEGGER_RTT.c **** *    The next buffer, which is not used yet is configured.
1538:Drivers/RTT/SEGGER_RTT.c **** *    This includes: Buffer address, size, name, flags, ...
1539:Drivers/RTT/SEGGER_RTT.c **** *
1540:Drivers/RTT/SEGGER_RTT.c **** *  Parameters
1541:Drivers/RTT/SEGGER_RTT.c **** *    sName        Pointer to a constant name string.
1542:Drivers/RTT/SEGGER_RTT.c **** *    pBuffer      Pointer to a buffer to be used.
1543:Drivers/RTT/SEGGER_RTT.c **** *    BufferSize   Size of the buffer.
1544:Drivers/RTT/SEGGER_RTT.c **** *    Flags        Operating modes. Define behavior if buffer is full (not enough space for entire m
1545:Drivers/RTT/SEGGER_RTT.c **** *
1546:Drivers/RTT/SEGGER_RTT.c **** *  Return value
1547:Drivers/RTT/SEGGER_RTT.c **** *    >= 0 - O.K. Buffer Index
1548:Drivers/RTT/SEGGER_RTT.c **** *     < 0 - Error
1549:Drivers/RTT/SEGGER_RTT.c **** */
1550:Drivers/RTT/SEGGER_RTT.c **** int SEGGER_RTT_AllocDownBuffer(const char* sName, void* pBuffer, unsigned BufferSize, unsigned Flag
 2562              		.loc 1 1550 103 is_stmt 1 view -0
 2563              		.cfi_startproc
 2564              		@ args = 0, pretend = 0, frame = 0
 2565              		@ frame_needed = 0, uses_anonymous_args = 0
ARM GAS  C:\Users\seblo\AppData\Local\Temp\ccqImqhn.s 			page 78


 2566              		.loc 1 1550 103 is_stmt 0 view .LVU745
 2567 0000 2DE9F041 		push	{r4, r5, r6, r7, r8, lr}
 2568              	.LCFI26:
 2569              		.cfi_def_cfa_offset 24
 2570              		.cfi_offset 4, -24
 2571              		.cfi_offset 5, -20
 2572              		.cfi_offset 6, -16
 2573              		.cfi_offset 7, -12
 2574              		.cfi_offset 8, -8
 2575              		.cfi_offset 14, -4
 2576 0004 8046     		mov	r8, r0
 2577 0006 0F46     		mov	r7, r1
 2578 0008 1646     		mov	r6, r2
 2579 000a 1D46     		mov	r5, r3
1551:Drivers/RTT/SEGGER_RTT.c ****   int BufferIndex;
 2580              		.loc 1 1551 3 is_stmt 1 view .LVU746
1552:Drivers/RTT/SEGGER_RTT.c ****   volatile SEGGER_RTT_CB* pRTTCB;
 2581              		.loc 1 1552 3 view .LVU747
 2582              	.LBB24:
1553:Drivers/RTT/SEGGER_RTT.c **** 
1554:Drivers/RTT/SEGGER_RTT.c ****   INIT();
 2583              		.loc 1 1554 3 view .LVU748
 2584              		.loc 1 1554 3 view .LVU749
 2585              	.LVL257:
 2586              		.loc 1 1554 3 view .LVU750
 2587              		.loc 1 1554 3 view .LVU751
 2588 000c 194B     		ldr	r3, .L164
 2589              	.LVL258:
 2590              		.loc 1 1554 3 is_stmt 0 view .LVU752
 2591 000e 1B78     		ldrb	r3, [r3]	@ zero_extendqisi2
 2592 0010 4BB3     		cbz	r3, .L163
 2593              	.LVL259:
 2594              	.L157:
 2595              		.loc 1 1554 3 is_stmt 1 discriminator 3 view .LVU753
 2596              	.LBE24:
 2597              		.loc 1 1554 9 discriminator 3 view .LVU754
 2598              	.LBB25:
1555:Drivers/RTT/SEGGER_RTT.c ****   SEGGER_RTT_LOCK();
 2599              		.loc 1 1555 3 discriminator 3 view .LVU755
 2600              		.loc 1 1555 3 discriminator 3 view .LVU756
 2601              		.syntax unified
 2602              	@ 1555 "Drivers/RTT/SEGGER_RTT.c" 1
 2603 0012 EFF31182 		mrs   r2, basepri  
 2604 0016 4FF02001 		mov   r1, #32       
 2605 001a 81F31188 		msr   basepri, r1  
 2606              		
 2607              	@ 0 "" 2
 2608              	.LVL260:
 2609              		.loc 1 1555 20 discriminator 3 view .LVU757
1556:Drivers/RTT/SEGGER_RTT.c ****   pRTTCB = (volatile SEGGER_RTT_CB*)((unsigned char*)&_SEGGER_RTT + SEGGER_RTT_UNCACHED_OFF);  // A
 2610              		.loc 1 1556 3 discriminator 3 view .LVU758
1557:Drivers/RTT/SEGGER_RTT.c ****   BufferIndex = 0;
 2611              		.loc 1 1557 3 discriminator 3 view .LVU759
 2612              		.loc 1 1557 15 is_stmt 0 discriminator 3 view .LVU760
 2613              		.thumb
 2614              		.syntax unified
 2615 001e 0020     		movs	r0, #0
ARM GAS  C:\Users\seblo\AppData\Local\Temp\ccqImqhn.s 			page 79


 2616              	.LVL261:
 2617              	.L159:
1558:Drivers/RTT/SEGGER_RTT.c ****   do {
 2618              		.loc 1 1558 3 is_stmt 1 view .LVU761
1559:Drivers/RTT/SEGGER_RTT.c ****     if (pRTTCB->aDown[BufferIndex].pBuffer == NULL) {
 2619              		.loc 1 1559 5 view .LVU762
 2620              		.loc 1 1559 35 is_stmt 0 view .LVU763
 2621 0020 00EB400C 		add	ip, r0, r0, lsl #1
 2622 0024 134C     		ldr	r4, .L164
 2623 0026 04EBCC0C 		add	ip, r4, ip, lsl #3
 2624 002a DCF86430 		ldr	r3, [ip, #100]
 2625              		.loc 1 1559 8 view .LVU764
 2626 002e 1BB1     		cbz	r3, .L158
1560:Drivers/RTT/SEGGER_RTT.c ****       break;
1561:Drivers/RTT/SEGGER_RTT.c ****     }
1562:Drivers/RTT/SEGGER_RTT.c ****     BufferIndex++;
 2627              		.loc 1 1562 5 is_stmt 1 view .LVU765
 2628              		.loc 1 1562 16 is_stmt 0 view .LVU766
 2629 0030 0130     		adds	r0, r0, #1
 2630              	.LVL262:
1563:Drivers/RTT/SEGGER_RTT.c ****   } while (BufferIndex < pRTTCB->MaxNumDownBuffers);
 2631              		.loc 1 1563 11 is_stmt 1 view .LVU767
 2632              		.loc 1 1563 32 is_stmt 0 view .LVU768
 2633 0032 6369     		ldr	r3, [r4, #20]
 2634              		.loc 1 1563 3 view .LVU769
 2635 0034 8342     		cmp	r3, r0
 2636 0036 F3DC     		bgt	.L159
 2637              	.L158:
1564:Drivers/RTT/SEGGER_RTT.c ****   if (BufferIndex < pRTTCB->MaxNumDownBuffers) {
 2638              		.loc 1 1564 3 is_stmt 1 view .LVU770
 2639              		.loc 1 1564 27 is_stmt 0 view .LVU771
 2640 0038 0E4B     		ldr	r3, .L164
 2641 003a 5B69     		ldr	r3, [r3, #20]
 2642              		.loc 1 1564 6 view .LVU772
 2643 003c 8342     		cmp	r3, r0
 2644 003e 15DD     		ble	.L161
1565:Drivers/RTT/SEGGER_RTT.c ****     pRTTCB->aDown[BufferIndex].sName        = sName;
 2645              		.loc 1 1565 5 is_stmt 1 view .LVU773
 2646              		.loc 1 1565 45 is_stmt 0 view .LVU774
 2647 0040 00EB4003 		add	r3, r0, r0, lsl #1
 2648 0044 0B49     		ldr	r1, .L164
 2649 0046 01EBC303 		add	r3, r1, r3, lsl #3
 2650 004a C3F86080 		str	r8, [r3, #96]
1566:Drivers/RTT/SEGGER_RTT.c ****     pRTTCB->aDown[BufferIndex].pBuffer      = (char*)pBuffer;
 2651              		.loc 1 1566 5 is_stmt 1 view .LVU775
 2652              		.loc 1 1566 45 is_stmt 0 view .LVU776
 2653 004e 5F66     		str	r7, [r3, #100]
1567:Drivers/RTT/SEGGER_RTT.c ****     pRTTCB->aDown[BufferIndex].SizeOfBuffer = BufferSize;
 2654              		.loc 1 1567 5 is_stmt 1 view .LVU777
 2655              		.loc 1 1567 45 is_stmt 0 view .LVU778
 2656 0050 9E66     		str	r6, [r3, #104]
1568:Drivers/RTT/SEGGER_RTT.c ****     pRTTCB->aDown[BufferIndex].RdOff        = 0u;
 2657              		.loc 1 1568 5 is_stmt 1 view .LVU779
 2658              		.loc 1 1568 45 is_stmt 0 view .LVU780
 2659 0052 0021     		movs	r1, #0
 2660 0054 1967     		str	r1, [r3, #112]
1569:Drivers/RTT/SEGGER_RTT.c ****     pRTTCB->aDown[BufferIndex].WrOff        = 0u;
ARM GAS  C:\Users\seblo\AppData\Local\Temp\ccqImqhn.s 			page 80


 2661              		.loc 1 1569 5 is_stmt 1 view .LVU781
 2662              		.loc 1 1569 45 is_stmt 0 view .LVU782
 2663 0056 D966     		str	r1, [r3, #108]
1570:Drivers/RTT/SEGGER_RTT.c ****     pRTTCB->aDown[BufferIndex].Flags        = Flags;
 2664              		.loc 1 1570 5 is_stmt 1 view .LVU783
 2665              		.loc 1 1570 45 is_stmt 0 view .LVU784
 2666 0058 5D67     		str	r5, [r3, #116]
1571:Drivers/RTT/SEGGER_RTT.c ****     RTT__DMB();                     // Force data write to be complete before writing the <WrOff>, 
 2667              		.loc 1 1571 5 is_stmt 1 view .LVU785
 2668              		.syntax unified
 2669              	@ 1571 "Drivers/RTT/SEGGER_RTT.c" 1
 2670 005a BFF35F8F 		dmb
 2671              	
 2672              	@ 0 "" 2
 2673              		.loc 1 1571 15 view .LVU786
 2674              	.LVL263:
 2675              		.thumb
 2676              		.syntax unified
 2677              	.L160:
1572:Drivers/RTT/SEGGER_RTT.c ****   } else {
1573:Drivers/RTT/SEGGER_RTT.c ****     BufferIndex = -1;
1574:Drivers/RTT/SEGGER_RTT.c ****   }
1575:Drivers/RTT/SEGGER_RTT.c ****   SEGGER_RTT_UNLOCK();
 2678              		.loc 1 1575 3 view .LVU787
 2679              		.syntax unified
 2680              	@ 1575 "Drivers/RTT/SEGGER_RTT.c" 1
 2681 005e 82F31188 		msr   basepri, r2  
 2682              		
 2683              	@ 0 "" 2
 2684              		.thumb
 2685              		.syntax unified
 2686              	.LBE25:
 2687              		.loc 1 1575 22 view .LVU788
1576:Drivers/RTT/SEGGER_RTT.c ****   return BufferIndex;
 2688              		.loc 1 1576 3 view .LVU789
1577:Drivers/RTT/SEGGER_RTT.c **** }
 2689              		.loc 1 1577 1 is_stmt 0 view .LVU790
 2690 0062 BDE8F081 		pop	{r4, r5, r6, r7, r8, pc}
 2691              	.LVL264:
 2692              	.L163:
 2693              	.LBB26:
1554:Drivers/RTT/SEGGER_RTT.c ****   SEGGER_RTT_LOCK();
 2694              		.loc 1 1554 3 is_stmt 1 discriminator 1 view .LVU791
 2695 0066 FFF7FEFF 		bl	_DoInit
 2696              	.LVL265:
1554:Drivers/RTT/SEGGER_RTT.c ****   SEGGER_RTT_LOCK();
 2697              		.loc 1 1554 3 is_stmt 0 discriminator 1 view .LVU792
 2698 006a D2E7     		b	.L157
 2699              	.LVL266:
 2700              	.L161:
1554:Drivers/RTT/SEGGER_RTT.c ****   SEGGER_RTT_LOCK();
 2701              		.loc 1 1554 3 discriminator 1 view .LVU793
 2702              	.LBE26:
 2703              	.LBB27:
1573:Drivers/RTT/SEGGER_RTT.c ****   }
 2704              		.loc 1 1573 17 view .LVU794
 2705 006c 4FF0FF30 		mov	r0, #-1
ARM GAS  C:\Users\seblo\AppData\Local\Temp\ccqImqhn.s 			page 81


 2706              	.LVL267:
1573:Drivers/RTT/SEGGER_RTT.c ****   }
 2707              		.loc 1 1573 17 view .LVU795
 2708 0070 F5E7     		b	.L160
 2709              	.L165:
 2710 0072 00BF     		.align	2
 2711              	.L164:
 2712 0074 00000000 		.word	.LANCHOR1
 2713              	.LBE27:
 2714              		.cfi_endproc
 2715              	.LFE23:
 2717              		.section	.text.SEGGER_RTT_AllocUpBuffer,"ax",%progbits
 2718              		.align	1
 2719              		.global	SEGGER_RTT_AllocUpBuffer
 2720              		.syntax unified
 2721              		.thumb
 2722              		.thumb_func
 2723              		.fpu fpv5-sp-d16
 2725              	SEGGER_RTT_AllocUpBuffer:
 2726              	.LVL268:
 2727              	.LFB24:
1578:Drivers/RTT/SEGGER_RTT.c **** 
1579:Drivers/RTT/SEGGER_RTT.c **** /*********************************************************************
1580:Drivers/RTT/SEGGER_RTT.c **** *
1581:Drivers/RTT/SEGGER_RTT.c **** *       SEGGER_RTT_AllocUpBuffer
1582:Drivers/RTT/SEGGER_RTT.c **** *
1583:Drivers/RTT/SEGGER_RTT.c **** *  Function description
1584:Drivers/RTT/SEGGER_RTT.c **** *    Run-time configuration of the next up-buffer (T->H).
1585:Drivers/RTT/SEGGER_RTT.c **** *    The next buffer, which is not used yet is configured.
1586:Drivers/RTT/SEGGER_RTT.c **** *    This includes: Buffer address, size, name, flags, ...
1587:Drivers/RTT/SEGGER_RTT.c **** *
1588:Drivers/RTT/SEGGER_RTT.c **** *  Parameters
1589:Drivers/RTT/SEGGER_RTT.c **** *    sName        Pointer to a constant name string.
1590:Drivers/RTT/SEGGER_RTT.c **** *    pBuffer      Pointer to a buffer to be used.
1591:Drivers/RTT/SEGGER_RTT.c **** *    BufferSize   Size of the buffer.
1592:Drivers/RTT/SEGGER_RTT.c **** *    Flags        Operating modes. Define behavior if buffer is full (not enough space for entire m
1593:Drivers/RTT/SEGGER_RTT.c **** *
1594:Drivers/RTT/SEGGER_RTT.c **** *  Return value
1595:Drivers/RTT/SEGGER_RTT.c **** *    >= 0 - O.K. Buffer Index
1596:Drivers/RTT/SEGGER_RTT.c **** *     < 0 - Error
1597:Drivers/RTT/SEGGER_RTT.c **** */
1598:Drivers/RTT/SEGGER_RTT.c **** int SEGGER_RTT_AllocUpBuffer(const char* sName, void* pBuffer, unsigned BufferSize, unsigned Flags)
 2728              		.loc 1 1598 101 is_stmt 1 view -0
 2729              		.cfi_startproc
 2730              		@ args = 0, pretend = 0, frame = 0
 2731              		@ frame_needed = 0, uses_anonymous_args = 0
 2732              		.loc 1 1598 101 is_stmt 0 view .LVU797
 2733 0000 F8B5     		push	{r3, r4, r5, r6, r7, lr}
 2734              	.LCFI27:
 2735              		.cfi_def_cfa_offset 24
 2736              		.cfi_offset 3, -24
 2737              		.cfi_offset 4, -20
 2738              		.cfi_offset 5, -16
 2739              		.cfi_offset 6, -12
 2740              		.cfi_offset 7, -8
 2741              		.cfi_offset 14, -4
 2742 0002 0746     		mov	r7, r0
ARM GAS  C:\Users\seblo\AppData\Local\Temp\ccqImqhn.s 			page 82


 2743 0004 0E46     		mov	r6, r1
 2744 0006 1546     		mov	r5, r2
 2745 0008 1C46     		mov	r4, r3
1599:Drivers/RTT/SEGGER_RTT.c ****   int BufferIndex;
 2746              		.loc 1 1599 3 is_stmt 1 view .LVU798
1600:Drivers/RTT/SEGGER_RTT.c ****   volatile SEGGER_RTT_CB* pRTTCB;
 2747              		.loc 1 1600 3 view .LVU799
 2748              	.LBB28:
1601:Drivers/RTT/SEGGER_RTT.c **** 
1602:Drivers/RTT/SEGGER_RTT.c ****   INIT();
 2749              		.loc 1 1602 3 view .LVU800
 2750              		.loc 1 1602 3 view .LVU801
 2751              	.LVL269:
 2752              		.loc 1 1602 3 view .LVU802
 2753              		.loc 1 1602 3 view .LVU803
 2754 000a 1F4B     		ldr	r3, .L174
 2755              	.LVL270:
 2756              		.loc 1 1602 3 is_stmt 0 view .LVU804
 2757 000c 1B78     		ldrb	r3, [r3]	@ zero_extendqisi2
 2758 000e 002B     		cmp	r3, #0
 2759 0010 34D0     		beq	.L173
 2760              	.LVL271:
 2761              	.L167:
 2762              		.loc 1 1602 3 is_stmt 1 discriminator 3 view .LVU805
 2763              	.LBE28:
 2764              		.loc 1 1602 9 discriminator 3 view .LVU806
 2765              	.LBB29:
1603:Drivers/RTT/SEGGER_RTT.c ****   SEGGER_RTT_LOCK();
 2766              		.loc 1 1603 3 discriminator 3 view .LVU807
 2767              		.loc 1 1603 3 discriminator 3 view .LVU808
 2768              		.syntax unified
 2769              	@ 1603 "Drivers/RTT/SEGGER_RTT.c" 1
 2770 0012 EFF31182 		mrs   r2, basepri  
 2771 0016 4FF02001 		mov   r1, #32       
 2772 001a 81F31188 		msr   basepri, r1  
 2773              		
 2774              	@ 0 "" 2
 2775              	.LVL272:
 2776              		.loc 1 1603 20 discriminator 3 view .LVU809
1604:Drivers/RTT/SEGGER_RTT.c ****   pRTTCB = (volatile SEGGER_RTT_CB*)((unsigned char*)&_SEGGER_RTT + SEGGER_RTT_UNCACHED_OFF);  // A
 2777              		.loc 1 1604 3 discriminator 3 view .LVU810
1605:Drivers/RTT/SEGGER_RTT.c ****   BufferIndex = 0;
 2778              		.loc 1 1605 3 discriminator 3 view .LVU811
 2779              		.loc 1 1605 15 is_stmt 0 discriminator 3 view .LVU812
 2780              		.thumb
 2781              		.syntax unified
 2782 001e 0020     		movs	r0, #0
 2783              	.LVL273:
 2784              	.L169:
1606:Drivers/RTT/SEGGER_RTT.c ****   do {
 2785              		.loc 1 1606 3 is_stmt 1 view .LVU813
1607:Drivers/RTT/SEGGER_RTT.c ****     if (pRTTCB->aUp[BufferIndex].pBuffer == NULL) {
 2786              		.loc 1 1607 5 view .LVU814
 2787              		.loc 1 1607 33 is_stmt 0 view .LVU815
 2788 0020 00F1010C 		add	ip, r0, #1
 2789 0024 0CEB4C0C 		add	ip, ip, ip, lsl #1
 2790 0028 174B     		ldr	r3, .L174
ARM GAS  C:\Users\seblo\AppData\Local\Temp\ccqImqhn.s 			page 83


 2791 002a 03EBCC0C 		add	ip, r3, ip, lsl #3
 2792 002e DCF80430 		ldr	r3, [ip, #4]
