ARM GAS  C:\Users\seblo\AppData\Local\Temp\ccHEsOvX.s 			page 1


   1              		.cpu cortex-m7
   2              		.eabi_attribute 27, 1
   3              		.eabi_attribute 28, 1
   4              		.eabi_attribute 20, 1
   5              		.eabi_attribute 21, 1
   6              		.eabi_attribute 23, 3
   7              		.eabi_attribute 24, 1
   8              		.eabi_attribute 25, 1
   9              		.eabi_attribute 26, 1
  10              		.eabi_attribute 30, 1
  11              		.eabi_attribute 34, 1
  12              		.eabi_attribute 18, 4
  13              		.file	"stm32f7xx_hal_hcd.c"
  14              		.text
  15              	.Ltext0:
  16              		.cfi_sections	.debug_frame
  17              		.section	.text.HCD_RXQLVL_IRQHandler,"ax",%progbits
  18              		.align	1
  19              		.arch armv7e-m
  20              		.syntax unified
  21              		.thumb
  22              		.thumb_func
  23              		.fpu fpv5-sp-d16
  25              	HCD_RXQLVL_IRQHandler:
  26              	.LVL0:
  27              	.LFB166:
  28              		.file 1 "Drivers/STM32F7xx_HAL_Driver/Src/stm32f7xx_hal_hcd.c"
   1:Drivers/STM32F7xx_HAL_Driver/Src/stm32f7xx_hal_hcd.c **** /**
   2:Drivers/STM32F7xx_HAL_Driver/Src/stm32f7xx_hal_hcd.c ****   ******************************************************************************
   3:Drivers/STM32F7xx_HAL_Driver/Src/stm32f7xx_hal_hcd.c ****   * @file    stm32f7xx_hal_hcd.c
   4:Drivers/STM32F7xx_HAL_Driver/Src/stm32f7xx_hal_hcd.c ****   * @author  MCD Application Team
   5:Drivers/STM32F7xx_HAL_Driver/Src/stm32f7xx_hal_hcd.c ****   * @brief   HCD HAL module driver.
   6:Drivers/STM32F7xx_HAL_Driver/Src/stm32f7xx_hal_hcd.c ****   *          This file provides firmware functions to manage the following
   7:Drivers/STM32F7xx_HAL_Driver/Src/stm32f7xx_hal_hcd.c ****   *          functionalities of the USB Peripheral Controller:
   8:Drivers/STM32F7xx_HAL_Driver/Src/stm32f7xx_hal_hcd.c ****   *           + Initialization and de-initialization functions
   9:Drivers/STM32F7xx_HAL_Driver/Src/stm32f7xx_hal_hcd.c ****   *           + IO operation functions
  10:Drivers/STM32F7xx_HAL_Driver/Src/stm32f7xx_hal_hcd.c ****   *           + Peripheral Control functions
  11:Drivers/STM32F7xx_HAL_Driver/Src/stm32f7xx_hal_hcd.c ****   *           + Peripheral State functions
  12:Drivers/STM32F7xx_HAL_Driver/Src/stm32f7xx_hal_hcd.c ****   *
  13:Drivers/STM32F7xx_HAL_Driver/Src/stm32f7xx_hal_hcd.c ****   @verbatim
  14:Drivers/STM32F7xx_HAL_Driver/Src/stm32f7xx_hal_hcd.c ****   ==============================================================================
  15:Drivers/STM32F7xx_HAL_Driver/Src/stm32f7xx_hal_hcd.c ****                     ##### How to use this driver #####
  16:Drivers/STM32F7xx_HAL_Driver/Src/stm32f7xx_hal_hcd.c ****   ==============================================================================
  17:Drivers/STM32F7xx_HAL_Driver/Src/stm32f7xx_hal_hcd.c ****   [..]
  18:Drivers/STM32F7xx_HAL_Driver/Src/stm32f7xx_hal_hcd.c ****     (#)Declare a HCD_HandleTypeDef handle structure, for example:
  19:Drivers/STM32F7xx_HAL_Driver/Src/stm32f7xx_hal_hcd.c ****        HCD_HandleTypeDef  hhcd;
  20:Drivers/STM32F7xx_HAL_Driver/Src/stm32f7xx_hal_hcd.c **** 
  21:Drivers/STM32F7xx_HAL_Driver/Src/stm32f7xx_hal_hcd.c ****     (#)Fill parameters of Init structure in HCD handle
  22:Drivers/STM32F7xx_HAL_Driver/Src/stm32f7xx_hal_hcd.c **** 
  23:Drivers/STM32F7xx_HAL_Driver/Src/stm32f7xx_hal_hcd.c ****     (#)Call HAL_HCD_Init() API to initialize the HCD peripheral (Core, Host core, ...)
  24:Drivers/STM32F7xx_HAL_Driver/Src/stm32f7xx_hal_hcd.c **** 
  25:Drivers/STM32F7xx_HAL_Driver/Src/stm32f7xx_hal_hcd.c ****     (#)Initialize the HCD low level resources through the HAL_HCD_MspInit() API:
  26:Drivers/STM32F7xx_HAL_Driver/Src/stm32f7xx_hal_hcd.c ****         (##) Enable the HCD/USB Low Level interface clock using the following macros
  27:Drivers/STM32F7xx_HAL_Driver/Src/stm32f7xx_hal_hcd.c ****              (+++) __HAL_RCC_USB_OTG_FS_CLK_ENABLE();
  28:Drivers/STM32F7xx_HAL_Driver/Src/stm32f7xx_hal_hcd.c ****              (+++) __HAL_RCC_USB_OTG_HS_CLK_ENABLE(); (For High Speed Mode)
  29:Drivers/STM32F7xx_HAL_Driver/Src/stm32f7xx_hal_hcd.c ****              (+++) __HAL_RCC_USB_OTG_HS_ULPI_CLK_ENABLE(); (For High Speed Mode)
  30:Drivers/STM32F7xx_HAL_Driver/Src/stm32f7xx_hal_hcd.c **** 
ARM GAS  C:\Users\seblo\AppData\Local\Temp\ccHEsOvX.s 			page 2


  31:Drivers/STM32F7xx_HAL_Driver/Src/stm32f7xx_hal_hcd.c ****         (##) Initialize the related GPIO clocks
  32:Drivers/STM32F7xx_HAL_Driver/Src/stm32f7xx_hal_hcd.c ****         (##) Configure HCD pin-out
  33:Drivers/STM32F7xx_HAL_Driver/Src/stm32f7xx_hal_hcd.c ****         (##) Configure HCD NVIC interrupt
  34:Drivers/STM32F7xx_HAL_Driver/Src/stm32f7xx_hal_hcd.c **** 
  35:Drivers/STM32F7xx_HAL_Driver/Src/stm32f7xx_hal_hcd.c ****     (#)Associate the Upper USB Host stack to the HAL HCD Driver:
  36:Drivers/STM32F7xx_HAL_Driver/Src/stm32f7xx_hal_hcd.c ****         (##) hhcd.pData = phost;
  37:Drivers/STM32F7xx_HAL_Driver/Src/stm32f7xx_hal_hcd.c **** 
  38:Drivers/STM32F7xx_HAL_Driver/Src/stm32f7xx_hal_hcd.c ****     (#)Enable HCD transmission and reception:
  39:Drivers/STM32F7xx_HAL_Driver/Src/stm32f7xx_hal_hcd.c ****         (##) HAL_HCD_Start();
  40:Drivers/STM32F7xx_HAL_Driver/Src/stm32f7xx_hal_hcd.c **** 
  41:Drivers/STM32F7xx_HAL_Driver/Src/stm32f7xx_hal_hcd.c ****   @endverbatim
  42:Drivers/STM32F7xx_HAL_Driver/Src/stm32f7xx_hal_hcd.c ****   ******************************************************************************
  43:Drivers/STM32F7xx_HAL_Driver/Src/stm32f7xx_hal_hcd.c ****   * @attention
  44:Drivers/STM32F7xx_HAL_Driver/Src/stm32f7xx_hal_hcd.c ****   *
  45:Drivers/STM32F7xx_HAL_Driver/Src/stm32f7xx_hal_hcd.c ****   * <h2><center>&copy; Copyright (c) 2017 STMicroelectronics.
  46:Drivers/STM32F7xx_HAL_Driver/Src/stm32f7xx_hal_hcd.c ****   * All rights reserved.</center></h2>
  47:Drivers/STM32F7xx_HAL_Driver/Src/stm32f7xx_hal_hcd.c ****   *
  48:Drivers/STM32F7xx_HAL_Driver/Src/stm32f7xx_hal_hcd.c ****   * This software component is licensed by ST under BSD 3-Clause license,
  49:Drivers/STM32F7xx_HAL_Driver/Src/stm32f7xx_hal_hcd.c ****   * the "License"; You may not use this file except in compliance with the
  50:Drivers/STM32F7xx_HAL_Driver/Src/stm32f7xx_hal_hcd.c ****   * License. You may obtain a copy of the License at:
  51:Drivers/STM32F7xx_HAL_Driver/Src/stm32f7xx_hal_hcd.c ****   *                        opensource.org/licenses/BSD-3-Clause
  52:Drivers/STM32F7xx_HAL_Driver/Src/stm32f7xx_hal_hcd.c ****   *
  53:Drivers/STM32F7xx_HAL_Driver/Src/stm32f7xx_hal_hcd.c ****   ******************************************************************************
  54:Drivers/STM32F7xx_HAL_Driver/Src/stm32f7xx_hal_hcd.c ****   */
  55:Drivers/STM32F7xx_HAL_Driver/Src/stm32f7xx_hal_hcd.c **** 
  56:Drivers/STM32F7xx_HAL_Driver/Src/stm32f7xx_hal_hcd.c **** /* Includes ------------------------------------------------------------------*/
  57:Drivers/STM32F7xx_HAL_Driver/Src/stm32f7xx_hal_hcd.c **** #include "stm32f7xx_hal.h"
  58:Drivers/STM32F7xx_HAL_Driver/Src/stm32f7xx_hal_hcd.c **** 
  59:Drivers/STM32F7xx_HAL_Driver/Src/stm32f7xx_hal_hcd.c **** /** @addtogroup STM32F7xx_HAL_Driver
  60:Drivers/STM32F7xx_HAL_Driver/Src/stm32f7xx_hal_hcd.c ****   * @{
  61:Drivers/STM32F7xx_HAL_Driver/Src/stm32f7xx_hal_hcd.c ****   */
  62:Drivers/STM32F7xx_HAL_Driver/Src/stm32f7xx_hal_hcd.c **** 
  63:Drivers/STM32F7xx_HAL_Driver/Src/stm32f7xx_hal_hcd.c **** #ifdef HAL_HCD_MODULE_ENABLED
  64:Drivers/STM32F7xx_HAL_Driver/Src/stm32f7xx_hal_hcd.c **** 
  65:Drivers/STM32F7xx_HAL_Driver/Src/stm32f7xx_hal_hcd.c **** #if defined (USB_OTG_FS) || defined (USB_OTG_HS)
  66:Drivers/STM32F7xx_HAL_Driver/Src/stm32f7xx_hal_hcd.c **** 
  67:Drivers/STM32F7xx_HAL_Driver/Src/stm32f7xx_hal_hcd.c **** /** @defgroup HCD HCD
  68:Drivers/STM32F7xx_HAL_Driver/Src/stm32f7xx_hal_hcd.c ****   * @brief HCD HAL module driver
  69:Drivers/STM32F7xx_HAL_Driver/Src/stm32f7xx_hal_hcd.c ****   * @{
  70:Drivers/STM32F7xx_HAL_Driver/Src/stm32f7xx_hal_hcd.c ****   */
  71:Drivers/STM32F7xx_HAL_Driver/Src/stm32f7xx_hal_hcd.c **** 
  72:Drivers/STM32F7xx_HAL_Driver/Src/stm32f7xx_hal_hcd.c **** /* Private typedef -----------------------------------------------------------*/
  73:Drivers/STM32F7xx_HAL_Driver/Src/stm32f7xx_hal_hcd.c **** /* Private define ------------------------------------------------------------*/
  74:Drivers/STM32F7xx_HAL_Driver/Src/stm32f7xx_hal_hcd.c **** /* Private macro -------------------------------------------------------------*/
  75:Drivers/STM32F7xx_HAL_Driver/Src/stm32f7xx_hal_hcd.c **** /* Private variables ---------------------------------------------------------*/
  76:Drivers/STM32F7xx_HAL_Driver/Src/stm32f7xx_hal_hcd.c **** /* Private function prototypes -----------------------------------------------*/
  77:Drivers/STM32F7xx_HAL_Driver/Src/stm32f7xx_hal_hcd.c **** /** @defgroup HCD_Private_Functions HCD Private Functions
  78:Drivers/STM32F7xx_HAL_Driver/Src/stm32f7xx_hal_hcd.c ****   * @{
  79:Drivers/STM32F7xx_HAL_Driver/Src/stm32f7xx_hal_hcd.c ****   */
  80:Drivers/STM32F7xx_HAL_Driver/Src/stm32f7xx_hal_hcd.c **** static void HCD_HC_IN_IRQHandler(HCD_HandleTypeDef *hhcd, uint8_t chnum);
  81:Drivers/STM32F7xx_HAL_Driver/Src/stm32f7xx_hal_hcd.c **** static void HCD_HC_OUT_IRQHandler(HCD_HandleTypeDef *hhcd, uint8_t chnum);
  82:Drivers/STM32F7xx_HAL_Driver/Src/stm32f7xx_hal_hcd.c **** static void HCD_RXQLVL_IRQHandler(HCD_HandleTypeDef *hhcd);
  83:Drivers/STM32F7xx_HAL_Driver/Src/stm32f7xx_hal_hcd.c **** static void HCD_Port_IRQHandler(HCD_HandleTypeDef *hhcd);
  84:Drivers/STM32F7xx_HAL_Driver/Src/stm32f7xx_hal_hcd.c **** /**
  85:Drivers/STM32F7xx_HAL_Driver/Src/stm32f7xx_hal_hcd.c ****   * @}
  86:Drivers/STM32F7xx_HAL_Driver/Src/stm32f7xx_hal_hcd.c ****   */
  87:Drivers/STM32F7xx_HAL_Driver/Src/stm32f7xx_hal_hcd.c **** 
ARM GAS  C:\Users\seblo\AppData\Local\Temp\ccHEsOvX.s 			page 3


  88:Drivers/STM32F7xx_HAL_Driver/Src/stm32f7xx_hal_hcd.c **** /* Exported functions --------------------------------------------------------*/
  89:Drivers/STM32F7xx_HAL_Driver/Src/stm32f7xx_hal_hcd.c **** /** @defgroup HCD_Exported_Functions HCD Exported Functions
  90:Drivers/STM32F7xx_HAL_Driver/Src/stm32f7xx_hal_hcd.c ****   * @{
  91:Drivers/STM32F7xx_HAL_Driver/Src/stm32f7xx_hal_hcd.c ****   */
  92:Drivers/STM32F7xx_HAL_Driver/Src/stm32f7xx_hal_hcd.c **** 
  93:Drivers/STM32F7xx_HAL_Driver/Src/stm32f7xx_hal_hcd.c **** /** @defgroup HCD_Exported_Functions_Group1 Initialization and de-initialization functions
  94:Drivers/STM32F7xx_HAL_Driver/Src/stm32f7xx_hal_hcd.c ****  *  @brief    Initialization and Configuration functions
  95:Drivers/STM32F7xx_HAL_Driver/Src/stm32f7xx_hal_hcd.c ****  *
  96:Drivers/STM32F7xx_HAL_Driver/Src/stm32f7xx_hal_hcd.c **** @verbatim
  97:Drivers/STM32F7xx_HAL_Driver/Src/stm32f7xx_hal_hcd.c ****  ===============================================================================
  98:Drivers/STM32F7xx_HAL_Driver/Src/stm32f7xx_hal_hcd.c ****           ##### Initialization and de-initialization functions #####
  99:Drivers/STM32F7xx_HAL_Driver/Src/stm32f7xx_hal_hcd.c ****  ===============================================================================
 100:Drivers/STM32F7xx_HAL_Driver/Src/stm32f7xx_hal_hcd.c ****     [..]  This section provides functions allowing to:
 101:Drivers/STM32F7xx_HAL_Driver/Src/stm32f7xx_hal_hcd.c **** 
 102:Drivers/STM32F7xx_HAL_Driver/Src/stm32f7xx_hal_hcd.c **** @endverbatim
 103:Drivers/STM32F7xx_HAL_Driver/Src/stm32f7xx_hal_hcd.c ****   * @{
 104:Drivers/STM32F7xx_HAL_Driver/Src/stm32f7xx_hal_hcd.c ****   */
 105:Drivers/STM32F7xx_HAL_Driver/Src/stm32f7xx_hal_hcd.c **** 
 106:Drivers/STM32F7xx_HAL_Driver/Src/stm32f7xx_hal_hcd.c **** /**
 107:Drivers/STM32F7xx_HAL_Driver/Src/stm32f7xx_hal_hcd.c ****   * @brief  Initialize the host driver.
 108:Drivers/STM32F7xx_HAL_Driver/Src/stm32f7xx_hal_hcd.c ****   * @param  hhcd HCD handle
 109:Drivers/STM32F7xx_HAL_Driver/Src/stm32f7xx_hal_hcd.c ****   * @retval HAL status
 110:Drivers/STM32F7xx_HAL_Driver/Src/stm32f7xx_hal_hcd.c ****   */
 111:Drivers/STM32F7xx_HAL_Driver/Src/stm32f7xx_hal_hcd.c **** HAL_StatusTypeDef HAL_HCD_Init(HCD_HandleTypeDef *hhcd)
 112:Drivers/STM32F7xx_HAL_Driver/Src/stm32f7xx_hal_hcd.c **** {
 113:Drivers/STM32F7xx_HAL_Driver/Src/stm32f7xx_hal_hcd.c ****   USB_OTG_GlobalTypeDef *USBx;
 114:Drivers/STM32F7xx_HAL_Driver/Src/stm32f7xx_hal_hcd.c **** 
 115:Drivers/STM32F7xx_HAL_Driver/Src/stm32f7xx_hal_hcd.c ****   /* Check the HCD handle allocation */
 116:Drivers/STM32F7xx_HAL_Driver/Src/stm32f7xx_hal_hcd.c ****   if (hhcd == NULL)
 117:Drivers/STM32F7xx_HAL_Driver/Src/stm32f7xx_hal_hcd.c ****   {
 118:Drivers/STM32F7xx_HAL_Driver/Src/stm32f7xx_hal_hcd.c ****     return HAL_ERROR;
 119:Drivers/STM32F7xx_HAL_Driver/Src/stm32f7xx_hal_hcd.c ****   }
 120:Drivers/STM32F7xx_HAL_Driver/Src/stm32f7xx_hal_hcd.c **** 
 121:Drivers/STM32F7xx_HAL_Driver/Src/stm32f7xx_hal_hcd.c ****   /* Check the parameters */
 122:Drivers/STM32F7xx_HAL_Driver/Src/stm32f7xx_hal_hcd.c ****   assert_param(IS_HCD_ALL_INSTANCE(hhcd->Instance));
 123:Drivers/STM32F7xx_HAL_Driver/Src/stm32f7xx_hal_hcd.c **** 
 124:Drivers/STM32F7xx_HAL_Driver/Src/stm32f7xx_hal_hcd.c ****   USBx = hhcd->Instance;
 125:Drivers/STM32F7xx_HAL_Driver/Src/stm32f7xx_hal_hcd.c **** 
 126:Drivers/STM32F7xx_HAL_Driver/Src/stm32f7xx_hal_hcd.c ****   if (hhcd->State == HAL_HCD_STATE_RESET)
 127:Drivers/STM32F7xx_HAL_Driver/Src/stm32f7xx_hal_hcd.c ****   {
 128:Drivers/STM32F7xx_HAL_Driver/Src/stm32f7xx_hal_hcd.c ****     /* Allocate lock resource and initialize it */
 129:Drivers/STM32F7xx_HAL_Driver/Src/stm32f7xx_hal_hcd.c ****     hhcd->Lock = HAL_UNLOCKED;
 130:Drivers/STM32F7xx_HAL_Driver/Src/stm32f7xx_hal_hcd.c **** 
 131:Drivers/STM32F7xx_HAL_Driver/Src/stm32f7xx_hal_hcd.c **** #if (USE_HAL_HCD_REGISTER_CALLBACKS == 1U)
 132:Drivers/STM32F7xx_HAL_Driver/Src/stm32f7xx_hal_hcd.c ****     hhcd->SOFCallback = HAL_HCD_SOF_Callback;
 133:Drivers/STM32F7xx_HAL_Driver/Src/stm32f7xx_hal_hcd.c ****     hhcd->ConnectCallback = HAL_HCD_Connect_Callback;
 134:Drivers/STM32F7xx_HAL_Driver/Src/stm32f7xx_hal_hcd.c ****     hhcd->DisconnectCallback = HAL_HCD_Disconnect_Callback;
 135:Drivers/STM32F7xx_HAL_Driver/Src/stm32f7xx_hal_hcd.c ****     hhcd->PortEnabledCallback = HAL_HCD_PortEnabled_Callback;
 136:Drivers/STM32F7xx_HAL_Driver/Src/stm32f7xx_hal_hcd.c ****     hhcd->PortDisabledCallback = HAL_HCD_PortDisabled_Callback;
 137:Drivers/STM32F7xx_HAL_Driver/Src/stm32f7xx_hal_hcd.c ****     hhcd->HC_NotifyURBChangeCallback = HAL_HCD_HC_NotifyURBChange_Callback;
 138:Drivers/STM32F7xx_HAL_Driver/Src/stm32f7xx_hal_hcd.c **** 
 139:Drivers/STM32F7xx_HAL_Driver/Src/stm32f7xx_hal_hcd.c ****     if (hhcd->MspInitCallback == NULL)
 140:Drivers/STM32F7xx_HAL_Driver/Src/stm32f7xx_hal_hcd.c ****     {
 141:Drivers/STM32F7xx_HAL_Driver/Src/stm32f7xx_hal_hcd.c ****       hhcd->MspInitCallback = HAL_HCD_MspInit;
 142:Drivers/STM32F7xx_HAL_Driver/Src/stm32f7xx_hal_hcd.c ****     }
 143:Drivers/STM32F7xx_HAL_Driver/Src/stm32f7xx_hal_hcd.c **** 
 144:Drivers/STM32F7xx_HAL_Driver/Src/stm32f7xx_hal_hcd.c ****     /* Init the low level hardware */
ARM GAS  C:\Users\seblo\AppData\Local\Temp\ccHEsOvX.s 			page 4


 145:Drivers/STM32F7xx_HAL_Driver/Src/stm32f7xx_hal_hcd.c ****     hhcd->MspInitCallback(hhcd);
 146:Drivers/STM32F7xx_HAL_Driver/Src/stm32f7xx_hal_hcd.c **** #else
 147:Drivers/STM32F7xx_HAL_Driver/Src/stm32f7xx_hal_hcd.c ****     /* Init the low level hardware : GPIO, CLOCK, NVIC... */
 148:Drivers/STM32F7xx_HAL_Driver/Src/stm32f7xx_hal_hcd.c ****     HAL_HCD_MspInit(hhcd);
 149:Drivers/STM32F7xx_HAL_Driver/Src/stm32f7xx_hal_hcd.c **** #endif /* (USE_HAL_HCD_REGISTER_CALLBACKS) */
 150:Drivers/STM32F7xx_HAL_Driver/Src/stm32f7xx_hal_hcd.c ****   }
 151:Drivers/STM32F7xx_HAL_Driver/Src/stm32f7xx_hal_hcd.c **** 
 152:Drivers/STM32F7xx_HAL_Driver/Src/stm32f7xx_hal_hcd.c ****   hhcd->State = HAL_HCD_STATE_BUSY;
 153:Drivers/STM32F7xx_HAL_Driver/Src/stm32f7xx_hal_hcd.c **** 
 154:Drivers/STM32F7xx_HAL_Driver/Src/stm32f7xx_hal_hcd.c ****   /* Disable DMA mode for FS instance */
 155:Drivers/STM32F7xx_HAL_Driver/Src/stm32f7xx_hal_hcd.c ****   if ((USBx->CID & (0x1U << 8)) == 0U)
 156:Drivers/STM32F7xx_HAL_Driver/Src/stm32f7xx_hal_hcd.c ****   {
 157:Drivers/STM32F7xx_HAL_Driver/Src/stm32f7xx_hal_hcd.c ****     hhcd->Init.dma_enable = 0U;
 158:Drivers/STM32F7xx_HAL_Driver/Src/stm32f7xx_hal_hcd.c ****   }
 159:Drivers/STM32F7xx_HAL_Driver/Src/stm32f7xx_hal_hcd.c **** 
 160:Drivers/STM32F7xx_HAL_Driver/Src/stm32f7xx_hal_hcd.c ****   /* Disable the Interrupts */
 161:Drivers/STM32F7xx_HAL_Driver/Src/stm32f7xx_hal_hcd.c ****   __HAL_HCD_DISABLE(hhcd);
 162:Drivers/STM32F7xx_HAL_Driver/Src/stm32f7xx_hal_hcd.c **** 
 163:Drivers/STM32F7xx_HAL_Driver/Src/stm32f7xx_hal_hcd.c ****   /* Init the Core (common init.) */
 164:Drivers/STM32F7xx_HAL_Driver/Src/stm32f7xx_hal_hcd.c ****   (void)USB_CoreInit(hhcd->Instance, hhcd->Init);
 165:Drivers/STM32F7xx_HAL_Driver/Src/stm32f7xx_hal_hcd.c **** 
 166:Drivers/STM32F7xx_HAL_Driver/Src/stm32f7xx_hal_hcd.c ****   /* Force Host Mode*/
 167:Drivers/STM32F7xx_HAL_Driver/Src/stm32f7xx_hal_hcd.c ****   (void)USB_SetCurrentMode(hhcd->Instance, USB_HOST_MODE);
 168:Drivers/STM32F7xx_HAL_Driver/Src/stm32f7xx_hal_hcd.c **** 
 169:Drivers/STM32F7xx_HAL_Driver/Src/stm32f7xx_hal_hcd.c ****   /* Init Host */
 170:Drivers/STM32F7xx_HAL_Driver/Src/stm32f7xx_hal_hcd.c ****   (void)USB_HostInit(hhcd->Instance, hhcd->Init);
 171:Drivers/STM32F7xx_HAL_Driver/Src/stm32f7xx_hal_hcd.c **** 
 172:Drivers/STM32F7xx_HAL_Driver/Src/stm32f7xx_hal_hcd.c ****   hhcd->State = HAL_HCD_STATE_READY;
 173:Drivers/STM32F7xx_HAL_Driver/Src/stm32f7xx_hal_hcd.c **** 
 174:Drivers/STM32F7xx_HAL_Driver/Src/stm32f7xx_hal_hcd.c ****   return HAL_OK;
 175:Drivers/STM32F7xx_HAL_Driver/Src/stm32f7xx_hal_hcd.c **** }
 176:Drivers/STM32F7xx_HAL_Driver/Src/stm32f7xx_hal_hcd.c **** 
 177:Drivers/STM32F7xx_HAL_Driver/Src/stm32f7xx_hal_hcd.c **** /**
 178:Drivers/STM32F7xx_HAL_Driver/Src/stm32f7xx_hal_hcd.c ****   * @brief  Initialize a host channel.
 179:Drivers/STM32F7xx_HAL_Driver/Src/stm32f7xx_hal_hcd.c ****   * @param  hhcd HCD handle
 180:Drivers/STM32F7xx_HAL_Driver/Src/stm32f7xx_hal_hcd.c ****   * @param  ch_num Channel number.
 181:Drivers/STM32F7xx_HAL_Driver/Src/stm32f7xx_hal_hcd.c ****   *         This parameter can be a value from 1 to 15
 182:Drivers/STM32F7xx_HAL_Driver/Src/stm32f7xx_hal_hcd.c ****   * @param  epnum Endpoint number.
 183:Drivers/STM32F7xx_HAL_Driver/Src/stm32f7xx_hal_hcd.c ****   *          This parameter can be a value from 1 to 15
 184:Drivers/STM32F7xx_HAL_Driver/Src/stm32f7xx_hal_hcd.c ****   * @param  dev_address Current device address
 185:Drivers/STM32F7xx_HAL_Driver/Src/stm32f7xx_hal_hcd.c ****   *          This parameter can be a value from 0 to 255
 186:Drivers/STM32F7xx_HAL_Driver/Src/stm32f7xx_hal_hcd.c ****   * @param  speed Current device speed.
 187:Drivers/STM32F7xx_HAL_Driver/Src/stm32f7xx_hal_hcd.c ****   *          This parameter can be one of these values:
 188:Drivers/STM32F7xx_HAL_Driver/Src/stm32f7xx_hal_hcd.c ****   *            HCD_SPEED_HIGH: High speed mode,
 189:Drivers/STM32F7xx_HAL_Driver/Src/stm32f7xx_hal_hcd.c ****   *            HCD_SPEED_FULL: Full speed mode,
 190:Drivers/STM32F7xx_HAL_Driver/Src/stm32f7xx_hal_hcd.c ****   *            HCD_SPEED_LOW: Low speed mode
 191:Drivers/STM32F7xx_HAL_Driver/Src/stm32f7xx_hal_hcd.c ****   * @param  ep_type Endpoint Type.
 192:Drivers/STM32F7xx_HAL_Driver/Src/stm32f7xx_hal_hcd.c ****   *          This parameter can be one of these values:
 193:Drivers/STM32F7xx_HAL_Driver/Src/stm32f7xx_hal_hcd.c ****   *            EP_TYPE_CTRL: Control type,
 194:Drivers/STM32F7xx_HAL_Driver/Src/stm32f7xx_hal_hcd.c ****   *            EP_TYPE_ISOC: Isochronous type,
 195:Drivers/STM32F7xx_HAL_Driver/Src/stm32f7xx_hal_hcd.c ****   *            EP_TYPE_BULK: Bulk type,
 196:Drivers/STM32F7xx_HAL_Driver/Src/stm32f7xx_hal_hcd.c ****   *            EP_TYPE_INTR: Interrupt type
 197:Drivers/STM32F7xx_HAL_Driver/Src/stm32f7xx_hal_hcd.c ****   * @param  mps Max Packet Size.
 198:Drivers/STM32F7xx_HAL_Driver/Src/stm32f7xx_hal_hcd.c ****   *          This parameter can be a value from 0 to32K
 199:Drivers/STM32F7xx_HAL_Driver/Src/stm32f7xx_hal_hcd.c ****   * @retval HAL status
 200:Drivers/STM32F7xx_HAL_Driver/Src/stm32f7xx_hal_hcd.c ****   */
 201:Drivers/STM32F7xx_HAL_Driver/Src/stm32f7xx_hal_hcd.c **** HAL_StatusTypeDef HAL_HCD_HC_Init(HCD_HandleTypeDef *hhcd,
ARM GAS  C:\Users\seblo\AppData\Local\Temp\ccHEsOvX.s 			page 5


 202:Drivers/STM32F7xx_HAL_Driver/Src/stm32f7xx_hal_hcd.c ****                                   uint8_t ch_num,
 203:Drivers/STM32F7xx_HAL_Driver/Src/stm32f7xx_hal_hcd.c ****                                   uint8_t epnum,
 204:Drivers/STM32F7xx_HAL_Driver/Src/stm32f7xx_hal_hcd.c ****                                   uint8_t dev_address,
 205:Drivers/STM32F7xx_HAL_Driver/Src/stm32f7xx_hal_hcd.c ****                                   uint8_t speed,
 206:Drivers/STM32F7xx_HAL_Driver/Src/stm32f7xx_hal_hcd.c ****                                   uint8_t ep_type,
 207:Drivers/STM32F7xx_HAL_Driver/Src/stm32f7xx_hal_hcd.c ****                                   uint16_t mps)
 208:Drivers/STM32F7xx_HAL_Driver/Src/stm32f7xx_hal_hcd.c **** {
 209:Drivers/STM32F7xx_HAL_Driver/Src/stm32f7xx_hal_hcd.c ****   HAL_StatusTypeDef status;
 210:Drivers/STM32F7xx_HAL_Driver/Src/stm32f7xx_hal_hcd.c **** 
 211:Drivers/STM32F7xx_HAL_Driver/Src/stm32f7xx_hal_hcd.c ****   __HAL_LOCK(hhcd);
 212:Drivers/STM32F7xx_HAL_Driver/Src/stm32f7xx_hal_hcd.c ****   hhcd->hc[ch_num].do_ping = 0U;
 213:Drivers/STM32F7xx_HAL_Driver/Src/stm32f7xx_hal_hcd.c ****   hhcd->hc[ch_num].dev_addr = dev_address;
 214:Drivers/STM32F7xx_HAL_Driver/Src/stm32f7xx_hal_hcd.c ****   hhcd->hc[ch_num].max_packet = mps;
 215:Drivers/STM32F7xx_HAL_Driver/Src/stm32f7xx_hal_hcd.c ****   hhcd->hc[ch_num].ch_num = ch_num;
 216:Drivers/STM32F7xx_HAL_Driver/Src/stm32f7xx_hal_hcd.c ****   hhcd->hc[ch_num].ep_type = ep_type;
 217:Drivers/STM32F7xx_HAL_Driver/Src/stm32f7xx_hal_hcd.c ****   hhcd->hc[ch_num].ep_num = epnum & 0x7FU;
 218:Drivers/STM32F7xx_HAL_Driver/Src/stm32f7xx_hal_hcd.c **** 
 219:Drivers/STM32F7xx_HAL_Driver/Src/stm32f7xx_hal_hcd.c ****   if ((epnum & 0x80U) == 0x80U)
 220:Drivers/STM32F7xx_HAL_Driver/Src/stm32f7xx_hal_hcd.c ****   {
 221:Drivers/STM32F7xx_HAL_Driver/Src/stm32f7xx_hal_hcd.c ****     hhcd->hc[ch_num].ep_is_in = 1U;
 222:Drivers/STM32F7xx_HAL_Driver/Src/stm32f7xx_hal_hcd.c ****   }
 223:Drivers/STM32F7xx_HAL_Driver/Src/stm32f7xx_hal_hcd.c ****   else
 224:Drivers/STM32F7xx_HAL_Driver/Src/stm32f7xx_hal_hcd.c ****   {
 225:Drivers/STM32F7xx_HAL_Driver/Src/stm32f7xx_hal_hcd.c ****     hhcd->hc[ch_num].ep_is_in = 0U;
 226:Drivers/STM32F7xx_HAL_Driver/Src/stm32f7xx_hal_hcd.c ****   }
 227:Drivers/STM32F7xx_HAL_Driver/Src/stm32f7xx_hal_hcd.c **** 
 228:Drivers/STM32F7xx_HAL_Driver/Src/stm32f7xx_hal_hcd.c ****   hhcd->hc[ch_num].speed = speed;
 229:Drivers/STM32F7xx_HAL_Driver/Src/stm32f7xx_hal_hcd.c **** 
 230:Drivers/STM32F7xx_HAL_Driver/Src/stm32f7xx_hal_hcd.c ****   status =  USB_HC_Init(hhcd->Instance,
 231:Drivers/STM32F7xx_HAL_Driver/Src/stm32f7xx_hal_hcd.c ****                         ch_num,
 232:Drivers/STM32F7xx_HAL_Driver/Src/stm32f7xx_hal_hcd.c ****                         epnum,
 233:Drivers/STM32F7xx_HAL_Driver/Src/stm32f7xx_hal_hcd.c ****                         dev_address,
 234:Drivers/STM32F7xx_HAL_Driver/Src/stm32f7xx_hal_hcd.c ****                         speed,
 235:Drivers/STM32F7xx_HAL_Driver/Src/stm32f7xx_hal_hcd.c ****                         ep_type,
 236:Drivers/STM32F7xx_HAL_Driver/Src/stm32f7xx_hal_hcd.c ****                         mps);
 237:Drivers/STM32F7xx_HAL_Driver/Src/stm32f7xx_hal_hcd.c ****   __HAL_UNLOCK(hhcd);
 238:Drivers/STM32F7xx_HAL_Driver/Src/stm32f7xx_hal_hcd.c **** 
 239:Drivers/STM32F7xx_HAL_Driver/Src/stm32f7xx_hal_hcd.c ****   return status;
 240:Drivers/STM32F7xx_HAL_Driver/Src/stm32f7xx_hal_hcd.c **** }
 241:Drivers/STM32F7xx_HAL_Driver/Src/stm32f7xx_hal_hcd.c **** 
 242:Drivers/STM32F7xx_HAL_Driver/Src/stm32f7xx_hal_hcd.c **** /**
 243:Drivers/STM32F7xx_HAL_Driver/Src/stm32f7xx_hal_hcd.c ****   * @brief  Halt a host channel.
 244:Drivers/STM32F7xx_HAL_Driver/Src/stm32f7xx_hal_hcd.c ****   * @param  hhcd HCD handle
 245:Drivers/STM32F7xx_HAL_Driver/Src/stm32f7xx_hal_hcd.c ****   * @param  ch_num Channel number.
 246:Drivers/STM32F7xx_HAL_Driver/Src/stm32f7xx_hal_hcd.c ****   *         This parameter can be a value from 1 to 15
 247:Drivers/STM32F7xx_HAL_Driver/Src/stm32f7xx_hal_hcd.c ****   * @retval HAL status
 248:Drivers/STM32F7xx_HAL_Driver/Src/stm32f7xx_hal_hcd.c ****   */
 249:Drivers/STM32F7xx_HAL_Driver/Src/stm32f7xx_hal_hcd.c **** HAL_StatusTypeDef HAL_HCD_HC_Halt(HCD_HandleTypeDef *hhcd, uint8_t ch_num)
 250:Drivers/STM32F7xx_HAL_Driver/Src/stm32f7xx_hal_hcd.c **** {
 251:Drivers/STM32F7xx_HAL_Driver/Src/stm32f7xx_hal_hcd.c ****   HAL_StatusTypeDef status = HAL_OK;
 252:Drivers/STM32F7xx_HAL_Driver/Src/stm32f7xx_hal_hcd.c **** 
 253:Drivers/STM32F7xx_HAL_Driver/Src/stm32f7xx_hal_hcd.c ****   __HAL_LOCK(hhcd);
 254:Drivers/STM32F7xx_HAL_Driver/Src/stm32f7xx_hal_hcd.c ****   (void)USB_HC_Halt(hhcd->Instance, (uint8_t)ch_num);
 255:Drivers/STM32F7xx_HAL_Driver/Src/stm32f7xx_hal_hcd.c ****   __HAL_UNLOCK(hhcd);
 256:Drivers/STM32F7xx_HAL_Driver/Src/stm32f7xx_hal_hcd.c **** 
 257:Drivers/STM32F7xx_HAL_Driver/Src/stm32f7xx_hal_hcd.c ****   return status;
 258:Drivers/STM32F7xx_HAL_Driver/Src/stm32f7xx_hal_hcd.c **** }
ARM GAS  C:\Users\seblo\AppData\Local\Temp\ccHEsOvX.s 			page 6


 259:Drivers/STM32F7xx_HAL_Driver/Src/stm32f7xx_hal_hcd.c **** 
 260:Drivers/STM32F7xx_HAL_Driver/Src/stm32f7xx_hal_hcd.c **** /**
 261:Drivers/STM32F7xx_HAL_Driver/Src/stm32f7xx_hal_hcd.c ****   * @brief  DeInitialize the host driver.
 262:Drivers/STM32F7xx_HAL_Driver/Src/stm32f7xx_hal_hcd.c ****   * @param  hhcd HCD handle
 263:Drivers/STM32F7xx_HAL_Driver/Src/stm32f7xx_hal_hcd.c ****   * @retval HAL status
 264:Drivers/STM32F7xx_HAL_Driver/Src/stm32f7xx_hal_hcd.c ****   */
 265:Drivers/STM32F7xx_HAL_Driver/Src/stm32f7xx_hal_hcd.c **** HAL_StatusTypeDef HAL_HCD_DeInit(HCD_HandleTypeDef *hhcd)
 266:Drivers/STM32F7xx_HAL_Driver/Src/stm32f7xx_hal_hcd.c **** {
 267:Drivers/STM32F7xx_HAL_Driver/Src/stm32f7xx_hal_hcd.c ****   /* Check the HCD handle allocation */
 268:Drivers/STM32F7xx_HAL_Driver/Src/stm32f7xx_hal_hcd.c ****   if (hhcd == NULL)
 269:Drivers/STM32F7xx_HAL_Driver/Src/stm32f7xx_hal_hcd.c ****   {
 270:Drivers/STM32F7xx_HAL_Driver/Src/stm32f7xx_hal_hcd.c ****     return HAL_ERROR;
 271:Drivers/STM32F7xx_HAL_Driver/Src/stm32f7xx_hal_hcd.c ****   }
 272:Drivers/STM32F7xx_HAL_Driver/Src/stm32f7xx_hal_hcd.c **** 
 273:Drivers/STM32F7xx_HAL_Driver/Src/stm32f7xx_hal_hcd.c ****   hhcd->State = HAL_HCD_STATE_BUSY;
 274:Drivers/STM32F7xx_HAL_Driver/Src/stm32f7xx_hal_hcd.c **** 
 275:Drivers/STM32F7xx_HAL_Driver/Src/stm32f7xx_hal_hcd.c **** #if (USE_HAL_HCD_REGISTER_CALLBACKS == 1U)
 276:Drivers/STM32F7xx_HAL_Driver/Src/stm32f7xx_hal_hcd.c ****   if (hhcd->MspDeInitCallback == NULL)
 277:Drivers/STM32F7xx_HAL_Driver/Src/stm32f7xx_hal_hcd.c ****   {
 278:Drivers/STM32F7xx_HAL_Driver/Src/stm32f7xx_hal_hcd.c ****     hhcd->MspDeInitCallback = HAL_HCD_MspDeInit; /* Legacy weak MspDeInit  */
 279:Drivers/STM32F7xx_HAL_Driver/Src/stm32f7xx_hal_hcd.c ****   }
 280:Drivers/STM32F7xx_HAL_Driver/Src/stm32f7xx_hal_hcd.c **** 
 281:Drivers/STM32F7xx_HAL_Driver/Src/stm32f7xx_hal_hcd.c ****   /* DeInit the low level hardware */
 282:Drivers/STM32F7xx_HAL_Driver/Src/stm32f7xx_hal_hcd.c ****   hhcd->MspDeInitCallback(hhcd);
 283:Drivers/STM32F7xx_HAL_Driver/Src/stm32f7xx_hal_hcd.c **** #else
 284:Drivers/STM32F7xx_HAL_Driver/Src/stm32f7xx_hal_hcd.c ****   /* DeInit the low level hardware: CLOCK, NVIC.*/
 285:Drivers/STM32F7xx_HAL_Driver/Src/stm32f7xx_hal_hcd.c ****   HAL_HCD_MspDeInit(hhcd);
 286:Drivers/STM32F7xx_HAL_Driver/Src/stm32f7xx_hal_hcd.c **** #endif /* USE_HAL_HCD_REGISTER_CALLBACKS */
 287:Drivers/STM32F7xx_HAL_Driver/Src/stm32f7xx_hal_hcd.c **** 
 288:Drivers/STM32F7xx_HAL_Driver/Src/stm32f7xx_hal_hcd.c ****   __HAL_HCD_DISABLE(hhcd);
 289:Drivers/STM32F7xx_HAL_Driver/Src/stm32f7xx_hal_hcd.c **** 
 290:Drivers/STM32F7xx_HAL_Driver/Src/stm32f7xx_hal_hcd.c ****   hhcd->State = HAL_HCD_STATE_RESET;
 291:Drivers/STM32F7xx_HAL_Driver/Src/stm32f7xx_hal_hcd.c **** 
 292:Drivers/STM32F7xx_HAL_Driver/Src/stm32f7xx_hal_hcd.c ****   return HAL_OK;
 293:Drivers/STM32F7xx_HAL_Driver/Src/stm32f7xx_hal_hcd.c **** }
 294:Drivers/STM32F7xx_HAL_Driver/Src/stm32f7xx_hal_hcd.c **** 
 295:Drivers/STM32F7xx_HAL_Driver/Src/stm32f7xx_hal_hcd.c **** /**
 296:Drivers/STM32F7xx_HAL_Driver/Src/stm32f7xx_hal_hcd.c ****   * @brief  Initialize the HCD MSP.
 297:Drivers/STM32F7xx_HAL_Driver/Src/stm32f7xx_hal_hcd.c ****   * @param  hhcd HCD handle
 298:Drivers/STM32F7xx_HAL_Driver/Src/stm32f7xx_hal_hcd.c ****   * @retval None
 299:Drivers/STM32F7xx_HAL_Driver/Src/stm32f7xx_hal_hcd.c ****   */
 300:Drivers/STM32F7xx_HAL_Driver/Src/stm32f7xx_hal_hcd.c **** __weak void  HAL_HCD_MspInit(HCD_HandleTypeDef *hhcd)
 301:Drivers/STM32F7xx_HAL_Driver/Src/stm32f7xx_hal_hcd.c **** {
 302:Drivers/STM32F7xx_HAL_Driver/Src/stm32f7xx_hal_hcd.c ****   /* Prevent unused argument(s) compilation warning */
 303:Drivers/STM32F7xx_HAL_Driver/Src/stm32f7xx_hal_hcd.c ****   UNUSED(hhcd);
 304:Drivers/STM32F7xx_HAL_Driver/Src/stm32f7xx_hal_hcd.c **** 
 305:Drivers/STM32F7xx_HAL_Driver/Src/stm32f7xx_hal_hcd.c ****   /* NOTE : This function should not be modified, when the callback is needed,
 306:Drivers/STM32F7xx_HAL_Driver/Src/stm32f7xx_hal_hcd.c ****             the HAL_HCD_MspInit could be implemented in the user file
 307:Drivers/STM32F7xx_HAL_Driver/Src/stm32f7xx_hal_hcd.c ****    */
 308:Drivers/STM32F7xx_HAL_Driver/Src/stm32f7xx_hal_hcd.c **** }
 309:Drivers/STM32F7xx_HAL_Driver/Src/stm32f7xx_hal_hcd.c **** 
 310:Drivers/STM32F7xx_HAL_Driver/Src/stm32f7xx_hal_hcd.c **** /**
 311:Drivers/STM32F7xx_HAL_Driver/Src/stm32f7xx_hal_hcd.c ****   * @brief  DeInitialize the HCD MSP.
 312:Drivers/STM32F7xx_HAL_Driver/Src/stm32f7xx_hal_hcd.c ****   * @param  hhcd HCD handle
 313:Drivers/STM32F7xx_HAL_Driver/Src/stm32f7xx_hal_hcd.c ****   * @retval None
 314:Drivers/STM32F7xx_HAL_Driver/Src/stm32f7xx_hal_hcd.c ****   */
 315:Drivers/STM32F7xx_HAL_Driver/Src/stm32f7xx_hal_hcd.c **** __weak void  HAL_HCD_MspDeInit(HCD_HandleTypeDef *hhcd)
ARM GAS  C:\Users\seblo\AppData\Local\Temp\ccHEsOvX.s 			page 7


 316:Drivers/STM32F7xx_HAL_Driver/Src/stm32f7xx_hal_hcd.c **** {
 317:Drivers/STM32F7xx_HAL_Driver/Src/stm32f7xx_hal_hcd.c ****   /* Prevent unused argument(s) compilation warning */
 318:Drivers/STM32F7xx_HAL_Driver/Src/stm32f7xx_hal_hcd.c ****   UNUSED(hhcd);
 319:Drivers/STM32F7xx_HAL_Driver/Src/stm32f7xx_hal_hcd.c **** 
 320:Drivers/STM32F7xx_HAL_Driver/Src/stm32f7xx_hal_hcd.c ****   /* NOTE : This function should not be modified, when the callback is needed,
 321:Drivers/STM32F7xx_HAL_Driver/Src/stm32f7xx_hal_hcd.c ****             the HAL_HCD_MspDeInit could be implemented in the user file
 322:Drivers/STM32F7xx_HAL_Driver/Src/stm32f7xx_hal_hcd.c ****    */
 323:Drivers/STM32F7xx_HAL_Driver/Src/stm32f7xx_hal_hcd.c **** }
 324:Drivers/STM32F7xx_HAL_Driver/Src/stm32f7xx_hal_hcd.c **** 
 325:Drivers/STM32F7xx_HAL_Driver/Src/stm32f7xx_hal_hcd.c **** /**
 326:Drivers/STM32F7xx_HAL_Driver/Src/stm32f7xx_hal_hcd.c ****   * @}
 327:Drivers/STM32F7xx_HAL_Driver/Src/stm32f7xx_hal_hcd.c ****   */
 328:Drivers/STM32F7xx_HAL_Driver/Src/stm32f7xx_hal_hcd.c **** 
 329:Drivers/STM32F7xx_HAL_Driver/Src/stm32f7xx_hal_hcd.c **** /** @defgroup HCD_Exported_Functions_Group2 Input and Output operation functions
 330:Drivers/STM32F7xx_HAL_Driver/Src/stm32f7xx_hal_hcd.c ****   *  @brief   HCD IO operation functions
 331:Drivers/STM32F7xx_HAL_Driver/Src/stm32f7xx_hal_hcd.c ****   *
 332:Drivers/STM32F7xx_HAL_Driver/Src/stm32f7xx_hal_hcd.c **** @verbatim
 333:Drivers/STM32F7xx_HAL_Driver/Src/stm32f7xx_hal_hcd.c ****  ===============================================================================
 334:Drivers/STM32F7xx_HAL_Driver/Src/stm32f7xx_hal_hcd.c ****                       ##### IO operation functions #####
 335:Drivers/STM32F7xx_HAL_Driver/Src/stm32f7xx_hal_hcd.c ****  ===============================================================================
 336:Drivers/STM32F7xx_HAL_Driver/Src/stm32f7xx_hal_hcd.c ****  [..] This subsection provides a set of functions allowing to manage the USB Host Data
 337:Drivers/STM32F7xx_HAL_Driver/Src/stm32f7xx_hal_hcd.c ****     Transfer
 338:Drivers/STM32F7xx_HAL_Driver/Src/stm32f7xx_hal_hcd.c **** 
 339:Drivers/STM32F7xx_HAL_Driver/Src/stm32f7xx_hal_hcd.c **** @endverbatim
 340:Drivers/STM32F7xx_HAL_Driver/Src/stm32f7xx_hal_hcd.c ****   * @{
 341:Drivers/STM32F7xx_HAL_Driver/Src/stm32f7xx_hal_hcd.c ****   */
 342:Drivers/STM32F7xx_HAL_Driver/Src/stm32f7xx_hal_hcd.c **** 
 343:Drivers/STM32F7xx_HAL_Driver/Src/stm32f7xx_hal_hcd.c **** /**
 344:Drivers/STM32F7xx_HAL_Driver/Src/stm32f7xx_hal_hcd.c ****   * @brief  Submit a new URB for processing.
 345:Drivers/STM32F7xx_HAL_Driver/Src/stm32f7xx_hal_hcd.c ****   * @param  hhcd HCD handle
 346:Drivers/STM32F7xx_HAL_Driver/Src/stm32f7xx_hal_hcd.c ****   * @param  ch_num Channel number.
 347:Drivers/STM32F7xx_HAL_Driver/Src/stm32f7xx_hal_hcd.c ****   *         This parameter can be a value from 1 to 15
 348:Drivers/STM32F7xx_HAL_Driver/Src/stm32f7xx_hal_hcd.c ****   * @param  direction Channel number.
 349:Drivers/STM32F7xx_HAL_Driver/Src/stm32f7xx_hal_hcd.c ****   *          This parameter can be one of these values:
 350:Drivers/STM32F7xx_HAL_Driver/Src/stm32f7xx_hal_hcd.c ****   *           0 : Output / 1 : Input
 351:Drivers/STM32F7xx_HAL_Driver/Src/stm32f7xx_hal_hcd.c ****   * @param  ep_type Endpoint Type.
 352:Drivers/STM32F7xx_HAL_Driver/Src/stm32f7xx_hal_hcd.c ****   *          This parameter can be one of these values:
 353:Drivers/STM32F7xx_HAL_Driver/Src/stm32f7xx_hal_hcd.c ****   *            EP_TYPE_CTRL: Control type/
 354:Drivers/STM32F7xx_HAL_Driver/Src/stm32f7xx_hal_hcd.c ****   *            EP_TYPE_ISOC: Isochronous type/
 355:Drivers/STM32F7xx_HAL_Driver/Src/stm32f7xx_hal_hcd.c ****   *            EP_TYPE_BULK: Bulk type/
 356:Drivers/STM32F7xx_HAL_Driver/Src/stm32f7xx_hal_hcd.c ****   *            EP_TYPE_INTR: Interrupt type/
 357:Drivers/STM32F7xx_HAL_Driver/Src/stm32f7xx_hal_hcd.c ****   * @param  token Endpoint Type.
 358:Drivers/STM32F7xx_HAL_Driver/Src/stm32f7xx_hal_hcd.c ****   *          This parameter can be one of these values:
 359:Drivers/STM32F7xx_HAL_Driver/Src/stm32f7xx_hal_hcd.c ****   *            0: HC_PID_SETUP / 1: HC_PID_DATA1
 360:Drivers/STM32F7xx_HAL_Driver/Src/stm32f7xx_hal_hcd.c ****   * @param  pbuff pointer to URB data
 361:Drivers/STM32F7xx_HAL_Driver/Src/stm32f7xx_hal_hcd.c ****   * @param  length Length of URB data
 362:Drivers/STM32F7xx_HAL_Driver/Src/stm32f7xx_hal_hcd.c ****   * @param  do_ping activate do ping protocol (for high speed only).
 363:Drivers/STM32F7xx_HAL_Driver/Src/stm32f7xx_hal_hcd.c ****   *          This parameter can be one of these values:
 364:Drivers/STM32F7xx_HAL_Driver/Src/stm32f7xx_hal_hcd.c ****   *           0 : do ping inactive / 1 : do ping active
 365:Drivers/STM32F7xx_HAL_Driver/Src/stm32f7xx_hal_hcd.c ****   * @retval HAL status
 366:Drivers/STM32F7xx_HAL_Driver/Src/stm32f7xx_hal_hcd.c ****   */
 367:Drivers/STM32F7xx_HAL_Driver/Src/stm32f7xx_hal_hcd.c **** HAL_StatusTypeDef HAL_HCD_HC_SubmitRequest(HCD_HandleTypeDef *hhcd,
 368:Drivers/STM32F7xx_HAL_Driver/Src/stm32f7xx_hal_hcd.c ****                                            uint8_t ch_num,
 369:Drivers/STM32F7xx_HAL_Driver/Src/stm32f7xx_hal_hcd.c ****                                            uint8_t direction,
 370:Drivers/STM32F7xx_HAL_Driver/Src/stm32f7xx_hal_hcd.c ****                                            uint8_t ep_type,
 371:Drivers/STM32F7xx_HAL_Driver/Src/stm32f7xx_hal_hcd.c ****                                            uint8_t token,
 372:Drivers/STM32F7xx_HAL_Driver/Src/stm32f7xx_hal_hcd.c ****                                            uint8_t *pbuff,
ARM GAS  C:\Users\seblo\AppData\Local\Temp\ccHEsOvX.s 			page 8


 373:Drivers/STM32F7xx_HAL_Driver/Src/stm32f7xx_hal_hcd.c ****                                            uint16_t length,
 374:Drivers/STM32F7xx_HAL_Driver/Src/stm32f7xx_hal_hcd.c ****                                            uint8_t do_ping)
 375:Drivers/STM32F7xx_HAL_Driver/Src/stm32f7xx_hal_hcd.c **** {
 376:Drivers/STM32F7xx_HAL_Driver/Src/stm32f7xx_hal_hcd.c ****   hhcd->hc[ch_num].ep_is_in = direction;
 377:Drivers/STM32F7xx_HAL_Driver/Src/stm32f7xx_hal_hcd.c ****   hhcd->hc[ch_num].ep_type  = ep_type;
 378:Drivers/STM32F7xx_HAL_Driver/Src/stm32f7xx_hal_hcd.c **** 
 379:Drivers/STM32F7xx_HAL_Driver/Src/stm32f7xx_hal_hcd.c ****   if (token == 0U)
 380:Drivers/STM32F7xx_HAL_Driver/Src/stm32f7xx_hal_hcd.c ****   {
 381:Drivers/STM32F7xx_HAL_Driver/Src/stm32f7xx_hal_hcd.c ****     hhcd->hc[ch_num].data_pid = HC_PID_SETUP;
 382:Drivers/STM32F7xx_HAL_Driver/Src/stm32f7xx_hal_hcd.c ****     hhcd->hc[ch_num].do_ping = do_ping;
 383:Drivers/STM32F7xx_HAL_Driver/Src/stm32f7xx_hal_hcd.c ****   }
 384:Drivers/STM32F7xx_HAL_Driver/Src/stm32f7xx_hal_hcd.c ****   else
 385:Drivers/STM32F7xx_HAL_Driver/Src/stm32f7xx_hal_hcd.c ****   {
 386:Drivers/STM32F7xx_HAL_Driver/Src/stm32f7xx_hal_hcd.c ****     hhcd->hc[ch_num].data_pid = HC_PID_DATA1;
 387:Drivers/STM32F7xx_HAL_Driver/Src/stm32f7xx_hal_hcd.c ****   }
 388:Drivers/STM32F7xx_HAL_Driver/Src/stm32f7xx_hal_hcd.c **** 
 389:Drivers/STM32F7xx_HAL_Driver/Src/stm32f7xx_hal_hcd.c ****   /* Manage Data Toggle */
 390:Drivers/STM32F7xx_HAL_Driver/Src/stm32f7xx_hal_hcd.c ****   switch (ep_type)
 391:Drivers/STM32F7xx_HAL_Driver/Src/stm32f7xx_hal_hcd.c ****   {
 392:Drivers/STM32F7xx_HAL_Driver/Src/stm32f7xx_hal_hcd.c ****     case EP_TYPE_CTRL:
 393:Drivers/STM32F7xx_HAL_Driver/Src/stm32f7xx_hal_hcd.c ****       if ((token == 1U) && (direction == 0U)) /*send data */
 394:Drivers/STM32F7xx_HAL_Driver/Src/stm32f7xx_hal_hcd.c ****       {
 395:Drivers/STM32F7xx_HAL_Driver/Src/stm32f7xx_hal_hcd.c ****         if (length == 0U)
 396:Drivers/STM32F7xx_HAL_Driver/Src/stm32f7xx_hal_hcd.c ****         {
 397:Drivers/STM32F7xx_HAL_Driver/Src/stm32f7xx_hal_hcd.c ****           /* For Status OUT stage, Length==0, Status Out PID = 1 */
 398:Drivers/STM32F7xx_HAL_Driver/Src/stm32f7xx_hal_hcd.c ****           hhcd->hc[ch_num].toggle_out = 1U;
 399:Drivers/STM32F7xx_HAL_Driver/Src/stm32f7xx_hal_hcd.c ****         }
 400:Drivers/STM32F7xx_HAL_Driver/Src/stm32f7xx_hal_hcd.c **** 
 401:Drivers/STM32F7xx_HAL_Driver/Src/stm32f7xx_hal_hcd.c ****         /* Set the Data Toggle bit as per the Flag */
 402:Drivers/STM32F7xx_HAL_Driver/Src/stm32f7xx_hal_hcd.c ****         if (hhcd->hc[ch_num].toggle_out == 0U)
 403:Drivers/STM32F7xx_HAL_Driver/Src/stm32f7xx_hal_hcd.c ****         {
 404:Drivers/STM32F7xx_HAL_Driver/Src/stm32f7xx_hal_hcd.c ****           /* Put the PID 0 */
 405:Drivers/STM32F7xx_HAL_Driver/Src/stm32f7xx_hal_hcd.c ****           hhcd->hc[ch_num].data_pid = HC_PID_DATA0;
 406:Drivers/STM32F7xx_HAL_Driver/Src/stm32f7xx_hal_hcd.c ****         }
 407:Drivers/STM32F7xx_HAL_Driver/Src/stm32f7xx_hal_hcd.c ****         else
 408:Drivers/STM32F7xx_HAL_Driver/Src/stm32f7xx_hal_hcd.c ****         {
 409:Drivers/STM32F7xx_HAL_Driver/Src/stm32f7xx_hal_hcd.c ****           /* Put the PID 1 */
 410:Drivers/STM32F7xx_HAL_Driver/Src/stm32f7xx_hal_hcd.c ****           hhcd->hc[ch_num].data_pid = HC_PID_DATA1;
 411:Drivers/STM32F7xx_HAL_Driver/Src/stm32f7xx_hal_hcd.c ****         }
 412:Drivers/STM32F7xx_HAL_Driver/Src/stm32f7xx_hal_hcd.c ****       }
 413:Drivers/STM32F7xx_HAL_Driver/Src/stm32f7xx_hal_hcd.c ****       break;
 414:Drivers/STM32F7xx_HAL_Driver/Src/stm32f7xx_hal_hcd.c **** 
 415:Drivers/STM32F7xx_HAL_Driver/Src/stm32f7xx_hal_hcd.c ****     case EP_TYPE_BULK:
 416:Drivers/STM32F7xx_HAL_Driver/Src/stm32f7xx_hal_hcd.c ****       if (direction == 0U)
 417:Drivers/STM32F7xx_HAL_Driver/Src/stm32f7xx_hal_hcd.c ****       {
 418:Drivers/STM32F7xx_HAL_Driver/Src/stm32f7xx_hal_hcd.c ****         /* Set the Data Toggle bit as per the Flag */
 419:Drivers/STM32F7xx_HAL_Driver/Src/stm32f7xx_hal_hcd.c ****         if (hhcd->hc[ch_num].toggle_out == 0U)
 420:Drivers/STM32F7xx_HAL_Driver/Src/stm32f7xx_hal_hcd.c ****         {
 421:Drivers/STM32F7xx_HAL_Driver/Src/stm32f7xx_hal_hcd.c ****           /* Put the PID 0 */
 422:Drivers/STM32F7xx_HAL_Driver/Src/stm32f7xx_hal_hcd.c ****           hhcd->hc[ch_num].data_pid = HC_PID_DATA0;
 423:Drivers/STM32F7xx_HAL_Driver/Src/stm32f7xx_hal_hcd.c ****         }
 424:Drivers/STM32F7xx_HAL_Driver/Src/stm32f7xx_hal_hcd.c ****         else
 425:Drivers/STM32F7xx_HAL_Driver/Src/stm32f7xx_hal_hcd.c ****         {
 426:Drivers/STM32F7xx_HAL_Driver/Src/stm32f7xx_hal_hcd.c ****           /* Put the PID 1 */
 427:Drivers/STM32F7xx_HAL_Driver/Src/stm32f7xx_hal_hcd.c ****           hhcd->hc[ch_num].data_pid = HC_PID_DATA1;
 428:Drivers/STM32F7xx_HAL_Driver/Src/stm32f7xx_hal_hcd.c ****         }
 429:Drivers/STM32F7xx_HAL_Driver/Src/stm32f7xx_hal_hcd.c ****       }
ARM GAS  C:\Users\seblo\AppData\Local\Temp\ccHEsOvX.s 			page 9


 430:Drivers/STM32F7xx_HAL_Driver/Src/stm32f7xx_hal_hcd.c ****       else
 431:Drivers/STM32F7xx_HAL_Driver/Src/stm32f7xx_hal_hcd.c ****       {
 432:Drivers/STM32F7xx_HAL_Driver/Src/stm32f7xx_hal_hcd.c ****         if (hhcd->hc[ch_num].toggle_in == 0U)
 433:Drivers/STM32F7xx_HAL_Driver/Src/stm32f7xx_hal_hcd.c ****         {
 434:Drivers/STM32F7xx_HAL_Driver/Src/stm32f7xx_hal_hcd.c ****           hhcd->hc[ch_num].data_pid = HC_PID_DATA0;
 435:Drivers/STM32F7xx_HAL_Driver/Src/stm32f7xx_hal_hcd.c ****         }
 436:Drivers/STM32F7xx_HAL_Driver/Src/stm32f7xx_hal_hcd.c ****         else
 437:Drivers/STM32F7xx_HAL_Driver/Src/stm32f7xx_hal_hcd.c ****         {
 438:Drivers/STM32F7xx_HAL_Driver/Src/stm32f7xx_hal_hcd.c ****           hhcd->hc[ch_num].data_pid = HC_PID_DATA1;
 439:Drivers/STM32F7xx_HAL_Driver/Src/stm32f7xx_hal_hcd.c ****         }
 440:Drivers/STM32F7xx_HAL_Driver/Src/stm32f7xx_hal_hcd.c ****       }
 441:Drivers/STM32F7xx_HAL_Driver/Src/stm32f7xx_hal_hcd.c **** 
 442:Drivers/STM32F7xx_HAL_Driver/Src/stm32f7xx_hal_hcd.c ****       break;
 443:Drivers/STM32F7xx_HAL_Driver/Src/stm32f7xx_hal_hcd.c ****     case EP_TYPE_INTR:
 444:Drivers/STM32F7xx_HAL_Driver/Src/stm32f7xx_hal_hcd.c ****       if (direction == 0U)
 445:Drivers/STM32F7xx_HAL_Driver/Src/stm32f7xx_hal_hcd.c ****       {
 446:Drivers/STM32F7xx_HAL_Driver/Src/stm32f7xx_hal_hcd.c ****         /* Set the Data Toggle bit as per the Flag */
 447:Drivers/STM32F7xx_HAL_Driver/Src/stm32f7xx_hal_hcd.c ****         if (hhcd->hc[ch_num].toggle_out == 0U)
 448:Drivers/STM32F7xx_HAL_Driver/Src/stm32f7xx_hal_hcd.c ****         {
 449:Drivers/STM32F7xx_HAL_Driver/Src/stm32f7xx_hal_hcd.c ****           /* Put the PID 0 */
 450:Drivers/STM32F7xx_HAL_Driver/Src/stm32f7xx_hal_hcd.c ****           hhcd->hc[ch_num].data_pid = HC_PID_DATA0;
 451:Drivers/STM32F7xx_HAL_Driver/Src/stm32f7xx_hal_hcd.c ****         }
 452:Drivers/STM32F7xx_HAL_Driver/Src/stm32f7xx_hal_hcd.c ****         else
 453:Drivers/STM32F7xx_HAL_Driver/Src/stm32f7xx_hal_hcd.c ****         {
 454:Drivers/STM32F7xx_HAL_Driver/Src/stm32f7xx_hal_hcd.c ****           /* Put the PID 1 */
 455:Drivers/STM32F7xx_HAL_Driver/Src/stm32f7xx_hal_hcd.c ****           hhcd->hc[ch_num].data_pid = HC_PID_DATA1;
 456:Drivers/STM32F7xx_HAL_Driver/Src/stm32f7xx_hal_hcd.c ****         }
 457:Drivers/STM32F7xx_HAL_Driver/Src/stm32f7xx_hal_hcd.c ****       }
 458:Drivers/STM32F7xx_HAL_Driver/Src/stm32f7xx_hal_hcd.c ****       else
 459:Drivers/STM32F7xx_HAL_Driver/Src/stm32f7xx_hal_hcd.c ****       {
 460:Drivers/STM32F7xx_HAL_Driver/Src/stm32f7xx_hal_hcd.c ****         if (hhcd->hc[ch_num].toggle_in == 0U)
 461:Drivers/STM32F7xx_HAL_Driver/Src/stm32f7xx_hal_hcd.c ****         {
 462:Drivers/STM32F7xx_HAL_Driver/Src/stm32f7xx_hal_hcd.c ****           hhcd->hc[ch_num].data_pid = HC_PID_DATA0;
 463:Drivers/STM32F7xx_HAL_Driver/Src/stm32f7xx_hal_hcd.c ****         }
 464:Drivers/STM32F7xx_HAL_Driver/Src/stm32f7xx_hal_hcd.c ****         else
 465:Drivers/STM32F7xx_HAL_Driver/Src/stm32f7xx_hal_hcd.c ****         {
 466:Drivers/STM32F7xx_HAL_Driver/Src/stm32f7xx_hal_hcd.c ****           hhcd->hc[ch_num].data_pid = HC_PID_DATA1;
 467:Drivers/STM32F7xx_HAL_Driver/Src/stm32f7xx_hal_hcd.c ****         }
 468:Drivers/STM32F7xx_HAL_Driver/Src/stm32f7xx_hal_hcd.c ****       }
 469:Drivers/STM32F7xx_HAL_Driver/Src/stm32f7xx_hal_hcd.c ****       break;
 470:Drivers/STM32F7xx_HAL_Driver/Src/stm32f7xx_hal_hcd.c **** 
 471:Drivers/STM32F7xx_HAL_Driver/Src/stm32f7xx_hal_hcd.c ****     case EP_TYPE_ISOC:
 472:Drivers/STM32F7xx_HAL_Driver/Src/stm32f7xx_hal_hcd.c ****       hhcd->hc[ch_num].data_pid = HC_PID_DATA0;
 473:Drivers/STM32F7xx_HAL_Driver/Src/stm32f7xx_hal_hcd.c ****       break;
 474:Drivers/STM32F7xx_HAL_Driver/Src/stm32f7xx_hal_hcd.c **** 
 475:Drivers/STM32F7xx_HAL_Driver/Src/stm32f7xx_hal_hcd.c ****     default:
 476:Drivers/STM32F7xx_HAL_Driver/Src/stm32f7xx_hal_hcd.c ****       break;
 477:Drivers/STM32F7xx_HAL_Driver/Src/stm32f7xx_hal_hcd.c ****   }
 478:Drivers/STM32F7xx_HAL_Driver/Src/stm32f7xx_hal_hcd.c **** 
 479:Drivers/STM32F7xx_HAL_Driver/Src/stm32f7xx_hal_hcd.c ****   hhcd->hc[ch_num].xfer_buff = pbuff;
 480:Drivers/STM32F7xx_HAL_Driver/Src/stm32f7xx_hal_hcd.c ****   hhcd->hc[ch_num].xfer_len  = length;
 481:Drivers/STM32F7xx_HAL_Driver/Src/stm32f7xx_hal_hcd.c ****   hhcd->hc[ch_num].urb_state = URB_IDLE;
 482:Drivers/STM32F7xx_HAL_Driver/Src/stm32f7xx_hal_hcd.c ****   hhcd->hc[ch_num].xfer_count = 0U;
 483:Drivers/STM32F7xx_HAL_Driver/Src/stm32f7xx_hal_hcd.c ****   hhcd->hc[ch_num].ch_num = ch_num;
 484:Drivers/STM32F7xx_HAL_Driver/Src/stm32f7xx_hal_hcd.c ****   hhcd->hc[ch_num].state = HC_IDLE;
 485:Drivers/STM32F7xx_HAL_Driver/Src/stm32f7xx_hal_hcd.c **** 
 486:Drivers/STM32F7xx_HAL_Driver/Src/stm32f7xx_hal_hcd.c ****   return USB_HC_StartXfer(hhcd->Instance, &hhcd->hc[ch_num], (uint8_t)hhcd->Init.dma_enable);
ARM GAS  C:\Users\seblo\AppData\Local\Temp\ccHEsOvX.s 			page 10


 487:Drivers/STM32F7xx_HAL_Driver/Src/stm32f7xx_hal_hcd.c **** }
 488:Drivers/STM32F7xx_HAL_Driver/Src/stm32f7xx_hal_hcd.c **** 
 489:Drivers/STM32F7xx_HAL_Driver/Src/stm32f7xx_hal_hcd.c **** /**
 490:Drivers/STM32F7xx_HAL_Driver/Src/stm32f7xx_hal_hcd.c ****   * @brief  Handle HCD interrupt request.
 491:Drivers/STM32F7xx_HAL_Driver/Src/stm32f7xx_hal_hcd.c ****   * @param  hhcd HCD handle
 492:Drivers/STM32F7xx_HAL_Driver/Src/stm32f7xx_hal_hcd.c ****   * @retval None
 493:Drivers/STM32F7xx_HAL_Driver/Src/stm32f7xx_hal_hcd.c ****   */
 494:Drivers/STM32F7xx_HAL_Driver/Src/stm32f7xx_hal_hcd.c **** void HAL_HCD_IRQHandler(HCD_HandleTypeDef *hhcd)
 495:Drivers/STM32F7xx_HAL_Driver/Src/stm32f7xx_hal_hcd.c **** {
 496:Drivers/STM32F7xx_HAL_Driver/Src/stm32f7xx_hal_hcd.c ****   USB_OTG_GlobalTypeDef *USBx = hhcd->Instance;
 497:Drivers/STM32F7xx_HAL_Driver/Src/stm32f7xx_hal_hcd.c ****   uint32_t USBx_BASE = (uint32_t)USBx;
 498:Drivers/STM32F7xx_HAL_Driver/Src/stm32f7xx_hal_hcd.c ****   uint32_t i, interrupt;
 499:Drivers/STM32F7xx_HAL_Driver/Src/stm32f7xx_hal_hcd.c **** 
 500:Drivers/STM32F7xx_HAL_Driver/Src/stm32f7xx_hal_hcd.c ****   /* Ensure that we are in device mode */
 501:Drivers/STM32F7xx_HAL_Driver/Src/stm32f7xx_hal_hcd.c ****   if (USB_GetMode(hhcd->Instance) == USB_OTG_MODE_HOST)
 502:Drivers/STM32F7xx_HAL_Driver/Src/stm32f7xx_hal_hcd.c ****   {
 503:Drivers/STM32F7xx_HAL_Driver/Src/stm32f7xx_hal_hcd.c ****     /* Avoid spurious interrupt */
 504:Drivers/STM32F7xx_HAL_Driver/Src/stm32f7xx_hal_hcd.c ****     if (__HAL_HCD_IS_INVALID_INTERRUPT(hhcd))
 505:Drivers/STM32F7xx_HAL_Driver/Src/stm32f7xx_hal_hcd.c ****     {
 506:Drivers/STM32F7xx_HAL_Driver/Src/stm32f7xx_hal_hcd.c ****       return;
 507:Drivers/STM32F7xx_HAL_Driver/Src/stm32f7xx_hal_hcd.c ****     }
 508:Drivers/STM32F7xx_HAL_Driver/Src/stm32f7xx_hal_hcd.c **** 
 509:Drivers/STM32F7xx_HAL_Driver/Src/stm32f7xx_hal_hcd.c ****     if (__HAL_HCD_GET_FLAG(hhcd, USB_OTG_GINTSTS_PXFR_INCOMPISOOUT))
 510:Drivers/STM32F7xx_HAL_Driver/Src/stm32f7xx_hal_hcd.c ****     {
 511:Drivers/STM32F7xx_HAL_Driver/Src/stm32f7xx_hal_hcd.c ****       /* Incorrect mode, acknowledge the interrupt */
 512:Drivers/STM32F7xx_HAL_Driver/Src/stm32f7xx_hal_hcd.c ****       __HAL_HCD_CLEAR_FLAG(hhcd, USB_OTG_GINTSTS_PXFR_INCOMPISOOUT);
 513:Drivers/STM32F7xx_HAL_Driver/Src/stm32f7xx_hal_hcd.c ****     }
 514:Drivers/STM32F7xx_HAL_Driver/Src/stm32f7xx_hal_hcd.c **** 
 515:Drivers/STM32F7xx_HAL_Driver/Src/stm32f7xx_hal_hcd.c ****     if (__HAL_HCD_GET_FLAG(hhcd, USB_OTG_GINTSTS_IISOIXFR))
 516:Drivers/STM32F7xx_HAL_Driver/Src/stm32f7xx_hal_hcd.c ****     {
 517:Drivers/STM32F7xx_HAL_Driver/Src/stm32f7xx_hal_hcd.c ****       /* Incorrect mode, acknowledge the interrupt */
 518:Drivers/STM32F7xx_HAL_Driver/Src/stm32f7xx_hal_hcd.c ****       __HAL_HCD_CLEAR_FLAG(hhcd, USB_OTG_GINTSTS_IISOIXFR);
 519:Drivers/STM32F7xx_HAL_Driver/Src/stm32f7xx_hal_hcd.c ****     }
 520:Drivers/STM32F7xx_HAL_Driver/Src/stm32f7xx_hal_hcd.c **** 
 521:Drivers/STM32F7xx_HAL_Driver/Src/stm32f7xx_hal_hcd.c ****     if (__HAL_HCD_GET_FLAG(hhcd, USB_OTG_GINTSTS_PTXFE))
 522:Drivers/STM32F7xx_HAL_Driver/Src/stm32f7xx_hal_hcd.c ****     {
 523:Drivers/STM32F7xx_HAL_Driver/Src/stm32f7xx_hal_hcd.c ****       /* Incorrect mode, acknowledge the interrupt */
 524:Drivers/STM32F7xx_HAL_Driver/Src/stm32f7xx_hal_hcd.c ****       __HAL_HCD_CLEAR_FLAG(hhcd, USB_OTG_GINTSTS_PTXFE);
 525:Drivers/STM32F7xx_HAL_Driver/Src/stm32f7xx_hal_hcd.c ****     }
 526:Drivers/STM32F7xx_HAL_Driver/Src/stm32f7xx_hal_hcd.c **** 
 527:Drivers/STM32F7xx_HAL_Driver/Src/stm32f7xx_hal_hcd.c ****     if (__HAL_HCD_GET_FLAG(hhcd, USB_OTG_GINTSTS_MMIS))
 528:Drivers/STM32F7xx_HAL_Driver/Src/stm32f7xx_hal_hcd.c ****     {
 529:Drivers/STM32F7xx_HAL_Driver/Src/stm32f7xx_hal_hcd.c ****       /* Incorrect mode, acknowledge the interrupt */
 530:Drivers/STM32F7xx_HAL_Driver/Src/stm32f7xx_hal_hcd.c ****       __HAL_HCD_CLEAR_FLAG(hhcd, USB_OTG_GINTSTS_MMIS);
 531:Drivers/STM32F7xx_HAL_Driver/Src/stm32f7xx_hal_hcd.c ****     }
 532:Drivers/STM32F7xx_HAL_Driver/Src/stm32f7xx_hal_hcd.c **** 
 533:Drivers/STM32F7xx_HAL_Driver/Src/stm32f7xx_hal_hcd.c ****     /* Handle Host Disconnect Interrupts */
 534:Drivers/STM32F7xx_HAL_Driver/Src/stm32f7xx_hal_hcd.c ****     if (__HAL_HCD_GET_FLAG(hhcd, USB_OTG_GINTSTS_DISCINT))
 535:Drivers/STM32F7xx_HAL_Driver/Src/stm32f7xx_hal_hcd.c ****     {
 536:Drivers/STM32F7xx_HAL_Driver/Src/stm32f7xx_hal_hcd.c ****       __HAL_HCD_CLEAR_FLAG(hhcd, USB_OTG_GINTSTS_DISCINT);
 537:Drivers/STM32F7xx_HAL_Driver/Src/stm32f7xx_hal_hcd.c **** 
 538:Drivers/STM32F7xx_HAL_Driver/Src/stm32f7xx_hal_hcd.c ****       if ((USBx_HPRT0 & USB_OTG_HPRT_PCSTS) == 0U)
 539:Drivers/STM32F7xx_HAL_Driver/Src/stm32f7xx_hal_hcd.c ****       {
 540:Drivers/STM32F7xx_HAL_Driver/Src/stm32f7xx_hal_hcd.c ****         /* Handle Host Port Disconnect Interrupt */
 541:Drivers/STM32F7xx_HAL_Driver/Src/stm32f7xx_hal_hcd.c **** #if (USE_HAL_HCD_REGISTER_CALLBACKS == 1U)
 542:Drivers/STM32F7xx_HAL_Driver/Src/stm32f7xx_hal_hcd.c ****         hhcd->DisconnectCallback(hhcd);
 543:Drivers/STM32F7xx_HAL_Driver/Src/stm32f7xx_hal_hcd.c **** #else
ARM GAS  C:\Users\seblo\AppData\Local\Temp\ccHEsOvX.s 			page 11


 544:Drivers/STM32F7xx_HAL_Driver/Src/stm32f7xx_hal_hcd.c ****         HAL_HCD_Disconnect_Callback(hhcd);
 545:Drivers/STM32F7xx_HAL_Driver/Src/stm32f7xx_hal_hcd.c **** #endif /* USE_HAL_HCD_REGISTER_CALLBACKS */
 546:Drivers/STM32F7xx_HAL_Driver/Src/stm32f7xx_hal_hcd.c **** 
 547:Drivers/STM32F7xx_HAL_Driver/Src/stm32f7xx_hal_hcd.c ****         (void)USB_InitFSLSPClkSel(hhcd->Instance, HCFG_48_MHZ);
 548:Drivers/STM32F7xx_HAL_Driver/Src/stm32f7xx_hal_hcd.c ****       }
 549:Drivers/STM32F7xx_HAL_Driver/Src/stm32f7xx_hal_hcd.c ****     }
 550:Drivers/STM32F7xx_HAL_Driver/Src/stm32f7xx_hal_hcd.c **** 
 551:Drivers/STM32F7xx_HAL_Driver/Src/stm32f7xx_hal_hcd.c ****     /* Handle Host Port Interrupts */
 552:Drivers/STM32F7xx_HAL_Driver/Src/stm32f7xx_hal_hcd.c ****     if (__HAL_HCD_GET_FLAG(hhcd, USB_OTG_GINTSTS_HPRTINT))
 553:Drivers/STM32F7xx_HAL_Driver/Src/stm32f7xx_hal_hcd.c ****     {
 554:Drivers/STM32F7xx_HAL_Driver/Src/stm32f7xx_hal_hcd.c ****       HCD_Port_IRQHandler(hhcd);
 555:Drivers/STM32F7xx_HAL_Driver/Src/stm32f7xx_hal_hcd.c ****     }
 556:Drivers/STM32F7xx_HAL_Driver/Src/stm32f7xx_hal_hcd.c **** 
 557:Drivers/STM32F7xx_HAL_Driver/Src/stm32f7xx_hal_hcd.c ****     /* Handle Host SOF Interrupt */
 558:Drivers/STM32F7xx_HAL_Driver/Src/stm32f7xx_hal_hcd.c ****     if (__HAL_HCD_GET_FLAG(hhcd, USB_OTG_GINTSTS_SOF))
 559:Drivers/STM32F7xx_HAL_Driver/Src/stm32f7xx_hal_hcd.c ****     {
 560:Drivers/STM32F7xx_HAL_Driver/Src/stm32f7xx_hal_hcd.c **** #if (USE_HAL_HCD_REGISTER_CALLBACKS == 1U)
 561:Drivers/STM32F7xx_HAL_Driver/Src/stm32f7xx_hal_hcd.c ****       hhcd->SOFCallback(hhcd);
 562:Drivers/STM32F7xx_HAL_Driver/Src/stm32f7xx_hal_hcd.c **** #else
 563:Drivers/STM32F7xx_HAL_Driver/Src/stm32f7xx_hal_hcd.c ****       HAL_HCD_SOF_Callback(hhcd);
 564:Drivers/STM32F7xx_HAL_Driver/Src/stm32f7xx_hal_hcd.c **** #endif /* USE_HAL_HCD_REGISTER_CALLBACKS */
 565:Drivers/STM32F7xx_HAL_Driver/Src/stm32f7xx_hal_hcd.c **** 
 566:Drivers/STM32F7xx_HAL_Driver/Src/stm32f7xx_hal_hcd.c ****       __HAL_HCD_CLEAR_FLAG(hhcd, USB_OTG_GINTSTS_SOF);
 567:Drivers/STM32F7xx_HAL_Driver/Src/stm32f7xx_hal_hcd.c ****     }
 568:Drivers/STM32F7xx_HAL_Driver/Src/stm32f7xx_hal_hcd.c **** 
 569:Drivers/STM32F7xx_HAL_Driver/Src/stm32f7xx_hal_hcd.c ****     /* Handle Host channel Interrupt */
 570:Drivers/STM32F7xx_HAL_Driver/Src/stm32f7xx_hal_hcd.c ****     if (__HAL_HCD_GET_FLAG(hhcd, USB_OTG_GINTSTS_HCINT))
 571:Drivers/STM32F7xx_HAL_Driver/Src/stm32f7xx_hal_hcd.c ****     {
 572:Drivers/STM32F7xx_HAL_Driver/Src/stm32f7xx_hal_hcd.c ****       interrupt = USB_HC_ReadInterrupt(hhcd->Instance);
 573:Drivers/STM32F7xx_HAL_Driver/Src/stm32f7xx_hal_hcd.c ****       for (i = 0U; i < hhcd->Init.Host_channels; i++)
 574:Drivers/STM32F7xx_HAL_Driver/Src/stm32f7xx_hal_hcd.c ****       {
 575:Drivers/STM32F7xx_HAL_Driver/Src/stm32f7xx_hal_hcd.c ****         if ((interrupt & (1UL << (i & 0xFU))) != 0U)
 576:Drivers/STM32F7xx_HAL_Driver/Src/stm32f7xx_hal_hcd.c ****         {
 577:Drivers/STM32F7xx_HAL_Driver/Src/stm32f7xx_hal_hcd.c ****           if ((USBx_HC(i)->HCCHAR & USB_OTG_HCCHAR_EPDIR) == USB_OTG_HCCHAR_EPDIR)
 578:Drivers/STM32F7xx_HAL_Driver/Src/stm32f7xx_hal_hcd.c ****           {
 579:Drivers/STM32F7xx_HAL_Driver/Src/stm32f7xx_hal_hcd.c ****             HCD_HC_IN_IRQHandler(hhcd, (uint8_t)i);
 580:Drivers/STM32F7xx_HAL_Driver/Src/stm32f7xx_hal_hcd.c ****           }
 581:Drivers/STM32F7xx_HAL_Driver/Src/stm32f7xx_hal_hcd.c ****           else
 582:Drivers/STM32F7xx_HAL_Driver/Src/stm32f7xx_hal_hcd.c ****           {
 583:Drivers/STM32F7xx_HAL_Driver/Src/stm32f7xx_hal_hcd.c ****             HCD_HC_OUT_IRQHandler(hhcd, (uint8_t)i);
 584:Drivers/STM32F7xx_HAL_Driver/Src/stm32f7xx_hal_hcd.c ****           }
 585:Drivers/STM32F7xx_HAL_Driver/Src/stm32f7xx_hal_hcd.c ****         }
 586:Drivers/STM32F7xx_HAL_Driver/Src/stm32f7xx_hal_hcd.c ****       }
 587:Drivers/STM32F7xx_HAL_Driver/Src/stm32f7xx_hal_hcd.c ****       __HAL_HCD_CLEAR_FLAG(hhcd, USB_OTG_GINTSTS_HCINT);
 588:Drivers/STM32F7xx_HAL_Driver/Src/stm32f7xx_hal_hcd.c ****     }
 589:Drivers/STM32F7xx_HAL_Driver/Src/stm32f7xx_hal_hcd.c **** 
 590:Drivers/STM32F7xx_HAL_Driver/Src/stm32f7xx_hal_hcd.c ****     /* Handle Rx Queue Level Interrupts */
 591:Drivers/STM32F7xx_HAL_Driver/Src/stm32f7xx_hal_hcd.c ****     if ((__HAL_HCD_GET_FLAG(hhcd, USB_OTG_GINTSTS_RXFLVL)) != 0U)
 592:Drivers/STM32F7xx_HAL_Driver/Src/stm32f7xx_hal_hcd.c ****     {
 593:Drivers/STM32F7xx_HAL_Driver/Src/stm32f7xx_hal_hcd.c ****       USB_MASK_INTERRUPT(hhcd->Instance, USB_OTG_GINTSTS_RXFLVL);
 594:Drivers/STM32F7xx_HAL_Driver/Src/stm32f7xx_hal_hcd.c **** 
 595:Drivers/STM32F7xx_HAL_Driver/Src/stm32f7xx_hal_hcd.c ****       HCD_RXQLVL_IRQHandler(hhcd);
 596:Drivers/STM32F7xx_HAL_Driver/Src/stm32f7xx_hal_hcd.c **** 
 597:Drivers/STM32F7xx_HAL_Driver/Src/stm32f7xx_hal_hcd.c ****       USB_UNMASK_INTERRUPT(hhcd->Instance, USB_OTG_GINTSTS_RXFLVL);
 598:Drivers/STM32F7xx_HAL_Driver/Src/stm32f7xx_hal_hcd.c ****     }
 599:Drivers/STM32F7xx_HAL_Driver/Src/stm32f7xx_hal_hcd.c ****   }
 600:Drivers/STM32F7xx_HAL_Driver/Src/stm32f7xx_hal_hcd.c **** }
ARM GAS  C:\Users\seblo\AppData\Local\Temp\ccHEsOvX.s 			page 12


 601:Drivers/STM32F7xx_HAL_Driver/Src/stm32f7xx_hal_hcd.c **** 
 602:Drivers/STM32F7xx_HAL_Driver/Src/stm32f7xx_hal_hcd.c **** /**
 603:Drivers/STM32F7xx_HAL_Driver/Src/stm32f7xx_hal_hcd.c ****   * @brief  SOF callback.
 604:Drivers/STM32F7xx_HAL_Driver/Src/stm32f7xx_hal_hcd.c ****   * @param  hhcd HCD handle
 605:Drivers/STM32F7xx_HAL_Driver/Src/stm32f7xx_hal_hcd.c ****   * @retval None
 606:Drivers/STM32F7xx_HAL_Driver/Src/stm32f7xx_hal_hcd.c ****   */
 607:Drivers/STM32F7xx_HAL_Driver/Src/stm32f7xx_hal_hcd.c **** __weak void HAL_HCD_SOF_Callback(HCD_HandleTypeDef *hhcd)
 608:Drivers/STM32F7xx_HAL_Driver/Src/stm32f7xx_hal_hcd.c **** {
 609:Drivers/STM32F7xx_HAL_Driver/Src/stm32f7xx_hal_hcd.c ****   /* Prevent unused argument(s) compilation warning */
 610:Drivers/STM32F7xx_HAL_Driver/Src/stm32f7xx_hal_hcd.c ****   UNUSED(hhcd);
 611:Drivers/STM32F7xx_HAL_Driver/Src/stm32f7xx_hal_hcd.c **** 
 612:Drivers/STM32F7xx_HAL_Driver/Src/stm32f7xx_hal_hcd.c ****   /* NOTE : This function should not be modified, when the callback is needed,
 613:Drivers/STM32F7xx_HAL_Driver/Src/stm32f7xx_hal_hcd.c ****             the HAL_HCD_SOF_Callback could be implemented in the user file
 614:Drivers/STM32F7xx_HAL_Driver/Src/stm32f7xx_hal_hcd.c ****    */
 615:Drivers/STM32F7xx_HAL_Driver/Src/stm32f7xx_hal_hcd.c **** }
 616:Drivers/STM32F7xx_HAL_Driver/Src/stm32f7xx_hal_hcd.c **** 
 617:Drivers/STM32F7xx_HAL_Driver/Src/stm32f7xx_hal_hcd.c **** /**
 618:Drivers/STM32F7xx_HAL_Driver/Src/stm32f7xx_hal_hcd.c ****   * @brief Connection Event callback.
 619:Drivers/STM32F7xx_HAL_Driver/Src/stm32f7xx_hal_hcd.c ****   * @param  hhcd HCD handle
 620:Drivers/STM32F7xx_HAL_Driver/Src/stm32f7xx_hal_hcd.c ****   * @retval None
 621:Drivers/STM32F7xx_HAL_Driver/Src/stm32f7xx_hal_hcd.c ****   */
 622:Drivers/STM32F7xx_HAL_Driver/Src/stm32f7xx_hal_hcd.c **** __weak void HAL_HCD_Connect_Callback(HCD_HandleTypeDef *hhcd)
 623:Drivers/STM32F7xx_HAL_Driver/Src/stm32f7xx_hal_hcd.c **** {
 624:Drivers/STM32F7xx_HAL_Driver/Src/stm32f7xx_hal_hcd.c ****   /* Prevent unused argument(s) compilation warning */
 625:Drivers/STM32F7xx_HAL_Driver/Src/stm32f7xx_hal_hcd.c ****   UNUSED(hhcd);
 626:Drivers/STM32F7xx_HAL_Driver/Src/stm32f7xx_hal_hcd.c **** 
 627:Drivers/STM32F7xx_HAL_Driver/Src/stm32f7xx_hal_hcd.c ****   /* NOTE : This function should not be modified, when the callback is needed,
 628:Drivers/STM32F7xx_HAL_Driver/Src/stm32f7xx_hal_hcd.c ****             the HAL_HCD_Connect_Callback could be implemented in the user file
 629:Drivers/STM32F7xx_HAL_Driver/Src/stm32f7xx_hal_hcd.c ****    */
 630:Drivers/STM32F7xx_HAL_Driver/Src/stm32f7xx_hal_hcd.c **** }
 631:Drivers/STM32F7xx_HAL_Driver/Src/stm32f7xx_hal_hcd.c **** 
 632:Drivers/STM32F7xx_HAL_Driver/Src/stm32f7xx_hal_hcd.c **** /**
 633:Drivers/STM32F7xx_HAL_Driver/Src/stm32f7xx_hal_hcd.c ****   * @brief  Disconnection Event callback.
 634:Drivers/STM32F7xx_HAL_Driver/Src/stm32f7xx_hal_hcd.c ****   * @param  hhcd HCD handle
 635:Drivers/STM32F7xx_HAL_Driver/Src/stm32f7xx_hal_hcd.c ****   * @retval None
 636:Drivers/STM32F7xx_HAL_Driver/Src/stm32f7xx_hal_hcd.c ****   */
 637:Drivers/STM32F7xx_HAL_Driver/Src/stm32f7xx_hal_hcd.c **** __weak void HAL_HCD_Disconnect_Callback(HCD_HandleTypeDef *hhcd)
 638:Drivers/STM32F7xx_HAL_Driver/Src/stm32f7xx_hal_hcd.c **** {
 639:Drivers/STM32F7xx_HAL_Driver/Src/stm32f7xx_hal_hcd.c ****   /* Prevent unused argument(s) compilation warning */
 640:Drivers/STM32F7xx_HAL_Driver/Src/stm32f7xx_hal_hcd.c ****   UNUSED(hhcd);
 641:Drivers/STM32F7xx_HAL_Driver/Src/stm32f7xx_hal_hcd.c **** 
 642:Drivers/STM32F7xx_HAL_Driver/Src/stm32f7xx_hal_hcd.c ****   /* NOTE : This function should not be modified, when the callback is needed,
 643:Drivers/STM32F7xx_HAL_Driver/Src/stm32f7xx_hal_hcd.c ****             the HAL_HCD_Disconnect_Callback could be implemented in the user file
 644:Drivers/STM32F7xx_HAL_Driver/Src/stm32f7xx_hal_hcd.c ****    */
 645:Drivers/STM32F7xx_HAL_Driver/Src/stm32f7xx_hal_hcd.c **** }
 646:Drivers/STM32F7xx_HAL_Driver/Src/stm32f7xx_hal_hcd.c **** 
 647:Drivers/STM32F7xx_HAL_Driver/Src/stm32f7xx_hal_hcd.c **** /**
 648:Drivers/STM32F7xx_HAL_Driver/Src/stm32f7xx_hal_hcd.c ****   * @brief  Port Enabled  Event callback.
 649:Drivers/STM32F7xx_HAL_Driver/Src/stm32f7xx_hal_hcd.c ****   * @param  hhcd HCD handle
 650:Drivers/STM32F7xx_HAL_Driver/Src/stm32f7xx_hal_hcd.c ****   * @retval None
 651:Drivers/STM32F7xx_HAL_Driver/Src/stm32f7xx_hal_hcd.c ****   */
 652:Drivers/STM32F7xx_HAL_Driver/Src/stm32f7xx_hal_hcd.c **** __weak void HAL_HCD_PortEnabled_Callback(HCD_HandleTypeDef *hhcd)
 653:Drivers/STM32F7xx_HAL_Driver/Src/stm32f7xx_hal_hcd.c **** {
 654:Drivers/STM32F7xx_HAL_Driver/Src/stm32f7xx_hal_hcd.c ****   /* Prevent unused argument(s) compilation warning */
 655:Drivers/STM32F7xx_HAL_Driver/Src/stm32f7xx_hal_hcd.c ****   UNUSED(hhcd);
 656:Drivers/STM32F7xx_HAL_Driver/Src/stm32f7xx_hal_hcd.c **** 
 657:Drivers/STM32F7xx_HAL_Driver/Src/stm32f7xx_hal_hcd.c ****   /* NOTE : This function should not be modified, when the callback is needed,
ARM GAS  C:\Users\seblo\AppData\Local\Temp\ccHEsOvX.s 			page 13


 658:Drivers/STM32F7xx_HAL_Driver/Src/stm32f7xx_hal_hcd.c ****             the HAL_HCD_Disconnect_Callback could be implemented in the user file
 659:Drivers/STM32F7xx_HAL_Driver/Src/stm32f7xx_hal_hcd.c ****    */
 660:Drivers/STM32F7xx_HAL_Driver/Src/stm32f7xx_hal_hcd.c **** }
 661:Drivers/STM32F7xx_HAL_Driver/Src/stm32f7xx_hal_hcd.c **** 
 662:Drivers/STM32F7xx_HAL_Driver/Src/stm32f7xx_hal_hcd.c **** /**
 663:Drivers/STM32F7xx_HAL_Driver/Src/stm32f7xx_hal_hcd.c ****   * @brief  Port Disabled  Event callback.
 664:Drivers/STM32F7xx_HAL_Driver/Src/stm32f7xx_hal_hcd.c ****   * @param  hhcd HCD handle
 665:Drivers/STM32F7xx_HAL_Driver/Src/stm32f7xx_hal_hcd.c ****   * @retval None
 666:Drivers/STM32F7xx_HAL_Driver/Src/stm32f7xx_hal_hcd.c ****   */
 667:Drivers/STM32F7xx_HAL_Driver/Src/stm32f7xx_hal_hcd.c **** __weak void HAL_HCD_PortDisabled_Callback(HCD_HandleTypeDef *hhcd)
 668:Drivers/STM32F7xx_HAL_Driver/Src/stm32f7xx_hal_hcd.c **** {
 669:Drivers/STM32F7xx_HAL_Driver/Src/stm32f7xx_hal_hcd.c ****   /* Prevent unused argument(s) compilation warning */
 670:Drivers/STM32F7xx_HAL_Driver/Src/stm32f7xx_hal_hcd.c ****   UNUSED(hhcd);
 671:Drivers/STM32F7xx_HAL_Driver/Src/stm32f7xx_hal_hcd.c **** 
 672:Drivers/STM32F7xx_HAL_Driver/Src/stm32f7xx_hal_hcd.c ****   /* NOTE : This function should not be modified, when the callback is needed,
 673:Drivers/STM32F7xx_HAL_Driver/Src/stm32f7xx_hal_hcd.c ****             the HAL_HCD_Disconnect_Callback could be implemented in the user file
 674:Drivers/STM32F7xx_HAL_Driver/Src/stm32f7xx_hal_hcd.c ****    */
 675:Drivers/STM32F7xx_HAL_Driver/Src/stm32f7xx_hal_hcd.c **** }
 676:Drivers/STM32F7xx_HAL_Driver/Src/stm32f7xx_hal_hcd.c **** 
 677:Drivers/STM32F7xx_HAL_Driver/Src/stm32f7xx_hal_hcd.c **** /**
 678:Drivers/STM32F7xx_HAL_Driver/Src/stm32f7xx_hal_hcd.c ****   * @brief  Notify URB state change callback.
 679:Drivers/STM32F7xx_HAL_Driver/Src/stm32f7xx_hal_hcd.c ****   * @param  hhcd HCD handle
 680:Drivers/STM32F7xx_HAL_Driver/Src/stm32f7xx_hal_hcd.c ****   * @param  chnum Channel number.
 681:Drivers/STM32F7xx_HAL_Driver/Src/stm32f7xx_hal_hcd.c ****   *         This parameter can be a value from 1 to 15
 682:Drivers/STM32F7xx_HAL_Driver/Src/stm32f7xx_hal_hcd.c ****   * @param  urb_state:
 683:Drivers/STM32F7xx_HAL_Driver/Src/stm32f7xx_hal_hcd.c ****   *          This parameter can be one of these values:
 684:Drivers/STM32F7xx_HAL_Driver/Src/stm32f7xx_hal_hcd.c ****   *            URB_IDLE/
 685:Drivers/STM32F7xx_HAL_Driver/Src/stm32f7xx_hal_hcd.c ****   *            URB_DONE/
 686:Drivers/STM32F7xx_HAL_Driver/Src/stm32f7xx_hal_hcd.c ****   *            URB_NOTREADY/
 687:Drivers/STM32F7xx_HAL_Driver/Src/stm32f7xx_hal_hcd.c ****   *            URB_NYET/
 688:Drivers/STM32F7xx_HAL_Driver/Src/stm32f7xx_hal_hcd.c ****   *            URB_ERROR/
 689:Drivers/STM32F7xx_HAL_Driver/Src/stm32f7xx_hal_hcd.c ****   *            URB_STALL/
 690:Drivers/STM32F7xx_HAL_Driver/Src/stm32f7xx_hal_hcd.c ****   * @retval None
 691:Drivers/STM32F7xx_HAL_Driver/Src/stm32f7xx_hal_hcd.c ****   */
 692:Drivers/STM32F7xx_HAL_Driver/Src/stm32f7xx_hal_hcd.c **** __weak void HAL_HCD_HC_NotifyURBChange_Callback(HCD_HandleTypeDef *hhcd, uint8_t chnum, HCD_URBStat
 693:Drivers/STM32F7xx_HAL_Driver/Src/stm32f7xx_hal_hcd.c **** {
 694:Drivers/STM32F7xx_HAL_Driver/Src/stm32f7xx_hal_hcd.c ****   /* Prevent unused argument(s) compilation warning */
 695:Drivers/STM32F7xx_HAL_Driver/Src/stm32f7xx_hal_hcd.c ****   UNUSED(hhcd);
 696:Drivers/STM32F7xx_HAL_Driver/Src/stm32f7xx_hal_hcd.c ****   UNUSED(chnum);
 697:Drivers/STM32F7xx_HAL_Driver/Src/stm32f7xx_hal_hcd.c ****   UNUSED(urb_state);
 698:Drivers/STM32F7xx_HAL_Driver/Src/stm32f7xx_hal_hcd.c **** 
 699:Drivers/STM32F7xx_HAL_Driver/Src/stm32f7xx_hal_hcd.c ****   /* NOTE : This function should not be modified, when the callback is needed,
 700:Drivers/STM32F7xx_HAL_Driver/Src/stm32f7xx_hal_hcd.c ****             the HAL_HCD_HC_NotifyURBChange_Callback could be implemented in the user file
 701:Drivers/STM32F7xx_HAL_Driver/Src/stm32f7xx_hal_hcd.c ****    */
 702:Drivers/STM32F7xx_HAL_Driver/Src/stm32f7xx_hal_hcd.c **** }
 703:Drivers/STM32F7xx_HAL_Driver/Src/stm32f7xx_hal_hcd.c **** 
 704:Drivers/STM32F7xx_HAL_Driver/Src/stm32f7xx_hal_hcd.c **** #if (USE_HAL_HCD_REGISTER_CALLBACKS == 1U)
 705:Drivers/STM32F7xx_HAL_Driver/Src/stm32f7xx_hal_hcd.c **** /**
 706:Drivers/STM32F7xx_HAL_Driver/Src/stm32f7xx_hal_hcd.c ****   * @brief  Register a User USB HCD Callback
 707:Drivers/STM32F7xx_HAL_Driver/Src/stm32f7xx_hal_hcd.c ****   *         To be used instead of the weak predefined callback
 708:Drivers/STM32F7xx_HAL_Driver/Src/stm32f7xx_hal_hcd.c ****   * @param  hhcd USB HCD handle
 709:Drivers/STM32F7xx_HAL_Driver/Src/stm32f7xx_hal_hcd.c ****   * @param  CallbackID ID of the callback to be registered
 710:Drivers/STM32F7xx_HAL_Driver/Src/stm32f7xx_hal_hcd.c ****   *         This parameter can be one of the following values:
 711:Drivers/STM32F7xx_HAL_Driver/Src/stm32f7xx_hal_hcd.c ****   *          @arg @ref HAL_HCD_SOF_CB_ID USB HCD SOF callback ID
 712:Drivers/STM32F7xx_HAL_Driver/Src/stm32f7xx_hal_hcd.c ****   *          @arg @ref HAL_HCD_CONNECT_CB_ID USB HCD Connect callback ID
 713:Drivers/STM32F7xx_HAL_Driver/Src/stm32f7xx_hal_hcd.c ****   *          @arg @ref HAL_HCD_DISCONNECT_CB_ID OTG HCD Disconnect callback ID
 714:Drivers/STM32F7xx_HAL_Driver/Src/stm32f7xx_hal_hcd.c ****   *          @arg @ref HAL_HCD_PORT_ENABLED_CB_ID USB HCD Port Enable callback ID
ARM GAS  C:\Users\seblo\AppData\Local\Temp\ccHEsOvX.s 			page 14


 715:Drivers/STM32F7xx_HAL_Driver/Src/stm32f7xx_hal_hcd.c ****   *          @arg @ref HAL_HCD_PORT_DISABLED_CB_ID USB HCD Port Disable callback ID
 716:Drivers/STM32F7xx_HAL_Driver/Src/stm32f7xx_hal_hcd.c ****   *          @arg @ref HAL_HCD_MSPINIT_CB_ID MspDeInit callback ID
 717:Drivers/STM32F7xx_HAL_Driver/Src/stm32f7xx_hal_hcd.c ****   *          @arg @ref HAL_HCD_MSPDEINIT_CB_ID MspDeInit callback ID
 718:Drivers/STM32F7xx_HAL_Driver/Src/stm32f7xx_hal_hcd.c ****   * @param  pCallback pointer to the Callback function
 719:Drivers/STM32F7xx_HAL_Driver/Src/stm32f7xx_hal_hcd.c ****   * @retval HAL status
 720:Drivers/STM32F7xx_HAL_Driver/Src/stm32f7xx_hal_hcd.c ****   */
 721:Drivers/STM32F7xx_HAL_Driver/Src/stm32f7xx_hal_hcd.c **** HAL_StatusTypeDef HAL_HCD_RegisterCallback(HCD_HandleTypeDef *hhcd, HAL_HCD_CallbackIDTypeDef Callb
 722:Drivers/STM32F7xx_HAL_Driver/Src/stm32f7xx_hal_hcd.c **** {
 723:Drivers/STM32F7xx_HAL_Driver/Src/stm32f7xx_hal_hcd.c ****   HAL_StatusTypeDef status = HAL_OK;
 724:Drivers/STM32F7xx_HAL_Driver/Src/stm32f7xx_hal_hcd.c **** 
 725:Drivers/STM32F7xx_HAL_Driver/Src/stm32f7xx_hal_hcd.c ****   if (pCallback == NULL)
 726:Drivers/STM32F7xx_HAL_Driver/Src/stm32f7xx_hal_hcd.c ****   {
 727:Drivers/STM32F7xx_HAL_Driver/Src/stm32f7xx_hal_hcd.c ****     /* Update the error code */
 728:Drivers/STM32F7xx_HAL_Driver/Src/stm32f7xx_hal_hcd.c ****     hhcd->ErrorCode |= HAL_HCD_ERROR_INVALID_CALLBACK;
 729:Drivers/STM32F7xx_HAL_Driver/Src/stm32f7xx_hal_hcd.c ****     return HAL_ERROR;
 730:Drivers/STM32F7xx_HAL_Driver/Src/stm32f7xx_hal_hcd.c ****   }
 731:Drivers/STM32F7xx_HAL_Driver/Src/stm32f7xx_hal_hcd.c ****   /* Process locked */
 732:Drivers/STM32F7xx_HAL_Driver/Src/stm32f7xx_hal_hcd.c ****   __HAL_LOCK(hhcd);
 733:Drivers/STM32F7xx_HAL_Driver/Src/stm32f7xx_hal_hcd.c **** 
 734:Drivers/STM32F7xx_HAL_Driver/Src/stm32f7xx_hal_hcd.c ****   if (hhcd->State == HAL_HCD_STATE_READY)
 735:Drivers/STM32F7xx_HAL_Driver/Src/stm32f7xx_hal_hcd.c ****   {
 736:Drivers/STM32F7xx_HAL_Driver/Src/stm32f7xx_hal_hcd.c ****     switch (CallbackID)
 737:Drivers/STM32F7xx_HAL_Driver/Src/stm32f7xx_hal_hcd.c ****     {
 738:Drivers/STM32F7xx_HAL_Driver/Src/stm32f7xx_hal_hcd.c ****       case HAL_HCD_SOF_CB_ID :
 739:Drivers/STM32F7xx_HAL_Driver/Src/stm32f7xx_hal_hcd.c ****         hhcd->SOFCallback = pCallback;
 740:Drivers/STM32F7xx_HAL_Driver/Src/stm32f7xx_hal_hcd.c ****         break;
 741:Drivers/STM32F7xx_HAL_Driver/Src/stm32f7xx_hal_hcd.c **** 
 742:Drivers/STM32F7xx_HAL_Driver/Src/stm32f7xx_hal_hcd.c ****       case HAL_HCD_CONNECT_CB_ID :
 743:Drivers/STM32F7xx_HAL_Driver/Src/stm32f7xx_hal_hcd.c ****         hhcd->ConnectCallback = pCallback;
 744:Drivers/STM32F7xx_HAL_Driver/Src/stm32f7xx_hal_hcd.c ****         break;
 745:Drivers/STM32F7xx_HAL_Driver/Src/stm32f7xx_hal_hcd.c **** 
 746:Drivers/STM32F7xx_HAL_Driver/Src/stm32f7xx_hal_hcd.c ****       case HAL_HCD_DISCONNECT_CB_ID :
 747:Drivers/STM32F7xx_HAL_Driver/Src/stm32f7xx_hal_hcd.c ****         hhcd->DisconnectCallback = pCallback;
 748:Drivers/STM32F7xx_HAL_Driver/Src/stm32f7xx_hal_hcd.c ****         break;
 749:Drivers/STM32F7xx_HAL_Driver/Src/stm32f7xx_hal_hcd.c **** 
 750:Drivers/STM32F7xx_HAL_Driver/Src/stm32f7xx_hal_hcd.c ****       case HAL_HCD_PORT_ENABLED_CB_ID :
 751:Drivers/STM32F7xx_HAL_Driver/Src/stm32f7xx_hal_hcd.c ****         hhcd->PortEnabledCallback = pCallback;
 752:Drivers/STM32F7xx_HAL_Driver/Src/stm32f7xx_hal_hcd.c ****         break;
 753:Drivers/STM32F7xx_HAL_Driver/Src/stm32f7xx_hal_hcd.c **** 
 754:Drivers/STM32F7xx_HAL_Driver/Src/stm32f7xx_hal_hcd.c ****       case HAL_HCD_PORT_DISABLED_CB_ID :
 755:Drivers/STM32F7xx_HAL_Driver/Src/stm32f7xx_hal_hcd.c ****         hhcd->PortDisabledCallback = pCallback;
 756:Drivers/STM32F7xx_HAL_Driver/Src/stm32f7xx_hal_hcd.c ****         break;
 757:Drivers/STM32F7xx_HAL_Driver/Src/stm32f7xx_hal_hcd.c **** 
 758:Drivers/STM32F7xx_HAL_Driver/Src/stm32f7xx_hal_hcd.c ****       case HAL_HCD_MSPINIT_CB_ID :
 759:Drivers/STM32F7xx_HAL_Driver/Src/stm32f7xx_hal_hcd.c ****         hhcd->MspInitCallback = pCallback;
 760:Drivers/STM32F7xx_HAL_Driver/Src/stm32f7xx_hal_hcd.c ****         break;
 761:Drivers/STM32F7xx_HAL_Driver/Src/stm32f7xx_hal_hcd.c **** 
 762:Drivers/STM32F7xx_HAL_Driver/Src/stm32f7xx_hal_hcd.c ****       case HAL_HCD_MSPDEINIT_CB_ID :
 763:Drivers/STM32F7xx_HAL_Driver/Src/stm32f7xx_hal_hcd.c ****         hhcd->MspDeInitCallback = pCallback;
 764:Drivers/STM32F7xx_HAL_Driver/Src/stm32f7xx_hal_hcd.c ****         break;
 765:Drivers/STM32F7xx_HAL_Driver/Src/stm32f7xx_hal_hcd.c **** 
 766:Drivers/STM32F7xx_HAL_Driver/Src/stm32f7xx_hal_hcd.c ****       default :
 767:Drivers/STM32F7xx_HAL_Driver/Src/stm32f7xx_hal_hcd.c ****         /* Update the error code */
 768:Drivers/STM32F7xx_HAL_Driver/Src/stm32f7xx_hal_hcd.c ****         hhcd->ErrorCode |= HAL_HCD_ERROR_INVALID_CALLBACK;
 769:Drivers/STM32F7xx_HAL_Driver/Src/stm32f7xx_hal_hcd.c ****         /* Return error status */
 770:Drivers/STM32F7xx_HAL_Driver/Src/stm32f7xx_hal_hcd.c ****         status =  HAL_ERROR;
 771:Drivers/STM32F7xx_HAL_Driver/Src/stm32f7xx_hal_hcd.c ****         break;
ARM GAS  C:\Users\seblo\AppData\Local\Temp\ccHEsOvX.s 			page 15


 772:Drivers/STM32F7xx_HAL_Driver/Src/stm32f7xx_hal_hcd.c ****     }
 773:Drivers/STM32F7xx_HAL_Driver/Src/stm32f7xx_hal_hcd.c ****   }
 774:Drivers/STM32F7xx_HAL_Driver/Src/stm32f7xx_hal_hcd.c ****   else if (hhcd->State == HAL_HCD_STATE_RESET)
 775:Drivers/STM32F7xx_HAL_Driver/Src/stm32f7xx_hal_hcd.c ****   {
 776:Drivers/STM32F7xx_HAL_Driver/Src/stm32f7xx_hal_hcd.c ****     switch (CallbackID)
 777:Drivers/STM32F7xx_HAL_Driver/Src/stm32f7xx_hal_hcd.c ****     {
 778:Drivers/STM32F7xx_HAL_Driver/Src/stm32f7xx_hal_hcd.c ****       case HAL_HCD_MSPINIT_CB_ID :
 779:Drivers/STM32F7xx_HAL_Driver/Src/stm32f7xx_hal_hcd.c ****         hhcd->MspInitCallback = pCallback;
 780:Drivers/STM32F7xx_HAL_Driver/Src/stm32f7xx_hal_hcd.c ****         break;
 781:Drivers/STM32F7xx_HAL_Driver/Src/stm32f7xx_hal_hcd.c **** 
 782:Drivers/STM32F7xx_HAL_Driver/Src/stm32f7xx_hal_hcd.c ****       case HAL_HCD_MSPDEINIT_CB_ID :
 783:Drivers/STM32F7xx_HAL_Driver/Src/stm32f7xx_hal_hcd.c ****         hhcd->MspDeInitCallback = pCallback;
 784:Drivers/STM32F7xx_HAL_Driver/Src/stm32f7xx_hal_hcd.c ****         break;
 785:Drivers/STM32F7xx_HAL_Driver/Src/stm32f7xx_hal_hcd.c **** 
 786:Drivers/STM32F7xx_HAL_Driver/Src/stm32f7xx_hal_hcd.c ****       default :
 787:Drivers/STM32F7xx_HAL_Driver/Src/stm32f7xx_hal_hcd.c ****         /* Update the error code */
 788:Drivers/STM32F7xx_HAL_Driver/Src/stm32f7xx_hal_hcd.c ****         hhcd->ErrorCode |= HAL_HCD_ERROR_INVALID_CALLBACK;
 789:Drivers/STM32F7xx_HAL_Driver/Src/stm32f7xx_hal_hcd.c ****         /* Return error status */
 790:Drivers/STM32F7xx_HAL_Driver/Src/stm32f7xx_hal_hcd.c ****         status =  HAL_ERROR;
 791:Drivers/STM32F7xx_HAL_Driver/Src/stm32f7xx_hal_hcd.c ****         break;
 792:Drivers/STM32F7xx_HAL_Driver/Src/stm32f7xx_hal_hcd.c ****     }
 793:Drivers/STM32F7xx_HAL_Driver/Src/stm32f7xx_hal_hcd.c ****   }
 794:Drivers/STM32F7xx_HAL_Driver/Src/stm32f7xx_hal_hcd.c ****   else
 795:Drivers/STM32F7xx_HAL_Driver/Src/stm32f7xx_hal_hcd.c ****   {
 796:Drivers/STM32F7xx_HAL_Driver/Src/stm32f7xx_hal_hcd.c ****     /* Update the error code */
 797:Drivers/STM32F7xx_HAL_Driver/Src/stm32f7xx_hal_hcd.c ****     hhcd->ErrorCode |= HAL_HCD_ERROR_INVALID_CALLBACK;
 798:Drivers/STM32F7xx_HAL_Driver/Src/stm32f7xx_hal_hcd.c ****     /* Return error status */
 799:Drivers/STM32F7xx_HAL_Driver/Src/stm32f7xx_hal_hcd.c ****     status =  HAL_ERROR;
 800:Drivers/STM32F7xx_HAL_Driver/Src/stm32f7xx_hal_hcd.c ****   }
 801:Drivers/STM32F7xx_HAL_Driver/Src/stm32f7xx_hal_hcd.c **** 
 802:Drivers/STM32F7xx_HAL_Driver/Src/stm32f7xx_hal_hcd.c ****   /* Release Lock */
 803:Drivers/STM32F7xx_HAL_Driver/Src/stm32f7xx_hal_hcd.c ****   __HAL_UNLOCK(hhcd);
 804:Drivers/STM32F7xx_HAL_Driver/Src/stm32f7xx_hal_hcd.c ****   return status;
 805:Drivers/STM32F7xx_HAL_Driver/Src/stm32f7xx_hal_hcd.c **** }
 806:Drivers/STM32F7xx_HAL_Driver/Src/stm32f7xx_hal_hcd.c **** 
 807:Drivers/STM32F7xx_HAL_Driver/Src/stm32f7xx_hal_hcd.c **** /**
 808:Drivers/STM32F7xx_HAL_Driver/Src/stm32f7xx_hal_hcd.c ****   * @brief  Unregister an USB HCD Callback
 809:Drivers/STM32F7xx_HAL_Driver/Src/stm32f7xx_hal_hcd.c ****   *         USB HCD callabck is redirected to the weak predefined callback
 810:Drivers/STM32F7xx_HAL_Driver/Src/stm32f7xx_hal_hcd.c ****   * @param  hhcd USB HCD handle
 811:Drivers/STM32F7xx_HAL_Driver/Src/stm32f7xx_hal_hcd.c ****   * @param  CallbackID ID of the callback to be unregistered
 812:Drivers/STM32F7xx_HAL_Driver/Src/stm32f7xx_hal_hcd.c ****   *         This parameter can be one of the following values:
 813:Drivers/STM32F7xx_HAL_Driver/Src/stm32f7xx_hal_hcd.c ****   *          @arg @ref HAL_HCD_SOF_CB_ID USB HCD SOF callback ID
 814:Drivers/STM32F7xx_HAL_Driver/Src/stm32f7xx_hal_hcd.c ****   *          @arg @ref HAL_HCD_CONNECT_CB_ID USB HCD Connect callback ID
 815:Drivers/STM32F7xx_HAL_Driver/Src/stm32f7xx_hal_hcd.c ****   *          @arg @ref HAL_HCD_DISCONNECT_CB_ID OTG HCD Disconnect callback ID
 816:Drivers/STM32F7xx_HAL_Driver/Src/stm32f7xx_hal_hcd.c ****   *          @arg @ref HAL_HCD_PORT_ENABLED_CB_ID USB HCD Port Enabled callback ID
 817:Drivers/STM32F7xx_HAL_Driver/Src/stm32f7xx_hal_hcd.c ****   *          @arg @ref HAL_HCD_PORT_DISABLED_CB_ID USB HCD Port Disabled callback ID
 818:Drivers/STM32F7xx_HAL_Driver/Src/stm32f7xx_hal_hcd.c ****   *          @arg @ref HAL_HCD_MSPINIT_CB_ID MspDeInit callback ID
 819:Drivers/STM32F7xx_HAL_Driver/Src/stm32f7xx_hal_hcd.c ****   *          @arg @ref HAL_HCD_MSPDEINIT_CB_ID MspDeInit callback ID
 820:Drivers/STM32F7xx_HAL_Driver/Src/stm32f7xx_hal_hcd.c ****   * @retval HAL status
 821:Drivers/STM32F7xx_HAL_Driver/Src/stm32f7xx_hal_hcd.c ****   */
 822:Drivers/STM32F7xx_HAL_Driver/Src/stm32f7xx_hal_hcd.c **** HAL_StatusTypeDef HAL_HCD_UnRegisterCallback(HCD_HandleTypeDef *hhcd, HAL_HCD_CallbackIDTypeDef Cal
 823:Drivers/STM32F7xx_HAL_Driver/Src/stm32f7xx_hal_hcd.c **** {
 824:Drivers/STM32F7xx_HAL_Driver/Src/stm32f7xx_hal_hcd.c ****   HAL_StatusTypeDef status = HAL_OK;
 825:Drivers/STM32F7xx_HAL_Driver/Src/stm32f7xx_hal_hcd.c **** 
 826:Drivers/STM32F7xx_HAL_Driver/Src/stm32f7xx_hal_hcd.c ****   /* Process locked */
 827:Drivers/STM32F7xx_HAL_Driver/Src/stm32f7xx_hal_hcd.c ****   __HAL_LOCK(hhcd);
 828:Drivers/STM32F7xx_HAL_Driver/Src/stm32f7xx_hal_hcd.c **** 
ARM GAS  C:\Users\seblo\AppData\Local\Temp\ccHEsOvX.s 			page 16


 829:Drivers/STM32F7xx_HAL_Driver/Src/stm32f7xx_hal_hcd.c ****   /* Setup Legacy weak Callbacks  */
 830:Drivers/STM32F7xx_HAL_Driver/Src/stm32f7xx_hal_hcd.c ****   if (hhcd->State == HAL_HCD_STATE_READY)
 831:Drivers/STM32F7xx_HAL_Driver/Src/stm32f7xx_hal_hcd.c ****   {
 832:Drivers/STM32F7xx_HAL_Driver/Src/stm32f7xx_hal_hcd.c ****     switch (CallbackID)
 833:Drivers/STM32F7xx_HAL_Driver/Src/stm32f7xx_hal_hcd.c ****     {
 834:Drivers/STM32F7xx_HAL_Driver/Src/stm32f7xx_hal_hcd.c ****       case HAL_HCD_SOF_CB_ID :
 835:Drivers/STM32F7xx_HAL_Driver/Src/stm32f7xx_hal_hcd.c ****         hhcd->SOFCallback = HAL_HCD_SOF_Callback;
 836:Drivers/STM32F7xx_HAL_Driver/Src/stm32f7xx_hal_hcd.c ****         break;
 837:Drivers/STM32F7xx_HAL_Driver/Src/stm32f7xx_hal_hcd.c **** 
 838:Drivers/STM32F7xx_HAL_Driver/Src/stm32f7xx_hal_hcd.c ****       case HAL_HCD_CONNECT_CB_ID :
 839:Drivers/STM32F7xx_HAL_Driver/Src/stm32f7xx_hal_hcd.c ****         hhcd->ConnectCallback = HAL_HCD_Connect_Callback;
 840:Drivers/STM32F7xx_HAL_Driver/Src/stm32f7xx_hal_hcd.c ****         break;
 841:Drivers/STM32F7xx_HAL_Driver/Src/stm32f7xx_hal_hcd.c **** 
 842:Drivers/STM32F7xx_HAL_Driver/Src/stm32f7xx_hal_hcd.c ****       case HAL_HCD_DISCONNECT_CB_ID :
 843:Drivers/STM32F7xx_HAL_Driver/Src/stm32f7xx_hal_hcd.c ****         hhcd->DisconnectCallback = HAL_HCD_Disconnect_Callback;
 844:Drivers/STM32F7xx_HAL_Driver/Src/stm32f7xx_hal_hcd.c ****         break;
 845:Drivers/STM32F7xx_HAL_Driver/Src/stm32f7xx_hal_hcd.c **** 
 846:Drivers/STM32F7xx_HAL_Driver/Src/stm32f7xx_hal_hcd.c ****       case HAL_HCD_PORT_ENABLED_CB_ID :
 847:Drivers/STM32F7xx_HAL_Driver/Src/stm32f7xx_hal_hcd.c ****         hhcd->PortEnabledCallback = HAL_HCD_PortEnabled_Callback;
 848:Drivers/STM32F7xx_HAL_Driver/Src/stm32f7xx_hal_hcd.c ****         break;
 849:Drivers/STM32F7xx_HAL_Driver/Src/stm32f7xx_hal_hcd.c **** 
 850:Drivers/STM32F7xx_HAL_Driver/Src/stm32f7xx_hal_hcd.c ****       case HAL_HCD_PORT_DISABLED_CB_ID :
 851:Drivers/STM32F7xx_HAL_Driver/Src/stm32f7xx_hal_hcd.c ****         hhcd->PortDisabledCallback = HAL_HCD_PortDisabled_Callback;
 852:Drivers/STM32F7xx_HAL_Driver/Src/stm32f7xx_hal_hcd.c ****         break;
 853:Drivers/STM32F7xx_HAL_Driver/Src/stm32f7xx_hal_hcd.c **** 
 854:Drivers/STM32F7xx_HAL_Driver/Src/stm32f7xx_hal_hcd.c ****       case HAL_HCD_MSPINIT_CB_ID :
 855:Drivers/STM32F7xx_HAL_Driver/Src/stm32f7xx_hal_hcd.c ****         hhcd->MspInitCallback = HAL_HCD_MspInit;
 856:Drivers/STM32F7xx_HAL_Driver/Src/stm32f7xx_hal_hcd.c ****         break;
 857:Drivers/STM32F7xx_HAL_Driver/Src/stm32f7xx_hal_hcd.c **** 
 858:Drivers/STM32F7xx_HAL_Driver/Src/stm32f7xx_hal_hcd.c ****       case HAL_HCD_MSPDEINIT_CB_ID :
 859:Drivers/STM32F7xx_HAL_Driver/Src/stm32f7xx_hal_hcd.c ****         hhcd->MspDeInitCallback = HAL_HCD_MspDeInit;
 860:Drivers/STM32F7xx_HAL_Driver/Src/stm32f7xx_hal_hcd.c ****         break;
 861:Drivers/STM32F7xx_HAL_Driver/Src/stm32f7xx_hal_hcd.c **** 
 862:Drivers/STM32F7xx_HAL_Driver/Src/stm32f7xx_hal_hcd.c ****       default :
 863:Drivers/STM32F7xx_HAL_Driver/Src/stm32f7xx_hal_hcd.c ****         /* Update the error code */
 864:Drivers/STM32F7xx_HAL_Driver/Src/stm32f7xx_hal_hcd.c ****         hhcd->ErrorCode |= HAL_HCD_ERROR_INVALID_CALLBACK;
 865:Drivers/STM32F7xx_HAL_Driver/Src/stm32f7xx_hal_hcd.c **** 
 866:Drivers/STM32F7xx_HAL_Driver/Src/stm32f7xx_hal_hcd.c ****         /* Return error status */
 867:Drivers/STM32F7xx_HAL_Driver/Src/stm32f7xx_hal_hcd.c ****         status =  HAL_ERROR;
 868:Drivers/STM32F7xx_HAL_Driver/Src/stm32f7xx_hal_hcd.c ****         break;
 869:Drivers/STM32F7xx_HAL_Driver/Src/stm32f7xx_hal_hcd.c ****     }
 870:Drivers/STM32F7xx_HAL_Driver/Src/stm32f7xx_hal_hcd.c ****   }
 871:Drivers/STM32F7xx_HAL_Driver/Src/stm32f7xx_hal_hcd.c ****   else if (hhcd->State == HAL_HCD_STATE_RESET)
 872:Drivers/STM32F7xx_HAL_Driver/Src/stm32f7xx_hal_hcd.c ****   {
 873:Drivers/STM32F7xx_HAL_Driver/Src/stm32f7xx_hal_hcd.c ****     switch (CallbackID)
 874:Drivers/STM32F7xx_HAL_Driver/Src/stm32f7xx_hal_hcd.c ****     {
 875:Drivers/STM32F7xx_HAL_Driver/Src/stm32f7xx_hal_hcd.c ****       case HAL_HCD_MSPINIT_CB_ID :
 876:Drivers/STM32F7xx_HAL_Driver/Src/stm32f7xx_hal_hcd.c ****         hhcd->MspInitCallback = HAL_HCD_MspInit;
 877:Drivers/STM32F7xx_HAL_Driver/Src/stm32f7xx_hal_hcd.c ****         break;
 878:Drivers/STM32F7xx_HAL_Driver/Src/stm32f7xx_hal_hcd.c **** 
 879:Drivers/STM32F7xx_HAL_Driver/Src/stm32f7xx_hal_hcd.c ****       case HAL_HCD_MSPDEINIT_CB_ID :
 880:Drivers/STM32F7xx_HAL_Driver/Src/stm32f7xx_hal_hcd.c ****         hhcd->MspDeInitCallback = HAL_HCD_MspDeInit;
 881:Drivers/STM32F7xx_HAL_Driver/Src/stm32f7xx_hal_hcd.c ****         break;
 882:Drivers/STM32F7xx_HAL_Driver/Src/stm32f7xx_hal_hcd.c **** 
 883:Drivers/STM32F7xx_HAL_Driver/Src/stm32f7xx_hal_hcd.c ****       default :
 884:Drivers/STM32F7xx_HAL_Driver/Src/stm32f7xx_hal_hcd.c ****         /* Update the error code */
 885:Drivers/STM32F7xx_HAL_Driver/Src/stm32f7xx_hal_hcd.c ****         hhcd->ErrorCode |= HAL_HCD_ERROR_INVALID_CALLBACK;
ARM GAS  C:\Users\seblo\AppData\Local\Temp\ccHEsOvX.s 			page 17


 886:Drivers/STM32F7xx_HAL_Driver/Src/stm32f7xx_hal_hcd.c **** 
 887:Drivers/STM32F7xx_HAL_Driver/Src/stm32f7xx_hal_hcd.c ****         /* Return error status */
 888:Drivers/STM32F7xx_HAL_Driver/Src/stm32f7xx_hal_hcd.c ****         status =  HAL_ERROR;
 889:Drivers/STM32F7xx_HAL_Driver/Src/stm32f7xx_hal_hcd.c ****         break;
 890:Drivers/STM32F7xx_HAL_Driver/Src/stm32f7xx_hal_hcd.c ****     }
 891:Drivers/STM32F7xx_HAL_Driver/Src/stm32f7xx_hal_hcd.c ****   }
 892:Drivers/STM32F7xx_HAL_Driver/Src/stm32f7xx_hal_hcd.c ****   else
 893:Drivers/STM32F7xx_HAL_Driver/Src/stm32f7xx_hal_hcd.c ****   {
 894:Drivers/STM32F7xx_HAL_Driver/Src/stm32f7xx_hal_hcd.c ****     /* Update the error code */
 895:Drivers/STM32F7xx_HAL_Driver/Src/stm32f7xx_hal_hcd.c ****     hhcd->ErrorCode |= HAL_HCD_ERROR_INVALID_CALLBACK;
 896:Drivers/STM32F7xx_HAL_Driver/Src/stm32f7xx_hal_hcd.c **** 
 897:Drivers/STM32F7xx_HAL_Driver/Src/stm32f7xx_hal_hcd.c ****     /* Return error status */
 898:Drivers/STM32F7xx_HAL_Driver/Src/stm32f7xx_hal_hcd.c ****     status =  HAL_ERROR;
 899:Drivers/STM32F7xx_HAL_Driver/Src/stm32f7xx_hal_hcd.c ****   }
 900:Drivers/STM32F7xx_HAL_Driver/Src/stm32f7xx_hal_hcd.c **** 
 901:Drivers/STM32F7xx_HAL_Driver/Src/stm32f7xx_hal_hcd.c ****   /* Release Lock */
 902:Drivers/STM32F7xx_HAL_Driver/Src/stm32f7xx_hal_hcd.c ****   __HAL_UNLOCK(hhcd);
 903:Drivers/STM32F7xx_HAL_Driver/Src/stm32f7xx_hal_hcd.c ****   return status;
 904:Drivers/STM32F7xx_HAL_Driver/Src/stm32f7xx_hal_hcd.c **** }
 905:Drivers/STM32F7xx_HAL_Driver/Src/stm32f7xx_hal_hcd.c **** 
 906:Drivers/STM32F7xx_HAL_Driver/Src/stm32f7xx_hal_hcd.c **** /**
 907:Drivers/STM32F7xx_HAL_Driver/Src/stm32f7xx_hal_hcd.c ****   * @brief  Register USB HCD Host Channel Notify URB Change Callback
 908:Drivers/STM32F7xx_HAL_Driver/Src/stm32f7xx_hal_hcd.c ****   *         To be used instead of the weak HAL_HCD_HC_NotifyURBChange_Callback() predefined callbac
 909:Drivers/STM32F7xx_HAL_Driver/Src/stm32f7xx_hal_hcd.c ****   * @param  hhcd HCD handle
 910:Drivers/STM32F7xx_HAL_Driver/Src/stm32f7xx_hal_hcd.c ****   * @param  pCallback pointer to the USB HCD Host Channel Notify URB Change Callback function
 911:Drivers/STM32F7xx_HAL_Driver/Src/stm32f7xx_hal_hcd.c ****   * @retval HAL status
 912:Drivers/STM32F7xx_HAL_Driver/Src/stm32f7xx_hal_hcd.c ****   */
 913:Drivers/STM32F7xx_HAL_Driver/Src/stm32f7xx_hal_hcd.c **** HAL_StatusTypeDef HAL_HCD_RegisterHC_NotifyURBChangeCallback(HCD_HandleTypeDef *hhcd, pHCD_HC_Notif
 914:Drivers/STM32F7xx_HAL_Driver/Src/stm32f7xx_hal_hcd.c **** {
 915:Drivers/STM32F7xx_HAL_Driver/Src/stm32f7xx_hal_hcd.c ****   HAL_StatusTypeDef status = HAL_OK;
 916:Drivers/STM32F7xx_HAL_Driver/Src/stm32f7xx_hal_hcd.c **** 
 917:Drivers/STM32F7xx_HAL_Driver/Src/stm32f7xx_hal_hcd.c ****   if (pCallback == NULL)
 918:Drivers/STM32F7xx_HAL_Driver/Src/stm32f7xx_hal_hcd.c ****   {
 919:Drivers/STM32F7xx_HAL_Driver/Src/stm32f7xx_hal_hcd.c ****     /* Update the error code */
 920:Drivers/STM32F7xx_HAL_Driver/Src/stm32f7xx_hal_hcd.c ****     hhcd->ErrorCode |= HAL_HCD_ERROR_INVALID_CALLBACK;
 921:Drivers/STM32F7xx_HAL_Driver/Src/stm32f7xx_hal_hcd.c **** 
 922:Drivers/STM32F7xx_HAL_Driver/Src/stm32f7xx_hal_hcd.c ****     return HAL_ERROR;
 923:Drivers/STM32F7xx_HAL_Driver/Src/stm32f7xx_hal_hcd.c ****   }
 924:Drivers/STM32F7xx_HAL_Driver/Src/stm32f7xx_hal_hcd.c **** 
 925:Drivers/STM32F7xx_HAL_Driver/Src/stm32f7xx_hal_hcd.c ****   /* Process locked */
 926:Drivers/STM32F7xx_HAL_Driver/Src/stm32f7xx_hal_hcd.c ****   __HAL_LOCK(hhcd);
 927:Drivers/STM32F7xx_HAL_Driver/Src/stm32f7xx_hal_hcd.c **** 
 928:Drivers/STM32F7xx_HAL_Driver/Src/stm32f7xx_hal_hcd.c ****   if (hhcd->State == HAL_HCD_STATE_READY)
 929:Drivers/STM32F7xx_HAL_Driver/Src/stm32f7xx_hal_hcd.c ****   {
 930:Drivers/STM32F7xx_HAL_Driver/Src/stm32f7xx_hal_hcd.c ****     hhcd->HC_NotifyURBChangeCallback = pCallback;
 931:Drivers/STM32F7xx_HAL_Driver/Src/stm32f7xx_hal_hcd.c ****   }
 932:Drivers/STM32F7xx_HAL_Driver/Src/stm32f7xx_hal_hcd.c ****   else
 933:Drivers/STM32F7xx_HAL_Driver/Src/stm32f7xx_hal_hcd.c ****   {
 934:Drivers/STM32F7xx_HAL_Driver/Src/stm32f7xx_hal_hcd.c ****     /* Update the error code */
 935:Drivers/STM32F7xx_HAL_Driver/Src/stm32f7xx_hal_hcd.c ****     hhcd->ErrorCode |= HAL_HCD_ERROR_INVALID_CALLBACK;
 936:Drivers/STM32F7xx_HAL_Driver/Src/stm32f7xx_hal_hcd.c **** 
 937:Drivers/STM32F7xx_HAL_Driver/Src/stm32f7xx_hal_hcd.c ****     /* Return error status */
 938:Drivers/STM32F7xx_HAL_Driver/Src/stm32f7xx_hal_hcd.c ****     status =  HAL_ERROR;
 939:Drivers/STM32F7xx_HAL_Driver/Src/stm32f7xx_hal_hcd.c ****   }
 940:Drivers/STM32F7xx_HAL_Driver/Src/stm32f7xx_hal_hcd.c **** 
 941:Drivers/STM32F7xx_HAL_Driver/Src/stm32f7xx_hal_hcd.c ****   /* Release Lock */
 942:Drivers/STM32F7xx_HAL_Driver/Src/stm32f7xx_hal_hcd.c ****   __HAL_UNLOCK(hhcd);
ARM GAS  C:\Users\seblo\AppData\Local\Temp\ccHEsOvX.s 			page 18


 943:Drivers/STM32F7xx_HAL_Driver/Src/stm32f7xx_hal_hcd.c **** 
 944:Drivers/STM32F7xx_HAL_Driver/Src/stm32f7xx_hal_hcd.c ****   return status;
 945:Drivers/STM32F7xx_HAL_Driver/Src/stm32f7xx_hal_hcd.c **** }
 946:Drivers/STM32F7xx_HAL_Driver/Src/stm32f7xx_hal_hcd.c **** 
 947:Drivers/STM32F7xx_HAL_Driver/Src/stm32f7xx_hal_hcd.c **** /**
 948:Drivers/STM32F7xx_HAL_Driver/Src/stm32f7xx_hal_hcd.c ****   * @brief  UnRegister the USB HCD Host Channel Notify URB Change Callback
 949:Drivers/STM32F7xx_HAL_Driver/Src/stm32f7xx_hal_hcd.c ****   *         USB HCD Host Channel Notify URB Change Callback is redirected to the weak HAL_HCD_HC_No
 950:Drivers/STM32F7xx_HAL_Driver/Src/stm32f7xx_hal_hcd.c ****   * @param  hhcd HCD handle
 951:Drivers/STM32F7xx_HAL_Driver/Src/stm32f7xx_hal_hcd.c ****   * @retval HAL status
 952:Drivers/STM32F7xx_HAL_Driver/Src/stm32f7xx_hal_hcd.c ****   */
 953:Drivers/STM32F7xx_HAL_Driver/Src/stm32f7xx_hal_hcd.c **** HAL_StatusTypeDef HAL_HCD_UnRegisterHC_NotifyURBChangeCallback(HCD_HandleTypeDef *hhcd)
 954:Drivers/STM32F7xx_HAL_Driver/Src/stm32f7xx_hal_hcd.c **** {
 955:Drivers/STM32F7xx_HAL_Driver/Src/stm32f7xx_hal_hcd.c ****   HAL_StatusTypeDef status = HAL_OK;
 956:Drivers/STM32F7xx_HAL_Driver/Src/stm32f7xx_hal_hcd.c **** 
 957:Drivers/STM32F7xx_HAL_Driver/Src/stm32f7xx_hal_hcd.c ****   /* Process locked */
 958:Drivers/STM32F7xx_HAL_Driver/Src/stm32f7xx_hal_hcd.c ****   __HAL_LOCK(hhcd);
 959:Drivers/STM32F7xx_HAL_Driver/Src/stm32f7xx_hal_hcd.c **** 
 960:Drivers/STM32F7xx_HAL_Driver/Src/stm32f7xx_hal_hcd.c ****   if (hhcd->State == HAL_HCD_STATE_READY)
 961:Drivers/STM32F7xx_HAL_Driver/Src/stm32f7xx_hal_hcd.c ****   {
 962:Drivers/STM32F7xx_HAL_Driver/Src/stm32f7xx_hal_hcd.c ****     hhcd->HC_NotifyURBChangeCallback = HAL_HCD_HC_NotifyURBChange_Callback; /* Legacy weak DataOutS
 963:Drivers/STM32F7xx_HAL_Driver/Src/stm32f7xx_hal_hcd.c ****   }
 964:Drivers/STM32F7xx_HAL_Driver/Src/stm32f7xx_hal_hcd.c ****   else
 965:Drivers/STM32F7xx_HAL_Driver/Src/stm32f7xx_hal_hcd.c ****   {
 966:Drivers/STM32F7xx_HAL_Driver/Src/stm32f7xx_hal_hcd.c ****     /* Update the error code */
 967:Drivers/STM32F7xx_HAL_Driver/Src/stm32f7xx_hal_hcd.c ****     hhcd->ErrorCode |= HAL_HCD_ERROR_INVALID_CALLBACK;
 968:Drivers/STM32F7xx_HAL_Driver/Src/stm32f7xx_hal_hcd.c **** 
 969:Drivers/STM32F7xx_HAL_Driver/Src/stm32f7xx_hal_hcd.c ****     /* Return error status */
 970:Drivers/STM32F7xx_HAL_Driver/Src/stm32f7xx_hal_hcd.c ****     status =  HAL_ERROR;
 971:Drivers/STM32F7xx_HAL_Driver/Src/stm32f7xx_hal_hcd.c ****   }
 972:Drivers/STM32F7xx_HAL_Driver/Src/stm32f7xx_hal_hcd.c **** 
 973:Drivers/STM32F7xx_HAL_Driver/Src/stm32f7xx_hal_hcd.c ****   /* Release Lock */
 974:Drivers/STM32F7xx_HAL_Driver/Src/stm32f7xx_hal_hcd.c ****   __HAL_UNLOCK(hhcd);
 975:Drivers/STM32F7xx_HAL_Driver/Src/stm32f7xx_hal_hcd.c **** 
 976:Drivers/STM32F7xx_HAL_Driver/Src/stm32f7xx_hal_hcd.c ****   return status;
 977:Drivers/STM32F7xx_HAL_Driver/Src/stm32f7xx_hal_hcd.c **** }
 978:Drivers/STM32F7xx_HAL_Driver/Src/stm32f7xx_hal_hcd.c **** #endif /* USE_HAL_HCD_REGISTER_CALLBACKS */
 979:Drivers/STM32F7xx_HAL_Driver/Src/stm32f7xx_hal_hcd.c **** 
 980:Drivers/STM32F7xx_HAL_Driver/Src/stm32f7xx_hal_hcd.c **** /**
 981:Drivers/STM32F7xx_HAL_Driver/Src/stm32f7xx_hal_hcd.c ****   * @}
 982:Drivers/STM32F7xx_HAL_Driver/Src/stm32f7xx_hal_hcd.c ****   */
 983:Drivers/STM32F7xx_HAL_Driver/Src/stm32f7xx_hal_hcd.c **** 
 984:Drivers/STM32F7xx_HAL_Driver/Src/stm32f7xx_hal_hcd.c **** /** @defgroup HCD_Exported_Functions_Group3 Peripheral Control functions
 985:Drivers/STM32F7xx_HAL_Driver/Src/stm32f7xx_hal_hcd.c ****  *  @brief   Management functions
 986:Drivers/STM32F7xx_HAL_Driver/Src/stm32f7xx_hal_hcd.c ****  *
 987:Drivers/STM32F7xx_HAL_Driver/Src/stm32f7xx_hal_hcd.c **** @verbatim
 988:Drivers/STM32F7xx_HAL_Driver/Src/stm32f7xx_hal_hcd.c ****  ===============================================================================
 989:Drivers/STM32F7xx_HAL_Driver/Src/stm32f7xx_hal_hcd.c ****                       ##### Peripheral Control functions #####
 990:Drivers/STM32F7xx_HAL_Driver/Src/stm32f7xx_hal_hcd.c ****  ===============================================================================
 991:Drivers/STM32F7xx_HAL_Driver/Src/stm32f7xx_hal_hcd.c ****     [..]
 992:Drivers/STM32F7xx_HAL_Driver/Src/stm32f7xx_hal_hcd.c ****     This subsection provides a set of functions allowing to control the HCD data
 993:Drivers/STM32F7xx_HAL_Driver/Src/stm32f7xx_hal_hcd.c ****     transfers.
 994:Drivers/STM32F7xx_HAL_Driver/Src/stm32f7xx_hal_hcd.c **** 
 995:Drivers/STM32F7xx_HAL_Driver/Src/stm32f7xx_hal_hcd.c **** @endverbatim
 996:Drivers/STM32F7xx_HAL_Driver/Src/stm32f7xx_hal_hcd.c ****   * @{
 997:Drivers/STM32F7xx_HAL_Driver/Src/stm32f7xx_hal_hcd.c ****   */
 998:Drivers/STM32F7xx_HAL_Driver/Src/stm32f7xx_hal_hcd.c **** 
 999:Drivers/STM32F7xx_HAL_Driver/Src/stm32f7xx_hal_hcd.c **** /**
ARM GAS  C:\Users\seblo\AppData\Local\Temp\ccHEsOvX.s 			page 19


1000:Drivers/STM32F7xx_HAL_Driver/Src/stm32f7xx_hal_hcd.c ****   * @brief  Start the host driver.
1001:Drivers/STM32F7xx_HAL_Driver/Src/stm32f7xx_hal_hcd.c ****   * @param  hhcd HCD handle
1002:Drivers/STM32F7xx_HAL_Driver/Src/stm32f7xx_hal_hcd.c ****   * @retval HAL status
1003:Drivers/STM32F7xx_HAL_Driver/Src/stm32f7xx_hal_hcd.c ****   */
1004:Drivers/STM32F7xx_HAL_Driver/Src/stm32f7xx_hal_hcd.c **** HAL_StatusTypeDef HAL_HCD_Start(HCD_HandleTypeDef *hhcd)
1005:Drivers/STM32F7xx_HAL_Driver/Src/stm32f7xx_hal_hcd.c **** {
1006:Drivers/STM32F7xx_HAL_Driver/Src/stm32f7xx_hal_hcd.c ****   __HAL_LOCK(hhcd);
1007:Drivers/STM32F7xx_HAL_Driver/Src/stm32f7xx_hal_hcd.c ****   __HAL_HCD_ENABLE(hhcd);
1008:Drivers/STM32F7xx_HAL_Driver/Src/stm32f7xx_hal_hcd.c ****   (void)USB_DriveVbus(hhcd->Instance, 1U);
1009:Drivers/STM32F7xx_HAL_Driver/Src/stm32f7xx_hal_hcd.c ****   __HAL_UNLOCK(hhcd);
1010:Drivers/STM32F7xx_HAL_Driver/Src/stm32f7xx_hal_hcd.c **** 
1011:Drivers/STM32F7xx_HAL_Driver/Src/stm32f7xx_hal_hcd.c ****   return HAL_OK;
1012:Drivers/STM32F7xx_HAL_Driver/Src/stm32f7xx_hal_hcd.c **** }
1013:Drivers/STM32F7xx_HAL_Driver/Src/stm32f7xx_hal_hcd.c **** 
1014:Drivers/STM32F7xx_HAL_Driver/Src/stm32f7xx_hal_hcd.c **** /**
1015:Drivers/STM32F7xx_HAL_Driver/Src/stm32f7xx_hal_hcd.c ****   * @brief  Stop the host driver.
1016:Drivers/STM32F7xx_HAL_Driver/Src/stm32f7xx_hal_hcd.c ****   * @param  hhcd HCD handle
1017:Drivers/STM32F7xx_HAL_Driver/Src/stm32f7xx_hal_hcd.c ****   * @retval HAL status
1018:Drivers/STM32F7xx_HAL_Driver/Src/stm32f7xx_hal_hcd.c ****   */
1019:Drivers/STM32F7xx_HAL_Driver/Src/stm32f7xx_hal_hcd.c **** 
1020:Drivers/STM32F7xx_HAL_Driver/Src/stm32f7xx_hal_hcd.c **** HAL_StatusTypeDef HAL_HCD_Stop(HCD_HandleTypeDef *hhcd)
1021:Drivers/STM32F7xx_HAL_Driver/Src/stm32f7xx_hal_hcd.c **** {
1022:Drivers/STM32F7xx_HAL_Driver/Src/stm32f7xx_hal_hcd.c ****   __HAL_LOCK(hhcd);
1023:Drivers/STM32F7xx_HAL_Driver/Src/stm32f7xx_hal_hcd.c ****   (void)USB_StopHost(hhcd->Instance);
1024:Drivers/STM32F7xx_HAL_Driver/Src/stm32f7xx_hal_hcd.c ****   __HAL_UNLOCK(hhcd);
1025:Drivers/STM32F7xx_HAL_Driver/Src/stm32f7xx_hal_hcd.c **** 
1026:Drivers/STM32F7xx_HAL_Driver/Src/stm32f7xx_hal_hcd.c ****   return HAL_OK;
1027:Drivers/STM32F7xx_HAL_Driver/Src/stm32f7xx_hal_hcd.c **** }
1028:Drivers/STM32F7xx_HAL_Driver/Src/stm32f7xx_hal_hcd.c **** 
1029:Drivers/STM32F7xx_HAL_Driver/Src/stm32f7xx_hal_hcd.c **** /**
1030:Drivers/STM32F7xx_HAL_Driver/Src/stm32f7xx_hal_hcd.c ****   * @brief  Reset the host port.
1031:Drivers/STM32F7xx_HAL_Driver/Src/stm32f7xx_hal_hcd.c ****   * @param  hhcd HCD handle
1032:Drivers/STM32F7xx_HAL_Driver/Src/stm32f7xx_hal_hcd.c ****   * @retval HAL status
1033:Drivers/STM32F7xx_HAL_Driver/Src/stm32f7xx_hal_hcd.c ****   */
1034:Drivers/STM32F7xx_HAL_Driver/Src/stm32f7xx_hal_hcd.c **** HAL_StatusTypeDef HAL_HCD_ResetPort(HCD_HandleTypeDef *hhcd)
1035:Drivers/STM32F7xx_HAL_Driver/Src/stm32f7xx_hal_hcd.c **** {
1036:Drivers/STM32F7xx_HAL_Driver/Src/stm32f7xx_hal_hcd.c ****   return (USB_ResetPort(hhcd->Instance));
1037:Drivers/STM32F7xx_HAL_Driver/Src/stm32f7xx_hal_hcd.c **** }
1038:Drivers/STM32F7xx_HAL_Driver/Src/stm32f7xx_hal_hcd.c **** 
1039:Drivers/STM32F7xx_HAL_Driver/Src/stm32f7xx_hal_hcd.c **** /**
1040:Drivers/STM32F7xx_HAL_Driver/Src/stm32f7xx_hal_hcd.c ****   * @}
1041:Drivers/STM32F7xx_HAL_Driver/Src/stm32f7xx_hal_hcd.c ****   */
1042:Drivers/STM32F7xx_HAL_Driver/Src/stm32f7xx_hal_hcd.c **** 
1043:Drivers/STM32F7xx_HAL_Driver/Src/stm32f7xx_hal_hcd.c **** /** @defgroup HCD_Exported_Functions_Group4 Peripheral State functions
1044:Drivers/STM32F7xx_HAL_Driver/Src/stm32f7xx_hal_hcd.c ****  *  @brief   Peripheral State functions
1045:Drivers/STM32F7xx_HAL_Driver/Src/stm32f7xx_hal_hcd.c ****  *
1046:Drivers/STM32F7xx_HAL_Driver/Src/stm32f7xx_hal_hcd.c **** @verbatim
1047:Drivers/STM32F7xx_HAL_Driver/Src/stm32f7xx_hal_hcd.c ****  ===============================================================================
1048:Drivers/STM32F7xx_HAL_Driver/Src/stm32f7xx_hal_hcd.c ****                       ##### Peripheral State functions #####
1049:Drivers/STM32F7xx_HAL_Driver/Src/stm32f7xx_hal_hcd.c ****  ===============================================================================
1050:Drivers/STM32F7xx_HAL_Driver/Src/stm32f7xx_hal_hcd.c ****     [..]
1051:Drivers/STM32F7xx_HAL_Driver/Src/stm32f7xx_hal_hcd.c ****     This subsection permits to get in run-time the status of the peripheral
1052:Drivers/STM32F7xx_HAL_Driver/Src/stm32f7xx_hal_hcd.c ****     and the data flow.
1053:Drivers/STM32F7xx_HAL_Driver/Src/stm32f7xx_hal_hcd.c **** 
1054:Drivers/STM32F7xx_HAL_Driver/Src/stm32f7xx_hal_hcd.c **** @endverbatim
1055:Drivers/STM32F7xx_HAL_Driver/Src/stm32f7xx_hal_hcd.c ****   * @{
1056:Drivers/STM32F7xx_HAL_Driver/Src/stm32f7xx_hal_hcd.c ****   */
ARM GAS  C:\Users\seblo\AppData\Local\Temp\ccHEsOvX.s 			page 20


1057:Drivers/STM32F7xx_HAL_Driver/Src/stm32f7xx_hal_hcd.c **** 
1058:Drivers/STM32F7xx_HAL_Driver/Src/stm32f7xx_hal_hcd.c **** /**
1059:Drivers/STM32F7xx_HAL_Driver/Src/stm32f7xx_hal_hcd.c ****   * @brief  Return the HCD handle state.
1060:Drivers/STM32F7xx_HAL_Driver/Src/stm32f7xx_hal_hcd.c ****   * @param  hhcd HCD handle
1061:Drivers/STM32F7xx_HAL_Driver/Src/stm32f7xx_hal_hcd.c ****   * @retval HAL state
1062:Drivers/STM32F7xx_HAL_Driver/Src/stm32f7xx_hal_hcd.c ****   */
1063:Drivers/STM32F7xx_HAL_Driver/Src/stm32f7xx_hal_hcd.c **** HCD_StateTypeDef HAL_HCD_GetState(HCD_HandleTypeDef *hhcd)
1064:Drivers/STM32F7xx_HAL_Driver/Src/stm32f7xx_hal_hcd.c **** {
1065:Drivers/STM32F7xx_HAL_Driver/Src/stm32f7xx_hal_hcd.c ****   return hhcd->State;
1066:Drivers/STM32F7xx_HAL_Driver/Src/stm32f7xx_hal_hcd.c **** }
1067:Drivers/STM32F7xx_HAL_Driver/Src/stm32f7xx_hal_hcd.c **** 
1068:Drivers/STM32F7xx_HAL_Driver/Src/stm32f7xx_hal_hcd.c **** /**
1069:Drivers/STM32F7xx_HAL_Driver/Src/stm32f7xx_hal_hcd.c ****   * @brief  Return  URB state for a channel.
1070:Drivers/STM32F7xx_HAL_Driver/Src/stm32f7xx_hal_hcd.c ****   * @param  hhcd HCD handle
1071:Drivers/STM32F7xx_HAL_Driver/Src/stm32f7xx_hal_hcd.c ****   * @param  chnum Channel number.
1072:Drivers/STM32F7xx_HAL_Driver/Src/stm32f7xx_hal_hcd.c ****   *         This parameter can be a value from 1 to 15
1073:Drivers/STM32F7xx_HAL_Driver/Src/stm32f7xx_hal_hcd.c ****   * @retval URB state.
1074:Drivers/STM32F7xx_HAL_Driver/Src/stm32f7xx_hal_hcd.c ****   *          This parameter can be one of these values:
1075:Drivers/STM32F7xx_HAL_Driver/Src/stm32f7xx_hal_hcd.c ****   *            URB_IDLE/
1076:Drivers/STM32F7xx_HAL_Driver/Src/stm32f7xx_hal_hcd.c ****   *            URB_DONE/
1077:Drivers/STM32F7xx_HAL_Driver/Src/stm32f7xx_hal_hcd.c ****   *            URB_NOTREADY/
1078:Drivers/STM32F7xx_HAL_Driver/Src/stm32f7xx_hal_hcd.c ****   *            URB_NYET/
1079:Drivers/STM32F7xx_HAL_Driver/Src/stm32f7xx_hal_hcd.c ****   *            URB_ERROR/
1080:Drivers/STM32F7xx_HAL_Driver/Src/stm32f7xx_hal_hcd.c ****   *            URB_STALL
1081:Drivers/STM32F7xx_HAL_Driver/Src/stm32f7xx_hal_hcd.c ****   */
1082:Drivers/STM32F7xx_HAL_Driver/Src/stm32f7xx_hal_hcd.c **** HCD_URBStateTypeDef HAL_HCD_HC_GetURBState(HCD_HandleTypeDef *hhcd, uint8_t chnum)
1083:Drivers/STM32F7xx_HAL_Driver/Src/stm32f7xx_hal_hcd.c **** {
1084:Drivers/STM32F7xx_HAL_Driver/Src/stm32f7xx_hal_hcd.c ****   return hhcd->hc[chnum].urb_state;
1085:Drivers/STM32F7xx_HAL_Driver/Src/stm32f7xx_hal_hcd.c **** }
1086:Drivers/STM32F7xx_HAL_Driver/Src/stm32f7xx_hal_hcd.c **** 
1087:Drivers/STM32F7xx_HAL_Driver/Src/stm32f7xx_hal_hcd.c **** 
1088:Drivers/STM32F7xx_HAL_Driver/Src/stm32f7xx_hal_hcd.c **** /**
1089:Drivers/STM32F7xx_HAL_Driver/Src/stm32f7xx_hal_hcd.c ****   * @brief  Return the last host transfer size.
1090:Drivers/STM32F7xx_HAL_Driver/Src/stm32f7xx_hal_hcd.c ****   * @param  hhcd HCD handle
1091:Drivers/STM32F7xx_HAL_Driver/Src/stm32f7xx_hal_hcd.c ****   * @param  chnum Channel number.
1092:Drivers/STM32F7xx_HAL_Driver/Src/stm32f7xx_hal_hcd.c ****   *         This parameter can be a value from 1 to 15
1093:Drivers/STM32F7xx_HAL_Driver/Src/stm32f7xx_hal_hcd.c ****   * @retval last transfer size in byte
1094:Drivers/STM32F7xx_HAL_Driver/Src/stm32f7xx_hal_hcd.c ****   */
1095:Drivers/STM32F7xx_HAL_Driver/Src/stm32f7xx_hal_hcd.c **** uint32_t HAL_HCD_HC_GetXferCount(HCD_HandleTypeDef *hhcd, uint8_t chnum)
1096:Drivers/STM32F7xx_HAL_Driver/Src/stm32f7xx_hal_hcd.c **** {
1097:Drivers/STM32F7xx_HAL_Driver/Src/stm32f7xx_hal_hcd.c ****   return hhcd->hc[chnum].xfer_count;
1098:Drivers/STM32F7xx_HAL_Driver/Src/stm32f7xx_hal_hcd.c **** }
1099:Drivers/STM32F7xx_HAL_Driver/Src/stm32f7xx_hal_hcd.c **** 
1100:Drivers/STM32F7xx_HAL_Driver/Src/stm32f7xx_hal_hcd.c **** /**
1101:Drivers/STM32F7xx_HAL_Driver/Src/stm32f7xx_hal_hcd.c ****   * @brief  Return the Host Channel state.
1102:Drivers/STM32F7xx_HAL_Driver/Src/stm32f7xx_hal_hcd.c ****   * @param  hhcd HCD handle
1103:Drivers/STM32F7xx_HAL_Driver/Src/stm32f7xx_hal_hcd.c ****   * @param  chnum Channel number.
1104:Drivers/STM32F7xx_HAL_Driver/Src/stm32f7xx_hal_hcd.c ****   *         This parameter can be a value from 1 to 15
1105:Drivers/STM32F7xx_HAL_Driver/Src/stm32f7xx_hal_hcd.c ****   * @retval Host channel state
1106:Drivers/STM32F7xx_HAL_Driver/Src/stm32f7xx_hal_hcd.c ****   *          This parameter can be one of these values:
1107:Drivers/STM32F7xx_HAL_Driver/Src/stm32f7xx_hal_hcd.c ****   *            HC_IDLE/
1108:Drivers/STM32F7xx_HAL_Driver/Src/stm32f7xx_hal_hcd.c ****   *            HC_XFRC/
1109:Drivers/STM32F7xx_HAL_Driver/Src/stm32f7xx_hal_hcd.c ****   *            HC_HALTED/
1110:Drivers/STM32F7xx_HAL_Driver/Src/stm32f7xx_hal_hcd.c ****   *            HC_NYET/
1111:Drivers/STM32F7xx_HAL_Driver/Src/stm32f7xx_hal_hcd.c ****   *            HC_NAK/
1112:Drivers/STM32F7xx_HAL_Driver/Src/stm32f7xx_hal_hcd.c ****   *            HC_STALL/
1113:Drivers/STM32F7xx_HAL_Driver/Src/stm32f7xx_hal_hcd.c ****   *            HC_XACTERR/
ARM GAS  C:\Users\seblo\AppData\Local\Temp\ccHEsOvX.s 			page 21


1114:Drivers/STM32F7xx_HAL_Driver/Src/stm32f7xx_hal_hcd.c ****   *            HC_BBLERR/
1115:Drivers/STM32F7xx_HAL_Driver/Src/stm32f7xx_hal_hcd.c ****   *            HC_DATATGLERR
1116:Drivers/STM32F7xx_HAL_Driver/Src/stm32f7xx_hal_hcd.c ****   */
1117:Drivers/STM32F7xx_HAL_Driver/Src/stm32f7xx_hal_hcd.c **** HCD_HCStateTypeDef  HAL_HCD_HC_GetState(HCD_HandleTypeDef *hhcd, uint8_t chnum)
1118:Drivers/STM32F7xx_HAL_Driver/Src/stm32f7xx_hal_hcd.c **** {
1119:Drivers/STM32F7xx_HAL_Driver/Src/stm32f7xx_hal_hcd.c ****   return hhcd->hc[chnum].state;
1120:Drivers/STM32F7xx_HAL_Driver/Src/stm32f7xx_hal_hcd.c **** }
1121:Drivers/STM32F7xx_HAL_Driver/Src/stm32f7xx_hal_hcd.c **** 
1122:Drivers/STM32F7xx_HAL_Driver/Src/stm32f7xx_hal_hcd.c **** /**
1123:Drivers/STM32F7xx_HAL_Driver/Src/stm32f7xx_hal_hcd.c ****   * @brief  Return the current Host frame number.
1124:Drivers/STM32F7xx_HAL_Driver/Src/stm32f7xx_hal_hcd.c ****   * @param  hhcd HCD handle
1125:Drivers/STM32F7xx_HAL_Driver/Src/stm32f7xx_hal_hcd.c ****   * @retval Current Host frame number
1126:Drivers/STM32F7xx_HAL_Driver/Src/stm32f7xx_hal_hcd.c ****   */
1127:Drivers/STM32F7xx_HAL_Driver/Src/stm32f7xx_hal_hcd.c **** uint32_t HAL_HCD_GetCurrentFrame(HCD_HandleTypeDef *hhcd)
1128:Drivers/STM32F7xx_HAL_Driver/Src/stm32f7xx_hal_hcd.c **** {
1129:Drivers/STM32F7xx_HAL_Driver/Src/stm32f7xx_hal_hcd.c ****   return (USB_GetCurrentFrame(hhcd->Instance));
1130:Drivers/STM32F7xx_HAL_Driver/Src/stm32f7xx_hal_hcd.c **** }
1131:Drivers/STM32F7xx_HAL_Driver/Src/stm32f7xx_hal_hcd.c **** 
1132:Drivers/STM32F7xx_HAL_Driver/Src/stm32f7xx_hal_hcd.c **** /**
1133:Drivers/STM32F7xx_HAL_Driver/Src/stm32f7xx_hal_hcd.c ****   * @brief  Return the Host enumeration speed.
1134:Drivers/STM32F7xx_HAL_Driver/Src/stm32f7xx_hal_hcd.c ****   * @param  hhcd HCD handle
1135:Drivers/STM32F7xx_HAL_Driver/Src/stm32f7xx_hal_hcd.c ****   * @retval Enumeration speed
1136:Drivers/STM32F7xx_HAL_Driver/Src/stm32f7xx_hal_hcd.c ****   */
1137:Drivers/STM32F7xx_HAL_Driver/Src/stm32f7xx_hal_hcd.c **** uint32_t HAL_HCD_GetCurrentSpeed(HCD_HandleTypeDef *hhcd)
1138:Drivers/STM32F7xx_HAL_Driver/Src/stm32f7xx_hal_hcd.c **** {
1139:Drivers/STM32F7xx_HAL_Driver/Src/stm32f7xx_hal_hcd.c ****   return (USB_GetHostSpeed(hhcd->Instance));
1140:Drivers/STM32F7xx_HAL_Driver/Src/stm32f7xx_hal_hcd.c **** }
1141:Drivers/STM32F7xx_HAL_Driver/Src/stm32f7xx_hal_hcd.c **** 
1142:Drivers/STM32F7xx_HAL_Driver/Src/stm32f7xx_hal_hcd.c **** /**
1143:Drivers/STM32F7xx_HAL_Driver/Src/stm32f7xx_hal_hcd.c ****   * @}
1144:Drivers/STM32F7xx_HAL_Driver/Src/stm32f7xx_hal_hcd.c ****   */
1145:Drivers/STM32F7xx_HAL_Driver/Src/stm32f7xx_hal_hcd.c **** 
1146:Drivers/STM32F7xx_HAL_Driver/Src/stm32f7xx_hal_hcd.c **** /**
1147:Drivers/STM32F7xx_HAL_Driver/Src/stm32f7xx_hal_hcd.c ****   * @}
1148:Drivers/STM32F7xx_HAL_Driver/Src/stm32f7xx_hal_hcd.c ****   */
1149:Drivers/STM32F7xx_HAL_Driver/Src/stm32f7xx_hal_hcd.c **** 
1150:Drivers/STM32F7xx_HAL_Driver/Src/stm32f7xx_hal_hcd.c **** /** @addtogroup HCD_Private_Functions
1151:Drivers/STM32F7xx_HAL_Driver/Src/stm32f7xx_hal_hcd.c ****   * @{
1152:Drivers/STM32F7xx_HAL_Driver/Src/stm32f7xx_hal_hcd.c ****   */
1153:Drivers/STM32F7xx_HAL_Driver/Src/stm32f7xx_hal_hcd.c **** /**
1154:Drivers/STM32F7xx_HAL_Driver/Src/stm32f7xx_hal_hcd.c ****   * @brief  Handle Host Channel IN interrupt requests.
1155:Drivers/STM32F7xx_HAL_Driver/Src/stm32f7xx_hal_hcd.c ****   * @param  hhcd HCD handle
1156:Drivers/STM32F7xx_HAL_Driver/Src/stm32f7xx_hal_hcd.c ****   * @param  chnum Channel number.
1157:Drivers/STM32F7xx_HAL_Driver/Src/stm32f7xx_hal_hcd.c ****   *         This parameter can be a value from 1 to 15
1158:Drivers/STM32F7xx_HAL_Driver/Src/stm32f7xx_hal_hcd.c ****   * @retval none
1159:Drivers/STM32F7xx_HAL_Driver/Src/stm32f7xx_hal_hcd.c ****   */
1160:Drivers/STM32F7xx_HAL_Driver/Src/stm32f7xx_hal_hcd.c **** static void HCD_HC_IN_IRQHandler(HCD_HandleTypeDef *hhcd, uint8_t chnum)
1161:Drivers/STM32F7xx_HAL_Driver/Src/stm32f7xx_hal_hcd.c **** {
1162:Drivers/STM32F7xx_HAL_Driver/Src/stm32f7xx_hal_hcd.c ****   USB_OTG_GlobalTypeDef *USBx = hhcd->Instance;
1163:Drivers/STM32F7xx_HAL_Driver/Src/stm32f7xx_hal_hcd.c ****   uint32_t USBx_BASE = (uint32_t)USBx;
1164:Drivers/STM32F7xx_HAL_Driver/Src/stm32f7xx_hal_hcd.c ****   uint32_t ch_num = (uint32_t)chnum;
1165:Drivers/STM32F7xx_HAL_Driver/Src/stm32f7xx_hal_hcd.c **** 
1166:Drivers/STM32F7xx_HAL_Driver/Src/stm32f7xx_hal_hcd.c ****   uint32_t tmpreg;
1167:Drivers/STM32F7xx_HAL_Driver/Src/stm32f7xx_hal_hcd.c **** 
1168:Drivers/STM32F7xx_HAL_Driver/Src/stm32f7xx_hal_hcd.c ****   if ((USBx_HC(ch_num)->HCINT & USB_OTG_HCINT_AHBERR) == USB_OTG_HCINT_AHBERR)
1169:Drivers/STM32F7xx_HAL_Driver/Src/stm32f7xx_hal_hcd.c ****   {
1170:Drivers/STM32F7xx_HAL_Driver/Src/stm32f7xx_hal_hcd.c ****     __HAL_HCD_CLEAR_HC_INT(ch_num, USB_OTG_HCINT_AHBERR);
ARM GAS  C:\Users\seblo\AppData\Local\Temp\ccHEsOvX.s 			page 22


1171:Drivers/STM32F7xx_HAL_Driver/Src/stm32f7xx_hal_hcd.c ****     __HAL_HCD_UNMASK_HALT_HC_INT(ch_num);
1172:Drivers/STM32F7xx_HAL_Driver/Src/stm32f7xx_hal_hcd.c ****   }
1173:Drivers/STM32F7xx_HAL_Driver/Src/stm32f7xx_hal_hcd.c ****   else if ((USBx_HC(ch_num)->HCINT & USB_OTG_HCINT_BBERR) == USB_OTG_HCINT_BBERR)
1174:Drivers/STM32F7xx_HAL_Driver/Src/stm32f7xx_hal_hcd.c ****   {
1175:Drivers/STM32F7xx_HAL_Driver/Src/stm32f7xx_hal_hcd.c ****     __HAL_HCD_CLEAR_HC_INT(ch_num, USB_OTG_HCINT_BBERR);
1176:Drivers/STM32F7xx_HAL_Driver/Src/stm32f7xx_hal_hcd.c ****     hhcd->hc[ch_num].state = HC_BBLERR;
1177:Drivers/STM32F7xx_HAL_Driver/Src/stm32f7xx_hal_hcd.c ****     __HAL_HCD_UNMASK_HALT_HC_INT(ch_num);
1178:Drivers/STM32F7xx_HAL_Driver/Src/stm32f7xx_hal_hcd.c ****     (void)USB_HC_Halt(hhcd->Instance, (uint8_t)ch_num);
1179:Drivers/STM32F7xx_HAL_Driver/Src/stm32f7xx_hal_hcd.c ****   }
1180:Drivers/STM32F7xx_HAL_Driver/Src/stm32f7xx_hal_hcd.c ****   else if ((USBx_HC(ch_num)->HCINT & USB_OTG_HCINT_ACK) == USB_OTG_HCINT_ACK)
1181:Drivers/STM32F7xx_HAL_Driver/Src/stm32f7xx_hal_hcd.c ****   {
1182:Drivers/STM32F7xx_HAL_Driver/Src/stm32f7xx_hal_hcd.c ****     __HAL_HCD_CLEAR_HC_INT(ch_num, USB_OTG_HCINT_ACK);
1183:Drivers/STM32F7xx_HAL_Driver/Src/stm32f7xx_hal_hcd.c ****   }
1184:Drivers/STM32F7xx_HAL_Driver/Src/stm32f7xx_hal_hcd.c ****   else if ((USBx_HC(ch_num)->HCINT & USB_OTG_HCINT_STALL) == USB_OTG_HCINT_STALL)
1185:Drivers/STM32F7xx_HAL_Driver/Src/stm32f7xx_hal_hcd.c ****   {
1186:Drivers/STM32F7xx_HAL_Driver/Src/stm32f7xx_hal_hcd.c ****     __HAL_HCD_UNMASK_HALT_HC_INT(ch_num);
1187:Drivers/STM32F7xx_HAL_Driver/Src/stm32f7xx_hal_hcd.c ****     hhcd->hc[ch_num].state = HC_STALL;
1188:Drivers/STM32F7xx_HAL_Driver/Src/stm32f7xx_hal_hcd.c ****     __HAL_HCD_CLEAR_HC_INT(ch_num, USB_OTG_HCINT_NAK);
1189:Drivers/STM32F7xx_HAL_Driver/Src/stm32f7xx_hal_hcd.c ****     __HAL_HCD_CLEAR_HC_INT(ch_num, USB_OTG_HCINT_STALL);
1190:Drivers/STM32F7xx_HAL_Driver/Src/stm32f7xx_hal_hcd.c ****     (void)USB_HC_Halt(hhcd->Instance, (uint8_t)ch_num);
1191:Drivers/STM32F7xx_HAL_Driver/Src/stm32f7xx_hal_hcd.c ****   }
1192:Drivers/STM32F7xx_HAL_Driver/Src/stm32f7xx_hal_hcd.c ****   else if ((USBx_HC(ch_num)->HCINT & USB_OTG_HCINT_DTERR) == USB_OTG_HCINT_DTERR)
1193:Drivers/STM32F7xx_HAL_Driver/Src/stm32f7xx_hal_hcd.c ****   {
1194:Drivers/STM32F7xx_HAL_Driver/Src/stm32f7xx_hal_hcd.c ****     __HAL_HCD_UNMASK_HALT_HC_INT(ch_num);
1195:Drivers/STM32F7xx_HAL_Driver/Src/stm32f7xx_hal_hcd.c ****     (void)USB_HC_Halt(hhcd->Instance, (uint8_t)ch_num);
1196:Drivers/STM32F7xx_HAL_Driver/Src/stm32f7xx_hal_hcd.c ****     __HAL_HCD_CLEAR_HC_INT(ch_num, USB_OTG_HCINT_NAK);
1197:Drivers/STM32F7xx_HAL_Driver/Src/stm32f7xx_hal_hcd.c ****     hhcd->hc[ch_num].state = HC_DATATGLERR;
1198:Drivers/STM32F7xx_HAL_Driver/Src/stm32f7xx_hal_hcd.c ****     __HAL_HCD_CLEAR_HC_INT(ch_num, USB_OTG_HCINT_DTERR);
1199:Drivers/STM32F7xx_HAL_Driver/Src/stm32f7xx_hal_hcd.c ****   }
1200:Drivers/STM32F7xx_HAL_Driver/Src/stm32f7xx_hal_hcd.c ****   else
1201:Drivers/STM32F7xx_HAL_Driver/Src/stm32f7xx_hal_hcd.c ****   {
1202:Drivers/STM32F7xx_HAL_Driver/Src/stm32f7xx_hal_hcd.c ****     /* ... */
1203:Drivers/STM32F7xx_HAL_Driver/Src/stm32f7xx_hal_hcd.c ****   }
1204:Drivers/STM32F7xx_HAL_Driver/Src/stm32f7xx_hal_hcd.c **** 
1205:Drivers/STM32F7xx_HAL_Driver/Src/stm32f7xx_hal_hcd.c ****   if ((USBx_HC(ch_num)->HCINT & USB_OTG_HCINT_FRMOR) == USB_OTG_HCINT_FRMOR)
1206:Drivers/STM32F7xx_HAL_Driver/Src/stm32f7xx_hal_hcd.c ****   {
1207:Drivers/STM32F7xx_HAL_Driver/Src/stm32f7xx_hal_hcd.c ****     __HAL_HCD_UNMASK_HALT_HC_INT(ch_num);
1208:Drivers/STM32F7xx_HAL_Driver/Src/stm32f7xx_hal_hcd.c ****     (void)USB_HC_Halt(hhcd->Instance, (uint8_t)ch_num);
1209:Drivers/STM32F7xx_HAL_Driver/Src/stm32f7xx_hal_hcd.c ****     __HAL_HCD_CLEAR_HC_INT(ch_num, USB_OTG_HCINT_FRMOR);
1210:Drivers/STM32F7xx_HAL_Driver/Src/stm32f7xx_hal_hcd.c ****   }
1211:Drivers/STM32F7xx_HAL_Driver/Src/stm32f7xx_hal_hcd.c ****   else if ((USBx_HC(ch_num)->HCINT & USB_OTG_HCINT_XFRC) == USB_OTG_HCINT_XFRC)
1212:Drivers/STM32F7xx_HAL_Driver/Src/stm32f7xx_hal_hcd.c ****   {
1213:Drivers/STM32F7xx_HAL_Driver/Src/stm32f7xx_hal_hcd.c ****     if (hhcd->Init.dma_enable != 0U)
1214:Drivers/STM32F7xx_HAL_Driver/Src/stm32f7xx_hal_hcd.c ****     {
1215:Drivers/STM32F7xx_HAL_Driver/Src/stm32f7xx_hal_hcd.c ****       hhcd->hc[ch_num].xfer_count = hhcd->hc[ch_num].xfer_len - \
1216:Drivers/STM32F7xx_HAL_Driver/Src/stm32f7xx_hal_hcd.c ****                                     (USBx_HC(ch_num)->HCTSIZ & USB_OTG_HCTSIZ_XFRSIZ);
1217:Drivers/STM32F7xx_HAL_Driver/Src/stm32f7xx_hal_hcd.c ****     }
1218:Drivers/STM32F7xx_HAL_Driver/Src/stm32f7xx_hal_hcd.c **** 
1219:Drivers/STM32F7xx_HAL_Driver/Src/stm32f7xx_hal_hcd.c ****     hhcd->hc[ch_num].state = HC_XFRC;
1220:Drivers/STM32F7xx_HAL_Driver/Src/stm32f7xx_hal_hcd.c ****     hhcd->hc[ch_num].ErrCnt = 0U;
1221:Drivers/STM32F7xx_HAL_Driver/Src/stm32f7xx_hal_hcd.c ****     __HAL_HCD_CLEAR_HC_INT(ch_num, USB_OTG_HCINT_XFRC);
1222:Drivers/STM32F7xx_HAL_Driver/Src/stm32f7xx_hal_hcd.c **** 
1223:Drivers/STM32F7xx_HAL_Driver/Src/stm32f7xx_hal_hcd.c ****     if ((hhcd->hc[ch_num].ep_type == EP_TYPE_CTRL) ||
1224:Drivers/STM32F7xx_HAL_Driver/Src/stm32f7xx_hal_hcd.c ****         (hhcd->hc[ch_num].ep_type == EP_TYPE_BULK))
1225:Drivers/STM32F7xx_HAL_Driver/Src/stm32f7xx_hal_hcd.c ****     {
1226:Drivers/STM32F7xx_HAL_Driver/Src/stm32f7xx_hal_hcd.c ****       __HAL_HCD_UNMASK_HALT_HC_INT(ch_num);
1227:Drivers/STM32F7xx_HAL_Driver/Src/stm32f7xx_hal_hcd.c ****       (void)USB_HC_Halt(hhcd->Instance, (uint8_t)ch_num);
ARM GAS  C:\Users\seblo\AppData\Local\Temp\ccHEsOvX.s 			page 23


1228:Drivers/STM32F7xx_HAL_Driver/Src/stm32f7xx_hal_hcd.c ****       __HAL_HCD_CLEAR_HC_INT(ch_num, USB_OTG_HCINT_NAK);
1229:Drivers/STM32F7xx_HAL_Driver/Src/stm32f7xx_hal_hcd.c ****     }
1230:Drivers/STM32F7xx_HAL_Driver/Src/stm32f7xx_hal_hcd.c ****     else if (hhcd->hc[ch_num].ep_type == EP_TYPE_INTR)
1231:Drivers/STM32F7xx_HAL_Driver/Src/stm32f7xx_hal_hcd.c ****     {
1232:Drivers/STM32F7xx_HAL_Driver/Src/stm32f7xx_hal_hcd.c ****       USBx_HC(ch_num)->HCCHAR |= USB_OTG_HCCHAR_ODDFRM;
1233:Drivers/STM32F7xx_HAL_Driver/Src/stm32f7xx_hal_hcd.c ****       hhcd->hc[ch_num].urb_state = URB_DONE;
1234:Drivers/STM32F7xx_HAL_Driver/Src/stm32f7xx_hal_hcd.c **** 
1235:Drivers/STM32F7xx_HAL_Driver/Src/stm32f7xx_hal_hcd.c **** #if (USE_HAL_HCD_REGISTER_CALLBACKS == 1U)
1236:Drivers/STM32F7xx_HAL_Driver/Src/stm32f7xx_hal_hcd.c ****       hhcd->HC_NotifyURBChangeCallback(hhcd, (uint8_t)ch_num, hhcd->hc[ch_num].urb_state);
1237:Drivers/STM32F7xx_HAL_Driver/Src/stm32f7xx_hal_hcd.c **** #else
1238:Drivers/STM32F7xx_HAL_Driver/Src/stm32f7xx_hal_hcd.c ****       HAL_HCD_HC_NotifyURBChange_Callback(hhcd, (uint8_t)ch_num, hhcd->hc[ch_num].urb_state);
1239:Drivers/STM32F7xx_HAL_Driver/Src/stm32f7xx_hal_hcd.c **** #endif /* USE_HAL_HCD_REGISTER_CALLBACKS */
1240:Drivers/STM32F7xx_HAL_Driver/Src/stm32f7xx_hal_hcd.c ****     }
1241:Drivers/STM32F7xx_HAL_Driver/Src/stm32f7xx_hal_hcd.c ****     else if (hhcd->hc[ch_num].ep_type == EP_TYPE_ISOC)
1242:Drivers/STM32F7xx_HAL_Driver/Src/stm32f7xx_hal_hcd.c ****     {
1243:Drivers/STM32F7xx_HAL_Driver/Src/stm32f7xx_hal_hcd.c ****       hhcd->hc[ch_num].urb_state = URB_DONE;
1244:Drivers/STM32F7xx_HAL_Driver/Src/stm32f7xx_hal_hcd.c ****       hhcd->hc[ch_num].toggle_in ^= 1U;
1245:Drivers/STM32F7xx_HAL_Driver/Src/stm32f7xx_hal_hcd.c **** 
1246:Drivers/STM32F7xx_HAL_Driver/Src/stm32f7xx_hal_hcd.c **** #if (USE_HAL_HCD_REGISTER_CALLBACKS == 1U)
1247:Drivers/STM32F7xx_HAL_Driver/Src/stm32f7xx_hal_hcd.c ****       hhcd->HC_NotifyURBChangeCallback(hhcd, (uint8_t)ch_num, hhcd->hc[ch_num].urb_state);
1248:Drivers/STM32F7xx_HAL_Driver/Src/stm32f7xx_hal_hcd.c **** #else
1249:Drivers/STM32F7xx_HAL_Driver/Src/stm32f7xx_hal_hcd.c ****       HAL_HCD_HC_NotifyURBChange_Callback(hhcd, (uint8_t)ch_num, hhcd->hc[ch_num].urb_state);
1250:Drivers/STM32F7xx_HAL_Driver/Src/stm32f7xx_hal_hcd.c **** #endif /* USE_HAL_HCD_REGISTER_CALLBACKS */
1251:Drivers/STM32F7xx_HAL_Driver/Src/stm32f7xx_hal_hcd.c ****     }
1252:Drivers/STM32F7xx_HAL_Driver/Src/stm32f7xx_hal_hcd.c ****     else
1253:Drivers/STM32F7xx_HAL_Driver/Src/stm32f7xx_hal_hcd.c ****     {
1254:Drivers/STM32F7xx_HAL_Driver/Src/stm32f7xx_hal_hcd.c ****       /* ... */
1255:Drivers/STM32F7xx_HAL_Driver/Src/stm32f7xx_hal_hcd.c ****     }
1256:Drivers/STM32F7xx_HAL_Driver/Src/stm32f7xx_hal_hcd.c ****     hhcd->hc[ch_num].toggle_in ^= 1U;
1257:Drivers/STM32F7xx_HAL_Driver/Src/stm32f7xx_hal_hcd.c **** 
1258:Drivers/STM32F7xx_HAL_Driver/Src/stm32f7xx_hal_hcd.c ****   }
1259:Drivers/STM32F7xx_HAL_Driver/Src/stm32f7xx_hal_hcd.c ****   else if ((USBx_HC(ch_num)->HCINT & USB_OTG_HCINT_CHH) == USB_OTG_HCINT_CHH)
1260:Drivers/STM32F7xx_HAL_Driver/Src/stm32f7xx_hal_hcd.c ****   {
1261:Drivers/STM32F7xx_HAL_Driver/Src/stm32f7xx_hal_hcd.c ****     __HAL_HCD_MASK_HALT_HC_INT(ch_num);
1262:Drivers/STM32F7xx_HAL_Driver/Src/stm32f7xx_hal_hcd.c **** 
1263:Drivers/STM32F7xx_HAL_Driver/Src/stm32f7xx_hal_hcd.c ****     if (hhcd->hc[ch_num].state == HC_XFRC)
1264:Drivers/STM32F7xx_HAL_Driver/Src/stm32f7xx_hal_hcd.c ****     {
1265:Drivers/STM32F7xx_HAL_Driver/Src/stm32f7xx_hal_hcd.c ****       hhcd->hc[ch_num].urb_state  = URB_DONE;
1266:Drivers/STM32F7xx_HAL_Driver/Src/stm32f7xx_hal_hcd.c ****     }
1267:Drivers/STM32F7xx_HAL_Driver/Src/stm32f7xx_hal_hcd.c ****     else if (hhcd->hc[ch_num].state == HC_STALL)
1268:Drivers/STM32F7xx_HAL_Driver/Src/stm32f7xx_hal_hcd.c ****     {
1269:Drivers/STM32F7xx_HAL_Driver/Src/stm32f7xx_hal_hcd.c ****       hhcd->hc[ch_num].urb_state  = URB_STALL;
1270:Drivers/STM32F7xx_HAL_Driver/Src/stm32f7xx_hal_hcd.c ****     }
1271:Drivers/STM32F7xx_HAL_Driver/Src/stm32f7xx_hal_hcd.c ****     else if ((hhcd->hc[ch_num].state == HC_XACTERR) ||
1272:Drivers/STM32F7xx_HAL_Driver/Src/stm32f7xx_hal_hcd.c ****              (hhcd->hc[ch_num].state == HC_DATATGLERR))
1273:Drivers/STM32F7xx_HAL_Driver/Src/stm32f7xx_hal_hcd.c ****     {
1274:Drivers/STM32F7xx_HAL_Driver/Src/stm32f7xx_hal_hcd.c ****       hhcd->hc[ch_num].ErrCnt++;
1275:Drivers/STM32F7xx_HAL_Driver/Src/stm32f7xx_hal_hcd.c ****       if (hhcd->hc[ch_num].ErrCnt > 3U)
1276:Drivers/STM32F7xx_HAL_Driver/Src/stm32f7xx_hal_hcd.c ****       {
1277:Drivers/STM32F7xx_HAL_Driver/Src/stm32f7xx_hal_hcd.c ****         hhcd->hc[ch_num].ErrCnt = 0U;
1278:Drivers/STM32F7xx_HAL_Driver/Src/stm32f7xx_hal_hcd.c ****         hhcd->hc[ch_num].urb_state = URB_ERROR;
1279:Drivers/STM32F7xx_HAL_Driver/Src/stm32f7xx_hal_hcd.c ****       }
1280:Drivers/STM32F7xx_HAL_Driver/Src/stm32f7xx_hal_hcd.c ****       else
1281:Drivers/STM32F7xx_HAL_Driver/Src/stm32f7xx_hal_hcd.c ****       {
1282:Drivers/STM32F7xx_HAL_Driver/Src/stm32f7xx_hal_hcd.c ****         hhcd->hc[ch_num].urb_state = URB_NOTREADY;
1283:Drivers/STM32F7xx_HAL_Driver/Src/stm32f7xx_hal_hcd.c ****       }
1284:Drivers/STM32F7xx_HAL_Driver/Src/stm32f7xx_hal_hcd.c **** 
ARM GAS  C:\Users\seblo\AppData\Local\Temp\ccHEsOvX.s 			page 24


1285:Drivers/STM32F7xx_HAL_Driver/Src/stm32f7xx_hal_hcd.c ****       /* re-activate the channel  */
1286:Drivers/STM32F7xx_HAL_Driver/Src/stm32f7xx_hal_hcd.c ****       tmpreg = USBx_HC(ch_num)->HCCHAR;
1287:Drivers/STM32F7xx_HAL_Driver/Src/stm32f7xx_hal_hcd.c ****       tmpreg &= ~USB_OTG_HCCHAR_CHDIS;
1288:Drivers/STM32F7xx_HAL_Driver/Src/stm32f7xx_hal_hcd.c ****       tmpreg |= USB_OTG_HCCHAR_CHENA;
1289:Drivers/STM32F7xx_HAL_Driver/Src/stm32f7xx_hal_hcd.c ****       USBx_HC(ch_num)->HCCHAR = tmpreg;
1290:Drivers/STM32F7xx_HAL_Driver/Src/stm32f7xx_hal_hcd.c ****     }
1291:Drivers/STM32F7xx_HAL_Driver/Src/stm32f7xx_hal_hcd.c ****     else if (hhcd->hc[ch_num].state == HC_NAK)
1292:Drivers/STM32F7xx_HAL_Driver/Src/stm32f7xx_hal_hcd.c ****     {
1293:Drivers/STM32F7xx_HAL_Driver/Src/stm32f7xx_hal_hcd.c ****       hhcd->hc[ch_num].urb_state  = URB_NOTREADY;
1294:Drivers/STM32F7xx_HAL_Driver/Src/stm32f7xx_hal_hcd.c ****       /* re-activate the channel  */
1295:Drivers/STM32F7xx_HAL_Driver/Src/stm32f7xx_hal_hcd.c ****       tmpreg = USBx_HC(ch_num)->HCCHAR;
1296:Drivers/STM32F7xx_HAL_Driver/Src/stm32f7xx_hal_hcd.c ****       tmpreg &= ~USB_OTG_HCCHAR_CHDIS;
1297:Drivers/STM32F7xx_HAL_Driver/Src/stm32f7xx_hal_hcd.c ****       tmpreg |= USB_OTG_HCCHAR_CHENA;
1298:Drivers/STM32F7xx_HAL_Driver/Src/stm32f7xx_hal_hcd.c ****       USBx_HC(ch_num)->HCCHAR = tmpreg;
1299:Drivers/STM32F7xx_HAL_Driver/Src/stm32f7xx_hal_hcd.c ****     }
1300:Drivers/STM32F7xx_HAL_Driver/Src/stm32f7xx_hal_hcd.c ****     else if (hhcd->hc[ch_num].state == HC_BBLERR)
1301:Drivers/STM32F7xx_HAL_Driver/Src/stm32f7xx_hal_hcd.c ****     {
1302:Drivers/STM32F7xx_HAL_Driver/Src/stm32f7xx_hal_hcd.c ****       hhcd->hc[ch_num].ErrCnt++;
1303:Drivers/STM32F7xx_HAL_Driver/Src/stm32f7xx_hal_hcd.c ****       hhcd->hc[ch_num].urb_state = URB_ERROR;
1304:Drivers/STM32F7xx_HAL_Driver/Src/stm32f7xx_hal_hcd.c ****     }
1305:Drivers/STM32F7xx_HAL_Driver/Src/stm32f7xx_hal_hcd.c ****     else
1306:Drivers/STM32F7xx_HAL_Driver/Src/stm32f7xx_hal_hcd.c ****     {
1307:Drivers/STM32F7xx_HAL_Driver/Src/stm32f7xx_hal_hcd.c ****       /* ... */
1308:Drivers/STM32F7xx_HAL_Driver/Src/stm32f7xx_hal_hcd.c ****     }
1309:Drivers/STM32F7xx_HAL_Driver/Src/stm32f7xx_hal_hcd.c ****     __HAL_HCD_CLEAR_HC_INT(ch_num, USB_OTG_HCINT_CHH);
1310:Drivers/STM32F7xx_HAL_Driver/Src/stm32f7xx_hal_hcd.c ****     HAL_HCD_HC_NotifyURBChange_Callback(hhcd, (uint8_t)ch_num, hhcd->hc[ch_num].urb_state);
1311:Drivers/STM32F7xx_HAL_Driver/Src/stm32f7xx_hal_hcd.c ****   }
1312:Drivers/STM32F7xx_HAL_Driver/Src/stm32f7xx_hal_hcd.c ****   else if ((USBx_HC(ch_num)->HCINT & USB_OTG_HCINT_TXERR) == USB_OTG_HCINT_TXERR)
1313:Drivers/STM32F7xx_HAL_Driver/Src/stm32f7xx_hal_hcd.c ****   {
1314:Drivers/STM32F7xx_HAL_Driver/Src/stm32f7xx_hal_hcd.c ****     __HAL_HCD_UNMASK_HALT_HC_INT(ch_num);
1315:Drivers/STM32F7xx_HAL_Driver/Src/stm32f7xx_hal_hcd.c ****     hhcd->hc[ch_num].ErrCnt++;
1316:Drivers/STM32F7xx_HAL_Driver/Src/stm32f7xx_hal_hcd.c ****     hhcd->hc[ch_num].state = HC_XACTERR;
1317:Drivers/STM32F7xx_HAL_Driver/Src/stm32f7xx_hal_hcd.c ****     (void)USB_HC_Halt(hhcd->Instance, (uint8_t)ch_num);
1318:Drivers/STM32F7xx_HAL_Driver/Src/stm32f7xx_hal_hcd.c ****     __HAL_HCD_CLEAR_HC_INT(ch_num, USB_OTG_HCINT_TXERR);
1319:Drivers/STM32F7xx_HAL_Driver/Src/stm32f7xx_hal_hcd.c ****   }
1320:Drivers/STM32F7xx_HAL_Driver/Src/stm32f7xx_hal_hcd.c ****   else if ((USBx_HC(ch_num)->HCINT & USB_OTG_HCINT_NAK) == USB_OTG_HCINT_NAK)
1321:Drivers/STM32F7xx_HAL_Driver/Src/stm32f7xx_hal_hcd.c ****   {
1322:Drivers/STM32F7xx_HAL_Driver/Src/stm32f7xx_hal_hcd.c ****     if (hhcd->hc[ch_num].ep_type == EP_TYPE_INTR)
1323:Drivers/STM32F7xx_HAL_Driver/Src/stm32f7xx_hal_hcd.c ****     {
1324:Drivers/STM32F7xx_HAL_Driver/Src/stm32f7xx_hal_hcd.c ****       hhcd->hc[ch_num].ErrCnt = 0U;
1325:Drivers/STM32F7xx_HAL_Driver/Src/stm32f7xx_hal_hcd.c ****       __HAL_HCD_UNMASK_HALT_HC_INT(ch_num);
1326:Drivers/STM32F7xx_HAL_Driver/Src/stm32f7xx_hal_hcd.c ****       (void)USB_HC_Halt(hhcd->Instance, (uint8_t)ch_num);
1327:Drivers/STM32F7xx_HAL_Driver/Src/stm32f7xx_hal_hcd.c ****     }
1328:Drivers/STM32F7xx_HAL_Driver/Src/stm32f7xx_hal_hcd.c ****     else if ((hhcd->hc[ch_num].ep_type == EP_TYPE_CTRL) ||
1329:Drivers/STM32F7xx_HAL_Driver/Src/stm32f7xx_hal_hcd.c ****              (hhcd->hc[ch_num].ep_type == EP_TYPE_BULK))
1330:Drivers/STM32F7xx_HAL_Driver/Src/stm32f7xx_hal_hcd.c ****     {
1331:Drivers/STM32F7xx_HAL_Driver/Src/stm32f7xx_hal_hcd.c ****       hhcd->hc[ch_num].ErrCnt = 0U;
1332:Drivers/STM32F7xx_HAL_Driver/Src/stm32f7xx_hal_hcd.c **** 
1333:Drivers/STM32F7xx_HAL_Driver/Src/stm32f7xx_hal_hcd.c ****       if (hhcd->Init.dma_enable == 0U)
1334:Drivers/STM32F7xx_HAL_Driver/Src/stm32f7xx_hal_hcd.c ****       {
1335:Drivers/STM32F7xx_HAL_Driver/Src/stm32f7xx_hal_hcd.c ****         hhcd->hc[ch_num].state = HC_NAK;
1336:Drivers/STM32F7xx_HAL_Driver/Src/stm32f7xx_hal_hcd.c ****         __HAL_HCD_UNMASK_HALT_HC_INT(ch_num);
1337:Drivers/STM32F7xx_HAL_Driver/Src/stm32f7xx_hal_hcd.c ****         (void)USB_HC_Halt(hhcd->Instance, (uint8_t)ch_num);
1338:Drivers/STM32F7xx_HAL_Driver/Src/stm32f7xx_hal_hcd.c ****       }
1339:Drivers/STM32F7xx_HAL_Driver/Src/stm32f7xx_hal_hcd.c ****     }
1340:Drivers/STM32F7xx_HAL_Driver/Src/stm32f7xx_hal_hcd.c ****     else
1341:Drivers/STM32F7xx_HAL_Driver/Src/stm32f7xx_hal_hcd.c ****     {
ARM GAS  C:\Users\seblo\AppData\Local\Temp\ccHEsOvX.s 			page 25


1342:Drivers/STM32F7xx_HAL_Driver/Src/stm32f7xx_hal_hcd.c ****       /* ... */
1343:Drivers/STM32F7xx_HAL_Driver/Src/stm32f7xx_hal_hcd.c ****     }
1344:Drivers/STM32F7xx_HAL_Driver/Src/stm32f7xx_hal_hcd.c ****     __HAL_HCD_CLEAR_HC_INT(ch_num, USB_OTG_HCINT_NAK);
1345:Drivers/STM32F7xx_HAL_Driver/Src/stm32f7xx_hal_hcd.c ****   }
1346:Drivers/STM32F7xx_HAL_Driver/Src/stm32f7xx_hal_hcd.c ****   else
1347:Drivers/STM32F7xx_HAL_Driver/Src/stm32f7xx_hal_hcd.c ****   {
1348:Drivers/STM32F7xx_HAL_Driver/Src/stm32f7xx_hal_hcd.c ****     /* ... */
1349:Drivers/STM32F7xx_HAL_Driver/Src/stm32f7xx_hal_hcd.c ****   }
1350:Drivers/STM32F7xx_HAL_Driver/Src/stm32f7xx_hal_hcd.c **** }
1351:Drivers/STM32F7xx_HAL_Driver/Src/stm32f7xx_hal_hcd.c **** 
1352:Drivers/STM32F7xx_HAL_Driver/Src/stm32f7xx_hal_hcd.c **** /**
1353:Drivers/STM32F7xx_HAL_Driver/Src/stm32f7xx_hal_hcd.c ****   * @brief  Handle Host Channel OUT interrupt requests.
1354:Drivers/STM32F7xx_HAL_Driver/Src/stm32f7xx_hal_hcd.c ****   * @param  hhcd HCD handle
1355:Drivers/STM32F7xx_HAL_Driver/Src/stm32f7xx_hal_hcd.c ****   * @param  chnum Channel number.
1356:Drivers/STM32F7xx_HAL_Driver/Src/stm32f7xx_hal_hcd.c ****   *         This parameter can be a value from 1 to 15
1357:Drivers/STM32F7xx_HAL_Driver/Src/stm32f7xx_hal_hcd.c ****   * @retval none
1358:Drivers/STM32F7xx_HAL_Driver/Src/stm32f7xx_hal_hcd.c ****   */
1359:Drivers/STM32F7xx_HAL_Driver/Src/stm32f7xx_hal_hcd.c **** static void HCD_HC_OUT_IRQHandler(HCD_HandleTypeDef *hhcd, uint8_t chnum)
1360:Drivers/STM32F7xx_HAL_Driver/Src/stm32f7xx_hal_hcd.c **** {
1361:Drivers/STM32F7xx_HAL_Driver/Src/stm32f7xx_hal_hcd.c ****   USB_OTG_GlobalTypeDef *USBx = hhcd->Instance;
1362:Drivers/STM32F7xx_HAL_Driver/Src/stm32f7xx_hal_hcd.c ****   uint32_t USBx_BASE = (uint32_t)USBx;
1363:Drivers/STM32F7xx_HAL_Driver/Src/stm32f7xx_hal_hcd.c ****   uint32_t ch_num = (uint32_t)chnum;
1364:Drivers/STM32F7xx_HAL_Driver/Src/stm32f7xx_hal_hcd.c ****   uint32_t tmpreg;
1365:Drivers/STM32F7xx_HAL_Driver/Src/stm32f7xx_hal_hcd.c **** 
1366:Drivers/STM32F7xx_HAL_Driver/Src/stm32f7xx_hal_hcd.c ****   if ((USBx_HC(ch_num)->HCINT & USB_OTG_HCINT_AHBERR) == USB_OTG_HCINT_AHBERR)
1367:Drivers/STM32F7xx_HAL_Driver/Src/stm32f7xx_hal_hcd.c ****   {
1368:Drivers/STM32F7xx_HAL_Driver/Src/stm32f7xx_hal_hcd.c ****     __HAL_HCD_CLEAR_HC_INT(ch_num, USB_OTG_HCINT_AHBERR);
1369:Drivers/STM32F7xx_HAL_Driver/Src/stm32f7xx_hal_hcd.c ****     __HAL_HCD_UNMASK_HALT_HC_INT(ch_num);
1370:Drivers/STM32F7xx_HAL_Driver/Src/stm32f7xx_hal_hcd.c ****   }
1371:Drivers/STM32F7xx_HAL_Driver/Src/stm32f7xx_hal_hcd.c ****   else if ((USBx_HC(ch_num)->HCINT & USB_OTG_HCINT_ACK) == USB_OTG_HCINT_ACK)
1372:Drivers/STM32F7xx_HAL_Driver/Src/stm32f7xx_hal_hcd.c ****   {
1373:Drivers/STM32F7xx_HAL_Driver/Src/stm32f7xx_hal_hcd.c ****     __HAL_HCD_CLEAR_HC_INT(ch_num, USB_OTG_HCINT_ACK);
1374:Drivers/STM32F7xx_HAL_Driver/Src/stm32f7xx_hal_hcd.c **** 
1375:Drivers/STM32F7xx_HAL_Driver/Src/stm32f7xx_hal_hcd.c ****     if (hhcd->hc[ch_num].do_ping == 1U)
1376:Drivers/STM32F7xx_HAL_Driver/Src/stm32f7xx_hal_hcd.c ****     {
1377:Drivers/STM32F7xx_HAL_Driver/Src/stm32f7xx_hal_hcd.c ****       hhcd->hc[ch_num].do_ping = 0U;
1378:Drivers/STM32F7xx_HAL_Driver/Src/stm32f7xx_hal_hcd.c ****       hhcd->hc[ch_num].urb_state  = URB_NOTREADY;
1379:Drivers/STM32F7xx_HAL_Driver/Src/stm32f7xx_hal_hcd.c ****       __HAL_HCD_UNMASK_HALT_HC_INT(ch_num);
1380:Drivers/STM32F7xx_HAL_Driver/Src/stm32f7xx_hal_hcd.c ****       (void)USB_HC_Halt(hhcd->Instance, (uint8_t)ch_num);
1381:Drivers/STM32F7xx_HAL_Driver/Src/stm32f7xx_hal_hcd.c ****     }
1382:Drivers/STM32F7xx_HAL_Driver/Src/stm32f7xx_hal_hcd.c ****   }
1383:Drivers/STM32F7xx_HAL_Driver/Src/stm32f7xx_hal_hcd.c ****   else if ((USBx_HC(ch_num)->HCINT & USB_OTG_HCINT_NYET) == USB_OTG_HCINT_NYET)
1384:Drivers/STM32F7xx_HAL_Driver/Src/stm32f7xx_hal_hcd.c ****   {
1385:Drivers/STM32F7xx_HAL_Driver/Src/stm32f7xx_hal_hcd.c ****     hhcd->hc[ch_num].state = HC_NYET;
1386:Drivers/STM32F7xx_HAL_Driver/Src/stm32f7xx_hal_hcd.c ****     hhcd->hc[ch_num].do_ping = 1U;
1387:Drivers/STM32F7xx_HAL_Driver/Src/stm32f7xx_hal_hcd.c ****     hhcd->hc[ch_num].ErrCnt = 0U;
1388:Drivers/STM32F7xx_HAL_Driver/Src/stm32f7xx_hal_hcd.c ****     __HAL_HCD_UNMASK_HALT_HC_INT(ch_num);
1389:Drivers/STM32F7xx_HAL_Driver/Src/stm32f7xx_hal_hcd.c ****     (void)USB_HC_Halt(hhcd->Instance, (uint8_t)ch_num);
1390:Drivers/STM32F7xx_HAL_Driver/Src/stm32f7xx_hal_hcd.c ****     __HAL_HCD_CLEAR_HC_INT(ch_num, USB_OTG_HCINT_NYET);
1391:Drivers/STM32F7xx_HAL_Driver/Src/stm32f7xx_hal_hcd.c ****   }
1392:Drivers/STM32F7xx_HAL_Driver/Src/stm32f7xx_hal_hcd.c ****   else if ((USBx_HC(ch_num)->HCINT & USB_OTG_HCINT_FRMOR) == USB_OTG_HCINT_FRMOR)
1393:Drivers/STM32F7xx_HAL_Driver/Src/stm32f7xx_hal_hcd.c ****   {
1394:Drivers/STM32F7xx_HAL_Driver/Src/stm32f7xx_hal_hcd.c ****     __HAL_HCD_UNMASK_HALT_HC_INT(ch_num);
1395:Drivers/STM32F7xx_HAL_Driver/Src/stm32f7xx_hal_hcd.c ****     (void)USB_HC_Halt(hhcd->Instance, (uint8_t)ch_num);
1396:Drivers/STM32F7xx_HAL_Driver/Src/stm32f7xx_hal_hcd.c ****     __HAL_HCD_CLEAR_HC_INT(ch_num, USB_OTG_HCINT_FRMOR);
1397:Drivers/STM32F7xx_HAL_Driver/Src/stm32f7xx_hal_hcd.c ****   }
1398:Drivers/STM32F7xx_HAL_Driver/Src/stm32f7xx_hal_hcd.c ****   else if ((USBx_HC(ch_num)->HCINT & USB_OTG_HCINT_XFRC) == USB_OTG_HCINT_XFRC)
ARM GAS  C:\Users\seblo\AppData\Local\Temp\ccHEsOvX.s 			page 26


1399:Drivers/STM32F7xx_HAL_Driver/Src/stm32f7xx_hal_hcd.c ****   {
1400:Drivers/STM32F7xx_HAL_Driver/Src/stm32f7xx_hal_hcd.c ****     hhcd->hc[ch_num].ErrCnt = 0U;
1401:Drivers/STM32F7xx_HAL_Driver/Src/stm32f7xx_hal_hcd.c ****     __HAL_HCD_UNMASK_HALT_HC_INT(ch_num);
1402:Drivers/STM32F7xx_HAL_Driver/Src/stm32f7xx_hal_hcd.c ****     (void)USB_HC_Halt(hhcd->Instance, (uint8_t)ch_num);
1403:Drivers/STM32F7xx_HAL_Driver/Src/stm32f7xx_hal_hcd.c ****     __HAL_HCD_CLEAR_HC_INT(ch_num, USB_OTG_HCINT_XFRC);
1404:Drivers/STM32F7xx_HAL_Driver/Src/stm32f7xx_hal_hcd.c ****     hhcd->hc[ch_num].state = HC_XFRC;
1405:Drivers/STM32F7xx_HAL_Driver/Src/stm32f7xx_hal_hcd.c ****   }
1406:Drivers/STM32F7xx_HAL_Driver/Src/stm32f7xx_hal_hcd.c ****   else if ((USBx_HC(ch_num)->HCINT & USB_OTG_HCINT_STALL) == USB_OTG_HCINT_STALL)
1407:Drivers/STM32F7xx_HAL_Driver/Src/stm32f7xx_hal_hcd.c ****   {
1408:Drivers/STM32F7xx_HAL_Driver/Src/stm32f7xx_hal_hcd.c ****     __HAL_HCD_CLEAR_HC_INT(ch_num, USB_OTG_HCINT_STALL);
1409:Drivers/STM32F7xx_HAL_Driver/Src/stm32f7xx_hal_hcd.c ****     __HAL_HCD_UNMASK_HALT_HC_INT(ch_num);
1410:Drivers/STM32F7xx_HAL_Driver/Src/stm32f7xx_hal_hcd.c ****     (void)USB_HC_Halt(hhcd->Instance, (uint8_t)ch_num);
1411:Drivers/STM32F7xx_HAL_Driver/Src/stm32f7xx_hal_hcd.c ****     hhcd->hc[ch_num].state = HC_STALL;
1412:Drivers/STM32F7xx_HAL_Driver/Src/stm32f7xx_hal_hcd.c ****   }
1413:Drivers/STM32F7xx_HAL_Driver/Src/stm32f7xx_hal_hcd.c ****   else if ((USBx_HC(ch_num)->HCINT & USB_OTG_HCINT_NAK) == USB_OTG_HCINT_NAK)
1414:Drivers/STM32F7xx_HAL_Driver/Src/stm32f7xx_hal_hcd.c ****   {
1415:Drivers/STM32F7xx_HAL_Driver/Src/stm32f7xx_hal_hcd.c ****     hhcd->hc[ch_num].ErrCnt = 0U;
1416:Drivers/STM32F7xx_HAL_Driver/Src/stm32f7xx_hal_hcd.c ****     hhcd->hc[ch_num].state = HC_NAK;
1417:Drivers/STM32F7xx_HAL_Driver/Src/stm32f7xx_hal_hcd.c **** 
1418:Drivers/STM32F7xx_HAL_Driver/Src/stm32f7xx_hal_hcd.c ****     if (hhcd->hc[ch_num].do_ping == 0U)
1419:Drivers/STM32F7xx_HAL_Driver/Src/stm32f7xx_hal_hcd.c ****     {
1420:Drivers/STM32F7xx_HAL_Driver/Src/stm32f7xx_hal_hcd.c ****       if (hhcd->hc[ch_num].speed == HCD_SPEED_HIGH)
1421:Drivers/STM32F7xx_HAL_Driver/Src/stm32f7xx_hal_hcd.c ****       {
1422:Drivers/STM32F7xx_HAL_Driver/Src/stm32f7xx_hal_hcd.c ****         hhcd->hc[ch_num].do_ping = 1U;
1423:Drivers/STM32F7xx_HAL_Driver/Src/stm32f7xx_hal_hcd.c ****       }
1424:Drivers/STM32F7xx_HAL_Driver/Src/stm32f7xx_hal_hcd.c ****     }
1425:Drivers/STM32F7xx_HAL_Driver/Src/stm32f7xx_hal_hcd.c **** 
1426:Drivers/STM32F7xx_HAL_Driver/Src/stm32f7xx_hal_hcd.c ****     __HAL_HCD_UNMASK_HALT_HC_INT(ch_num);
1427:Drivers/STM32F7xx_HAL_Driver/Src/stm32f7xx_hal_hcd.c ****     (void)USB_HC_Halt(hhcd->Instance, (uint8_t)ch_num);
1428:Drivers/STM32F7xx_HAL_Driver/Src/stm32f7xx_hal_hcd.c ****     __HAL_HCD_CLEAR_HC_INT(ch_num, USB_OTG_HCINT_NAK);
1429:Drivers/STM32F7xx_HAL_Driver/Src/stm32f7xx_hal_hcd.c ****   }
1430:Drivers/STM32F7xx_HAL_Driver/Src/stm32f7xx_hal_hcd.c ****   else if ((USBx_HC(ch_num)->HCINT & USB_OTG_HCINT_TXERR) == USB_OTG_HCINT_TXERR)
1431:Drivers/STM32F7xx_HAL_Driver/Src/stm32f7xx_hal_hcd.c ****   {
1432:Drivers/STM32F7xx_HAL_Driver/Src/stm32f7xx_hal_hcd.c ****     __HAL_HCD_UNMASK_HALT_HC_INT(ch_num);
1433:Drivers/STM32F7xx_HAL_Driver/Src/stm32f7xx_hal_hcd.c ****     (void)USB_HC_Halt(hhcd->Instance, (uint8_t)ch_num);
1434:Drivers/STM32F7xx_HAL_Driver/Src/stm32f7xx_hal_hcd.c ****     hhcd->hc[ch_num].state = HC_XACTERR;
1435:Drivers/STM32F7xx_HAL_Driver/Src/stm32f7xx_hal_hcd.c ****     __HAL_HCD_CLEAR_HC_INT(ch_num, USB_OTG_HCINT_TXERR);
1436:Drivers/STM32F7xx_HAL_Driver/Src/stm32f7xx_hal_hcd.c ****   }
1437:Drivers/STM32F7xx_HAL_Driver/Src/stm32f7xx_hal_hcd.c ****   else if ((USBx_HC(ch_num)->HCINT & USB_OTG_HCINT_DTERR) == USB_OTG_HCINT_DTERR)
1438:Drivers/STM32F7xx_HAL_Driver/Src/stm32f7xx_hal_hcd.c ****   {
1439:Drivers/STM32F7xx_HAL_Driver/Src/stm32f7xx_hal_hcd.c ****     __HAL_HCD_UNMASK_HALT_HC_INT(ch_num);
1440:Drivers/STM32F7xx_HAL_Driver/Src/stm32f7xx_hal_hcd.c ****     (void)USB_HC_Halt(hhcd->Instance, (uint8_t)ch_num);
1441:Drivers/STM32F7xx_HAL_Driver/Src/stm32f7xx_hal_hcd.c ****     __HAL_HCD_CLEAR_HC_INT(ch_num, USB_OTG_HCINT_NAK);
1442:Drivers/STM32F7xx_HAL_Driver/Src/stm32f7xx_hal_hcd.c ****     __HAL_HCD_CLEAR_HC_INT(ch_num, USB_OTG_HCINT_DTERR);
1443:Drivers/STM32F7xx_HAL_Driver/Src/stm32f7xx_hal_hcd.c ****     hhcd->hc[ch_num].state = HC_DATATGLERR;
1444:Drivers/STM32F7xx_HAL_Driver/Src/stm32f7xx_hal_hcd.c ****   }
1445:Drivers/STM32F7xx_HAL_Driver/Src/stm32f7xx_hal_hcd.c ****   else if ((USBx_HC(ch_num)->HCINT & USB_OTG_HCINT_CHH) == USB_OTG_HCINT_CHH)
1446:Drivers/STM32F7xx_HAL_Driver/Src/stm32f7xx_hal_hcd.c ****   {
1447:Drivers/STM32F7xx_HAL_Driver/Src/stm32f7xx_hal_hcd.c ****     __HAL_HCD_MASK_HALT_HC_INT(ch_num);
1448:Drivers/STM32F7xx_HAL_Driver/Src/stm32f7xx_hal_hcd.c **** 
1449:Drivers/STM32F7xx_HAL_Driver/Src/stm32f7xx_hal_hcd.c ****     if (hhcd->hc[ch_num].state == HC_XFRC)
1450:Drivers/STM32F7xx_HAL_Driver/Src/stm32f7xx_hal_hcd.c ****     {
1451:Drivers/STM32F7xx_HAL_Driver/Src/stm32f7xx_hal_hcd.c ****       hhcd->hc[ch_num].urb_state  = URB_DONE;
1452:Drivers/STM32F7xx_HAL_Driver/Src/stm32f7xx_hal_hcd.c ****       if ((hhcd->hc[ch_num].ep_type == EP_TYPE_BULK) ||
1453:Drivers/STM32F7xx_HAL_Driver/Src/stm32f7xx_hal_hcd.c ****           (hhcd->hc[ch_num].ep_type == EP_TYPE_INTR))
1454:Drivers/STM32F7xx_HAL_Driver/Src/stm32f7xx_hal_hcd.c ****       {
1455:Drivers/STM32F7xx_HAL_Driver/Src/stm32f7xx_hal_hcd.c ****         hhcd->hc[ch_num].toggle_out ^= 1U;
ARM GAS  C:\Users\seblo\AppData\Local\Temp\ccHEsOvX.s 			page 27


1456:Drivers/STM32F7xx_HAL_Driver/Src/stm32f7xx_hal_hcd.c ****       }
1457:Drivers/STM32F7xx_HAL_Driver/Src/stm32f7xx_hal_hcd.c ****     }
1458:Drivers/STM32F7xx_HAL_Driver/Src/stm32f7xx_hal_hcd.c ****     else if (hhcd->hc[ch_num].state == HC_NAK)
1459:Drivers/STM32F7xx_HAL_Driver/Src/stm32f7xx_hal_hcd.c ****     {
1460:Drivers/STM32F7xx_HAL_Driver/Src/stm32f7xx_hal_hcd.c ****       hhcd->hc[ch_num].urb_state = URB_NOTREADY;
1461:Drivers/STM32F7xx_HAL_Driver/Src/stm32f7xx_hal_hcd.c ****     }
1462:Drivers/STM32F7xx_HAL_Driver/Src/stm32f7xx_hal_hcd.c ****     else if (hhcd->hc[ch_num].state == HC_NYET)
1463:Drivers/STM32F7xx_HAL_Driver/Src/stm32f7xx_hal_hcd.c ****     {
1464:Drivers/STM32F7xx_HAL_Driver/Src/stm32f7xx_hal_hcd.c ****       hhcd->hc[ch_num].urb_state  = URB_NOTREADY;
1465:Drivers/STM32F7xx_HAL_Driver/Src/stm32f7xx_hal_hcd.c ****     }
1466:Drivers/STM32F7xx_HAL_Driver/Src/stm32f7xx_hal_hcd.c ****     else if (hhcd->hc[ch_num].state == HC_STALL)
1467:Drivers/STM32F7xx_HAL_Driver/Src/stm32f7xx_hal_hcd.c ****     {
1468:Drivers/STM32F7xx_HAL_Driver/Src/stm32f7xx_hal_hcd.c ****       hhcd->hc[ch_num].urb_state  = URB_STALL;
1469:Drivers/STM32F7xx_HAL_Driver/Src/stm32f7xx_hal_hcd.c ****     }
1470:Drivers/STM32F7xx_HAL_Driver/Src/stm32f7xx_hal_hcd.c ****     else if ((hhcd->hc[ch_num].state == HC_XACTERR) ||
1471:Drivers/STM32F7xx_HAL_Driver/Src/stm32f7xx_hal_hcd.c ****              (hhcd->hc[ch_num].state == HC_DATATGLERR))
1472:Drivers/STM32F7xx_HAL_Driver/Src/stm32f7xx_hal_hcd.c ****     {
1473:Drivers/STM32F7xx_HAL_Driver/Src/stm32f7xx_hal_hcd.c ****       hhcd->hc[ch_num].ErrCnt++;
1474:Drivers/STM32F7xx_HAL_Driver/Src/stm32f7xx_hal_hcd.c ****       if (hhcd->hc[ch_num].ErrCnt > 3U)
1475:Drivers/STM32F7xx_HAL_Driver/Src/stm32f7xx_hal_hcd.c ****       {
1476:Drivers/STM32F7xx_HAL_Driver/Src/stm32f7xx_hal_hcd.c ****         hhcd->hc[ch_num].ErrCnt = 0U;
1477:Drivers/STM32F7xx_HAL_Driver/Src/stm32f7xx_hal_hcd.c ****         hhcd->hc[ch_num].urb_state = URB_ERROR;
1478:Drivers/STM32F7xx_HAL_Driver/Src/stm32f7xx_hal_hcd.c ****       }
1479:Drivers/STM32F7xx_HAL_Driver/Src/stm32f7xx_hal_hcd.c ****       else
1480:Drivers/STM32F7xx_HAL_Driver/Src/stm32f7xx_hal_hcd.c ****       {
1481:Drivers/STM32F7xx_HAL_Driver/Src/stm32f7xx_hal_hcd.c ****         hhcd->hc[ch_num].urb_state = URB_NOTREADY;
1482:Drivers/STM32F7xx_HAL_Driver/Src/stm32f7xx_hal_hcd.c ****       }
1483:Drivers/STM32F7xx_HAL_Driver/Src/stm32f7xx_hal_hcd.c **** 
1484:Drivers/STM32F7xx_HAL_Driver/Src/stm32f7xx_hal_hcd.c ****       /* re-activate the channel  */
1485:Drivers/STM32F7xx_HAL_Driver/Src/stm32f7xx_hal_hcd.c ****       tmpreg = USBx_HC(ch_num)->HCCHAR;
1486:Drivers/STM32F7xx_HAL_Driver/Src/stm32f7xx_hal_hcd.c ****       tmpreg &= ~USB_OTG_HCCHAR_CHDIS;
1487:Drivers/STM32F7xx_HAL_Driver/Src/stm32f7xx_hal_hcd.c ****       tmpreg |= USB_OTG_HCCHAR_CHENA;
1488:Drivers/STM32F7xx_HAL_Driver/Src/stm32f7xx_hal_hcd.c ****       USBx_HC(ch_num)->HCCHAR = tmpreg;
1489:Drivers/STM32F7xx_HAL_Driver/Src/stm32f7xx_hal_hcd.c ****     }
1490:Drivers/STM32F7xx_HAL_Driver/Src/stm32f7xx_hal_hcd.c ****     else
1491:Drivers/STM32F7xx_HAL_Driver/Src/stm32f7xx_hal_hcd.c ****     {
1492:Drivers/STM32F7xx_HAL_Driver/Src/stm32f7xx_hal_hcd.c ****       /* ... */
1493:Drivers/STM32F7xx_HAL_Driver/Src/stm32f7xx_hal_hcd.c ****     }
1494:Drivers/STM32F7xx_HAL_Driver/Src/stm32f7xx_hal_hcd.c **** 
1495:Drivers/STM32F7xx_HAL_Driver/Src/stm32f7xx_hal_hcd.c ****     __HAL_HCD_CLEAR_HC_INT(ch_num, USB_OTG_HCINT_CHH);
1496:Drivers/STM32F7xx_HAL_Driver/Src/stm32f7xx_hal_hcd.c ****     HAL_HCD_HC_NotifyURBChange_Callback(hhcd, (uint8_t)ch_num, hhcd->hc[ch_num].urb_state);
1497:Drivers/STM32F7xx_HAL_Driver/Src/stm32f7xx_hal_hcd.c ****   }
1498:Drivers/STM32F7xx_HAL_Driver/Src/stm32f7xx_hal_hcd.c ****   else
1499:Drivers/STM32F7xx_HAL_Driver/Src/stm32f7xx_hal_hcd.c ****   {
1500:Drivers/STM32F7xx_HAL_Driver/Src/stm32f7xx_hal_hcd.c ****     /* ... */
1501:Drivers/STM32F7xx_HAL_Driver/Src/stm32f7xx_hal_hcd.c ****   }
1502:Drivers/STM32F7xx_HAL_Driver/Src/stm32f7xx_hal_hcd.c **** }
1503:Drivers/STM32F7xx_HAL_Driver/Src/stm32f7xx_hal_hcd.c **** 
1504:Drivers/STM32F7xx_HAL_Driver/Src/stm32f7xx_hal_hcd.c **** /**
1505:Drivers/STM32F7xx_HAL_Driver/Src/stm32f7xx_hal_hcd.c ****   * @brief  Handle Rx Queue Level interrupt requests.
1506:Drivers/STM32F7xx_HAL_Driver/Src/stm32f7xx_hal_hcd.c ****   * @param  hhcd HCD handle
1507:Drivers/STM32F7xx_HAL_Driver/Src/stm32f7xx_hal_hcd.c ****   * @retval none
1508:Drivers/STM32F7xx_HAL_Driver/Src/stm32f7xx_hal_hcd.c ****   */
1509:Drivers/STM32F7xx_HAL_Driver/Src/stm32f7xx_hal_hcd.c **** static void HCD_RXQLVL_IRQHandler(HCD_HandleTypeDef *hhcd)
1510:Drivers/STM32F7xx_HAL_Driver/Src/stm32f7xx_hal_hcd.c **** {
  29              		.loc 1 1510 1 view -0
  30              		.cfi_startproc
ARM GAS  C:\Users\seblo\AppData\Local\Temp\ccHEsOvX.s 			page 28


  31              		@ args = 0, pretend = 0, frame = 0
  32              		@ frame_needed = 0, uses_anonymous_args = 0
  33              		.loc 1 1510 1 is_stmt 0 view .LVU1
  34 0000 F8B5     		push	{r3, r4, r5, r6, r7, lr}
  35              	.LCFI0:
  36              		.cfi_def_cfa_offset 24
  37              		.cfi_offset 3, -24
  38              		.cfi_offset 4, -20
  39              		.cfi_offset 5, -16
  40              		.cfi_offset 6, -12
  41              		.cfi_offset 7, -8
  42              		.cfi_offset 14, -4
1511:Drivers/STM32F7xx_HAL_Driver/Src/stm32f7xx_hal_hcd.c ****   USB_OTG_GlobalTypeDef *USBx = hhcd->Instance;
  43              		.loc 1 1511 3 is_stmt 1 view .LVU2
  44              		.loc 1 1511 26 is_stmt 0 view .LVU3
  45 0002 0668     		ldr	r6, [r0]
  46              	.LVL1:
1512:Drivers/STM32F7xx_HAL_Driver/Src/stm32f7xx_hal_hcd.c ****   uint32_t USBx_BASE = (uint32_t)USBx;
  47              		.loc 1 1512 3 is_stmt 1 view .LVU4
1513:Drivers/STM32F7xx_HAL_Driver/Src/stm32f7xx_hal_hcd.c ****   uint32_t pktsts;
  48              		.loc 1 1513 3 view .LVU5
1514:Drivers/STM32F7xx_HAL_Driver/Src/stm32f7xx_hal_hcd.c ****   uint32_t pktcnt;
  49              		.loc 1 1514 3 view .LVU6
1515:Drivers/STM32F7xx_HAL_Driver/Src/stm32f7xx_hal_hcd.c ****   uint32_t temp;
  50              		.loc 1 1515 3 view .LVU7
1516:Drivers/STM32F7xx_HAL_Driver/Src/stm32f7xx_hal_hcd.c ****   uint32_t tmpreg;
  51              		.loc 1 1516 3 view .LVU8
1517:Drivers/STM32F7xx_HAL_Driver/Src/stm32f7xx_hal_hcd.c ****   uint32_t ch_num;
  52              		.loc 1 1517 3 view .LVU9
1518:Drivers/STM32F7xx_HAL_Driver/Src/stm32f7xx_hal_hcd.c **** 
1519:Drivers/STM32F7xx_HAL_Driver/Src/stm32f7xx_hal_hcd.c ****   temp = hhcd->Instance->GRXSTSP;
  53              		.loc 1 1519 3 view .LVU10
  54              		.loc 1 1519 8 is_stmt 0 view .LVU11
  55 0004 346A     		ldr	r4, [r6, #32]
  56              	.LVL2:
1520:Drivers/STM32F7xx_HAL_Driver/Src/stm32f7xx_hal_hcd.c ****   ch_num = temp & USB_OTG_GRXSTSP_EPNUM;
  57              		.loc 1 1520 3 is_stmt 1 view .LVU12
  58              		.loc 1 1520 10 is_stmt 0 view .LVU13
  59 0006 04F00F07 		and	r7, r4, #15
  60              	.LVL3:
1521:Drivers/STM32F7xx_HAL_Driver/Src/stm32f7xx_hal_hcd.c ****   pktsts = (temp & USB_OTG_GRXSTSP_PKTSTS) >> 17;
  61              		.loc 1 1521 3 is_stmt 1 view .LVU14
  62              		.loc 1 1521 10 is_stmt 0 view .LVU15
  63 000a C4F34343 		ubfx	r3, r4, #17, #4
  64              	.LVL4:
1522:Drivers/STM32F7xx_HAL_Driver/Src/stm32f7xx_hal_hcd.c ****   pktcnt = (temp & USB_OTG_GRXSTSP_BCNT) >> 4;
  65              		.loc 1 1522 3 is_stmt 1 view .LVU16
  66              		.loc 1 1522 10 is_stmt 0 view .LVU17
  67 000e C4F30A14 		ubfx	r4, r4, #4, #11
  68              	.LVL5:
1523:Drivers/STM32F7xx_HAL_Driver/Src/stm32f7xx_hal_hcd.c **** 
1524:Drivers/STM32F7xx_HAL_Driver/Src/stm32f7xx_hal_hcd.c ****   switch (pktsts)
  69              		.loc 1 1524 3 is_stmt 1 view .LVU18
  70 0012 022B     		cmp	r3, #2
  71 0014 00D0     		beq	.L4
  72              	.LVL6:
  73              	.L1:
ARM GAS  C:\Users\seblo\AppData\Local\Temp\ccHEsOvX.s 			page 29


1525:Drivers/STM32F7xx_HAL_Driver/Src/stm32f7xx_hal_hcd.c ****   {
1526:Drivers/STM32F7xx_HAL_Driver/Src/stm32f7xx_hal_hcd.c ****     case GRXSTS_PKTSTS_IN:
1527:Drivers/STM32F7xx_HAL_Driver/Src/stm32f7xx_hal_hcd.c ****       /* Read the data into the host buffer. */
1528:Drivers/STM32F7xx_HAL_Driver/Src/stm32f7xx_hal_hcd.c ****       if ((pktcnt > 0U) && (hhcd->hc[ch_num].xfer_buff != (void *)0))
1529:Drivers/STM32F7xx_HAL_Driver/Src/stm32f7xx_hal_hcd.c ****       {
1530:Drivers/STM32F7xx_HAL_Driver/Src/stm32f7xx_hal_hcd.c ****         (void)USB_ReadPacket(hhcd->Instance, hhcd->hc[ch_num].xfer_buff, (uint16_t)pktcnt);
1531:Drivers/STM32F7xx_HAL_Driver/Src/stm32f7xx_hal_hcd.c **** 
1532:Drivers/STM32F7xx_HAL_Driver/Src/stm32f7xx_hal_hcd.c ****         /*manage multiple Xfer */
1533:Drivers/STM32F7xx_HAL_Driver/Src/stm32f7xx_hal_hcd.c ****         hhcd->hc[ch_num].xfer_buff += pktcnt;
1534:Drivers/STM32F7xx_HAL_Driver/Src/stm32f7xx_hal_hcd.c ****         hhcd->hc[ch_num].xfer_count  += pktcnt;
1535:Drivers/STM32F7xx_HAL_Driver/Src/stm32f7xx_hal_hcd.c **** 
1536:Drivers/STM32F7xx_HAL_Driver/Src/stm32f7xx_hal_hcd.c ****         if ((USBx_HC(ch_num)->HCTSIZ & USB_OTG_HCTSIZ_PKTCNT) > 0U)
1537:Drivers/STM32F7xx_HAL_Driver/Src/stm32f7xx_hal_hcd.c ****         {
1538:Drivers/STM32F7xx_HAL_Driver/Src/stm32f7xx_hal_hcd.c ****           /* re-activate the channel when more packets are expected */
1539:Drivers/STM32F7xx_HAL_Driver/Src/stm32f7xx_hal_hcd.c ****           tmpreg = USBx_HC(ch_num)->HCCHAR;
1540:Drivers/STM32F7xx_HAL_Driver/Src/stm32f7xx_hal_hcd.c ****           tmpreg &= ~USB_OTG_HCCHAR_CHDIS;
1541:Drivers/STM32F7xx_HAL_Driver/Src/stm32f7xx_hal_hcd.c ****           tmpreg |= USB_OTG_HCCHAR_CHENA;
1542:Drivers/STM32F7xx_HAL_Driver/Src/stm32f7xx_hal_hcd.c ****           USBx_HC(ch_num)->HCCHAR = tmpreg;
1543:Drivers/STM32F7xx_HAL_Driver/Src/stm32f7xx_hal_hcd.c ****           hhcd->hc[ch_num].toggle_in ^= 1U;
1544:Drivers/STM32F7xx_HAL_Driver/Src/stm32f7xx_hal_hcd.c ****         }
1545:Drivers/STM32F7xx_HAL_Driver/Src/stm32f7xx_hal_hcd.c ****       }
1546:Drivers/STM32F7xx_HAL_Driver/Src/stm32f7xx_hal_hcd.c ****       break;
1547:Drivers/STM32F7xx_HAL_Driver/Src/stm32f7xx_hal_hcd.c **** 
1548:Drivers/STM32F7xx_HAL_Driver/Src/stm32f7xx_hal_hcd.c ****     case GRXSTS_PKTSTS_DATA_TOGGLE_ERR:
1549:Drivers/STM32F7xx_HAL_Driver/Src/stm32f7xx_hal_hcd.c ****       break;
1550:Drivers/STM32F7xx_HAL_Driver/Src/stm32f7xx_hal_hcd.c **** 
1551:Drivers/STM32F7xx_HAL_Driver/Src/stm32f7xx_hal_hcd.c ****     case GRXSTS_PKTSTS_IN_XFER_COMP:
1552:Drivers/STM32F7xx_HAL_Driver/Src/stm32f7xx_hal_hcd.c ****     case GRXSTS_PKTSTS_CH_HALTED:
1553:Drivers/STM32F7xx_HAL_Driver/Src/stm32f7xx_hal_hcd.c ****     default:
1554:Drivers/STM32F7xx_HAL_Driver/Src/stm32f7xx_hal_hcd.c ****       break;
1555:Drivers/STM32F7xx_HAL_Driver/Src/stm32f7xx_hal_hcd.c ****   }
1556:Drivers/STM32F7xx_HAL_Driver/Src/stm32f7xx_hal_hcd.c **** }
  74              		.loc 1 1556 1 is_stmt 0 view .LVU19
  75 0016 F8BD     		pop	{r3, r4, r5, r6, r7, pc}
  76              	.LVL7:
  77              	.L4:
  78              		.loc 1 1556 1 view .LVU20
  79 0018 0546     		mov	r5, r0
1528:Drivers/STM32F7xx_HAL_Driver/Src/stm32f7xx_hal_hcd.c ****       {
  80              		.loc 1 1528 7 is_stmt 1 view .LVU21
1528:Drivers/STM32F7xx_HAL_Driver/Src/stm32f7xx_hal_hcd.c ****       {
  81              		.loc 1 1528 10 is_stmt 0 view .LVU22
  82 001a 002C     		cmp	r4, #0
  83 001c FBD0     		beq	.L1
1528:Drivers/STM32F7xx_HAL_Driver/Src/stm32f7xx_hal_hcd.c ****       {
  84              		.loc 1 1528 45 discriminator 1 view .LVU23
  85 001e 07EB8703 		add	r3, r7, r7, lsl #2
  86              	.LVL8:
1528:Drivers/STM32F7xx_HAL_Driver/Src/stm32f7xx_hal_hcd.c ****       {
  87              		.loc 1 1528 45 discriminator 1 view .LVU24
  88 0022 00EBC303 		add	r3, r0, r3, lsl #3
  89 0026 596C     		ldr	r1, [r3, #68]
1528:Drivers/STM32F7xx_HAL_Driver/Src/stm32f7xx_hal_hcd.c ****       {
  90              		.loc 1 1528 25 discriminator 1 view .LVU25
  91 0028 0029     		cmp	r1, #0
  92 002a F4D0     		beq	.L1
1530:Drivers/STM32F7xx_HAL_Driver/Src/stm32f7xx_hal_hcd.c **** 
ARM GAS  C:\Users\seblo\AppData\Local\Temp\ccHEsOvX.s 			page 30


  93              		.loc 1 1530 9 is_stmt 1 view .LVU26
1530:Drivers/STM32F7xx_HAL_Driver/Src/stm32f7xx_hal_hcd.c **** 
  94              		.loc 1 1530 15 is_stmt 0 view .LVU27
  95 002c 2246     		mov	r2, r4
  96 002e 3046     		mov	r0, r6
  97              	.LVL9:
1530:Drivers/STM32F7xx_HAL_Driver/Src/stm32f7xx_hal_hcd.c **** 
  98              		.loc 1 1530 15 view .LVU28
  99 0030 FFF7FEFF 		bl	USB_ReadPacket
 100              	.LVL10:
1533:Drivers/STM32F7xx_HAL_Driver/Src/stm32f7xx_hal_hcd.c ****         hhcd->hc[ch_num].xfer_count  += pktcnt;
 101              		.loc 1 1533 9 is_stmt 1 view .LVU29
1533:Drivers/STM32F7xx_HAL_Driver/Src/stm32f7xx_hal_hcd.c ****         hhcd->hc[ch_num].xfer_count  += pktcnt;
 102              		.loc 1 1533 36 is_stmt 0 view .LVU30
 103 0034 07EB8703 		add	r3, r7, r7, lsl #2
 104 0038 05EBC303 		add	r3, r5, r3, lsl #3
 105 003c 5A6C     		ldr	r2, [r3, #68]
 106 003e 2244     		add	r2, r2, r4
 107 0040 5A64     		str	r2, [r3, #68]
1534:Drivers/STM32F7xx_HAL_Driver/Src/stm32f7xx_hal_hcd.c **** 
 108              		.loc 1 1534 9 is_stmt 1 view .LVU31
1534:Drivers/STM32F7xx_HAL_Driver/Src/stm32f7xx_hal_hcd.c **** 
 109              		.loc 1 1534 38 is_stmt 0 view .LVU32
 110 0042 DA6C     		ldr	r2, [r3, #76]
 111 0044 2244     		add	r2, r2, r4
 112 0046 DA64     		str	r2, [r3, #76]
1536:Drivers/STM32F7xx_HAL_Driver/Src/stm32f7xx_hal_hcd.c ****         {
 113              		.loc 1 1536 9 is_stmt 1 view .LVU33
1536:Drivers/STM32F7xx_HAL_Driver/Src/stm32f7xx_hal_hcd.c ****         {
 114              		.loc 1 1536 14 is_stmt 0 view .LVU34
 115 0048 06EB4716 		add	r6, r6, r7, lsl #5
 116              	.LVL11:
1536:Drivers/STM32F7xx_HAL_Driver/Src/stm32f7xx_hal_hcd.c ****         {
 117              		.loc 1 1536 29 view .LVU35
 118 004c D6F81025 		ldr	r2, [r6, #1296]
1536:Drivers/STM32F7xx_HAL_Driver/Src/stm32f7xx_hal_hcd.c ****         {
 119              		.loc 1 1536 38 view .LVU36
 120 0050 0B4B     		ldr	r3, .L5
 121 0052 1340     		ands	r3, r3, r2
1536:Drivers/STM32F7xx_HAL_Driver/Src/stm32f7xx_hal_hcd.c ****         {
 122              		.loc 1 1536 12 view .LVU37
 123 0054 002B     		cmp	r3, #0
 124 0056 DED0     		beq	.L1
1539:Drivers/STM32F7xx_HAL_Driver/Src/stm32f7xx_hal_hcd.c ****           tmpreg &= ~USB_OTG_HCCHAR_CHDIS;
 125              		.loc 1 1539 11 is_stmt 1 view .LVU38
1539:Drivers/STM32F7xx_HAL_Driver/Src/stm32f7xx_hal_hcd.c ****           tmpreg &= ~USB_OTG_HCCHAR_CHDIS;
 126              		.loc 1 1539 18 is_stmt 0 view .LVU39
 127 0058 D6F80035 		ldr	r3, [r6, #1280]
 128              	.LVL12:
1540:Drivers/STM32F7xx_HAL_Driver/Src/stm32f7xx_hal_hcd.c ****           tmpreg |= USB_OTG_HCCHAR_CHENA;
 129              		.loc 1 1540 11 is_stmt 1 view .LVU40
1540:Drivers/STM32F7xx_HAL_Driver/Src/stm32f7xx_hal_hcd.c ****           tmpreg |= USB_OTG_HCCHAR_CHENA;
 130              		.loc 1 1540 18 is_stmt 0 view .LVU41
 131 005c 23F08043 		bic	r3, r3, #1073741824
 132              	.LVL13:
1541:Drivers/STM32F7xx_HAL_Driver/Src/stm32f7xx_hal_hcd.c ****           USBx_HC(ch_num)->HCCHAR = tmpreg;
 133              		.loc 1 1541 11 is_stmt 1 view .LVU42
ARM GAS  C:\Users\seblo\AppData\Local\Temp\ccHEsOvX.s 			page 31


1541:Drivers/STM32F7xx_HAL_Driver/Src/stm32f7xx_hal_hcd.c ****           USBx_HC(ch_num)->HCCHAR = tmpreg;
 134              		.loc 1 1541 18 is_stmt 0 view .LVU43
 135 0060 43F00043 		orr	r3, r3, #-2147483648
 136              	.LVL14:
1542:Drivers/STM32F7xx_HAL_Driver/Src/stm32f7xx_hal_hcd.c ****           hhcd->hc[ch_num].toggle_in ^= 1U;
 137              		.loc 1 1542 11 is_stmt 1 view .LVU44
1542:Drivers/STM32F7xx_HAL_Driver/Src/stm32f7xx_hal_hcd.c ****           hhcd->hc[ch_num].toggle_in ^= 1U;
 138              		.loc 1 1542 35 is_stmt 0 view .LVU45
 139 0064 C6F80035 		str	r3, [r6, #1280]
1543:Drivers/STM32F7xx_HAL_Driver/Src/stm32f7xx_hal_hcd.c ****         }
 140              		.loc 1 1543 11 is_stmt 1 view .LVU46
1543:Drivers/STM32F7xx_HAL_Driver/Src/stm32f7xx_hal_hcd.c ****         }
 141              		.loc 1 1543 38 is_stmt 0 view .LVU47
 142 0068 07EB8703 		add	r3, r7, r7, lsl #2
 143              	.LVL15:
1543:Drivers/STM32F7xx_HAL_Driver/Src/stm32f7xx_hal_hcd.c ****         }
 144              		.loc 1 1543 38 view .LVU48
 145 006c 05EBC303 		add	r3, r5, r3, lsl #3
 146 0070 93F85020 		ldrb	r2, [r3, #80]	@ zero_extendqisi2
 147 0074 82F00102 		eor	r2, r2, #1
 148 0078 83F85020 		strb	r2, [r3, #80]
 149              	.LVL16:
 150              		.loc 1 1556 1 view .LVU49
 151 007c CBE7     		b	.L1
 152              	.L6:
 153 007e 00BF     		.align	2
 154              	.L5:
 155 0080 0000F81F 		.word	536346624
 156              		.cfi_endproc
 157              	.LFE166:
 159              		.section	.text.HAL_HCD_HC_Init,"ax",%progbits
 160              		.align	1
 161              		.global	HAL_HCD_HC_Init
 162              		.syntax unified
 163              		.thumb
 164              		.thumb_func
 165              		.fpu fpv5-sp-d16
 167              	HAL_HCD_HC_Init:
 168              	.LVL17:
 169              	.LFB142:
 208:Drivers/STM32F7xx_HAL_Driver/Src/stm32f7xx_hal_hcd.c ****   HAL_StatusTypeDef status;
 170              		.loc 1 208 1 is_stmt 1 view -0
 171              		.cfi_startproc
 172              		@ args = 12, pretend = 0, frame = 0
 173              		@ frame_needed = 0, uses_anonymous_args = 0
 208:Drivers/STM32F7xx_HAL_Driver/Src/stm32f7xx_hal_hcd.c ****   HAL_StatusTypeDef status;
 174              		.loc 1 208 1 is_stmt 0 view .LVU51
 175 0000 F0B5     		push	{r4, r5, r6, r7, lr}
 176              	.LCFI1:
 177              		.cfi_def_cfa_offset 20
 178              		.cfi_offset 4, -20
 179              		.cfi_offset 5, -16
 180              		.cfi_offset 6, -12
 181              		.cfi_offset 7, -8
 182              		.cfi_offset 14, -4
 183 0002 85B0     		sub	sp, sp, #20
 184              	.LCFI2:
ARM GAS  C:\Users\seblo\AppData\Local\Temp\ccHEsOvX.s 			page 32


 185              		.cfi_def_cfa_offset 40
 186 0004 0446     		mov	r4, r0
 187 0006 9DF82850 		ldrb	r5, [sp, #40]	@ zero_extendqisi2
 188 000a 9DF82C60 		ldrb	r6, [sp, #44]	@ zero_extendqisi2
 189 000e BDF83070 		ldrh	r7, [sp, #48]
 209:Drivers/STM32F7xx_HAL_Driver/Src/stm32f7xx_hal_hcd.c **** 
 190              		.loc 1 209 3 is_stmt 1 view .LVU52
 211:Drivers/STM32F7xx_HAL_Driver/Src/stm32f7xx_hal_hcd.c ****   hhcd->hc[ch_num].do_ping = 0U;
 191              		.loc 1 211 3 view .LVU53
 211:Drivers/STM32F7xx_HAL_Driver/Src/stm32f7xx_hal_hcd.c ****   hhcd->hc[ch_num].do_ping = 0U;
 192              		.loc 1 211 3 view .LVU54
 193 0012 90F8B802 		ldrb	r0, [r0, #696]	@ zero_extendqisi2
 194              	.LVL18:
 211:Drivers/STM32F7xx_HAL_Driver/Src/stm32f7xx_hal_hcd.c ****   hhcd->hc[ch_num].do_ping = 0U;
 195              		.loc 1 211 3 is_stmt 0 view .LVU55
 196 0016 0128     		cmp	r0, #1
 197 0018 3BD0     		beq	.L11
 211:Drivers/STM32F7xx_HAL_Driver/Src/stm32f7xx_hal_hcd.c ****   hhcd->hc[ch_num].do_ping = 0U;
 198              		.loc 1 211 3 is_stmt 1 discriminator 2 view .LVU56
 199 001a 0120     		movs	r0, #1
 200 001c 84F8B802 		strb	r0, [r4, #696]
 211:Drivers/STM32F7xx_HAL_Driver/Src/stm32f7xx_hal_hcd.c ****   hhcd->hc[ch_num].do_ping = 0U;
 201              		.loc 1 211 3 discriminator 2 view .LVU57
 212:Drivers/STM32F7xx_HAL_Driver/Src/stm32f7xx_hal_hcd.c ****   hhcd->hc[ch_num].dev_addr = dev_address;
 202              		.loc 1 212 3 discriminator 2 view .LVU58
 212:Drivers/STM32F7xx_HAL_Driver/Src/stm32f7xx_hal_hcd.c ****   hhcd->hc[ch_num].dev_addr = dev_address;
 203              		.loc 1 212 28 is_stmt 0 discriminator 2 view .LVU59
 204 0020 01EB8100 		add	r0, r1, r1, lsl #2
 205 0024 04EBC000 		add	r0, r4, r0, lsl #3
 206 0028 4FF0000C 		mov	ip, #0
 207 002c 80F83DC0 		strb	ip, [r0, #61]
 213:Drivers/STM32F7xx_HAL_Driver/Src/stm32f7xx_hal_hcd.c ****   hhcd->hc[ch_num].max_packet = mps;
 208              		.loc 1 213 3 is_stmt 1 discriminator 2 view .LVU60
 213:Drivers/STM32F7xx_HAL_Driver/Src/stm32f7xx_hal_hcd.c ****   hhcd->hc[ch_num].max_packet = mps;
 209              		.loc 1 213 29 is_stmt 0 discriminator 2 view .LVU61
 210 0030 80F83830 		strb	r3, [r0, #56]
 214:Drivers/STM32F7xx_HAL_Driver/Src/stm32f7xx_hal_hcd.c ****   hhcd->hc[ch_num].ch_num = ch_num;
 211              		.loc 1 214 3 is_stmt 1 discriminator 2 view .LVU62
 214:Drivers/STM32F7xx_HAL_Driver/Src/stm32f7xx_hal_hcd.c ****   hhcd->hc[ch_num].ch_num = ch_num;
 212              		.loc 1 214 31 is_stmt 0 discriminator 2 view .LVU63
 213 0034 A0F84070 		strh	r7, [r0, #64]	@ movhi
 215:Drivers/STM32F7xx_HAL_Driver/Src/stm32f7xx_hal_hcd.c ****   hhcd->hc[ch_num].ep_type = ep_type;
 214              		.loc 1 215 3 is_stmt 1 discriminator 2 view .LVU64
 215:Drivers/STM32F7xx_HAL_Driver/Src/stm32f7xx_hal_hcd.c ****   hhcd->hc[ch_num].ep_type = ep_type;
 215              		.loc 1 215 27 is_stmt 0 discriminator 2 view .LVU65
 216 0038 80F83910 		strb	r1, [r0, #57]
 216:Drivers/STM32F7xx_HAL_Driver/Src/stm32f7xx_hal_hcd.c ****   hhcd->hc[ch_num].ep_num = epnum & 0x7FU;
 217              		.loc 1 216 3 is_stmt 1 discriminator 2 view .LVU66
 216:Drivers/STM32F7xx_HAL_Driver/Src/stm32f7xx_hal_hcd.c ****   hhcd->hc[ch_num].ep_num = epnum & 0x7FU;
 218              		.loc 1 216 28 is_stmt 0 discriminator 2 view .LVU67
 219 003c 80F83F60 		strb	r6, [r0, #63]
 217:Drivers/STM32F7xx_HAL_Driver/Src/stm32f7xx_hal_hcd.c **** 
 220              		.loc 1 217 3 is_stmt 1 discriminator 2 view .LVU68
 217:Drivers/STM32F7xx_HAL_Driver/Src/stm32f7xx_hal_hcd.c **** 
 221              		.loc 1 217 35 is_stmt 0 discriminator 2 view .LVU69
 222 0040 02F07F0C 		and	ip, r2, #127
 217:Drivers/STM32F7xx_HAL_Driver/Src/stm32f7xx_hal_hcd.c **** 
ARM GAS  C:\Users\seblo\AppData\Local\Temp\ccHEsOvX.s 			page 33


 223              		.loc 1 217 27 discriminator 2 view .LVU70
 224 0044 80F83AC0 		strb	ip, [r0, #58]
 219:Drivers/STM32F7xx_HAL_Driver/Src/stm32f7xx_hal_hcd.c ****   {
 225              		.loc 1 219 3 is_stmt 1 discriminator 2 view .LVU71
 219:Drivers/STM32F7xx_HAL_Driver/Src/stm32f7xx_hal_hcd.c ****   {
 226              		.loc 1 219 6 is_stmt 0 discriminator 2 view .LVU72
 227 0048 12F0800F 		tst	r2, #128
 228 004c 18D1     		bne	.L13
 225:Drivers/STM32F7xx_HAL_Driver/Src/stm32f7xx_hal_hcd.c ****   }
 229              		.loc 1 225 5 is_stmt 1 view .LVU73
 225:Drivers/STM32F7xx_HAL_Driver/Src/stm32f7xx_hal_hcd.c ****   }
 230              		.loc 1 225 31 is_stmt 0 view .LVU74
 231 004e 01EB8100 		add	r0, r1, r1, lsl #2
 232 0052 04EBC000 		add	r0, r4, r0, lsl #3
 233 0056 4FF0000C 		mov	ip, #0
 234 005a 80F83BC0 		strb	ip, [r0, #59]
 235              	.L10:
 228:Drivers/STM32F7xx_HAL_Driver/Src/stm32f7xx_hal_hcd.c **** 
 236              		.loc 1 228 3 is_stmt 1 view .LVU75
 228:Drivers/STM32F7xx_HAL_Driver/Src/stm32f7xx_hal_hcd.c **** 
 237              		.loc 1 228 26 is_stmt 0 view .LVU76
 238 005e 01EB8100 		add	r0, r1, r1, lsl #2
 239 0062 04EBC000 		add	r0, r4, r0, lsl #3
 240 0066 80F83C50 		strb	r5, [r0, #60]
 230:Drivers/STM32F7xx_HAL_Driver/Src/stm32f7xx_hal_hcd.c ****                         ch_num,
 241              		.loc 1 230 3 is_stmt 1 view .LVU77
 230:Drivers/STM32F7xx_HAL_Driver/Src/stm32f7xx_hal_hcd.c ****                         ch_num,
 242              		.loc 1 230 13 is_stmt 0 view .LVU78
 243 006a 0297     		str	r7, [sp, #8]
 244 006c 0196     		str	r6, [sp, #4]
 245 006e 0095     		str	r5, [sp]
 246 0070 2068     		ldr	r0, [r4]
 247 0072 FFF7FEFF 		bl	USB_HC_Init
 248              	.LVL19:
 237:Drivers/STM32F7xx_HAL_Driver/Src/stm32f7xx_hal_hcd.c **** 
 249              		.loc 1 237 3 is_stmt 1 view .LVU79
 237:Drivers/STM32F7xx_HAL_Driver/Src/stm32f7xx_hal_hcd.c **** 
 250              		.loc 1 237 3 view .LVU80
 251 0076 0023     		movs	r3, #0
 252 0078 84F8B832 		strb	r3, [r4, #696]
 237:Drivers/STM32F7xx_HAL_Driver/Src/stm32f7xx_hal_hcd.c **** 
 253              		.loc 1 237 3 view .LVU81
 239:Drivers/STM32F7xx_HAL_Driver/Src/stm32f7xx_hal_hcd.c **** }
 254              		.loc 1 239 3 view .LVU82
 255              	.LVL20:
 256              	.L8:
 240:Drivers/STM32F7xx_HAL_Driver/Src/stm32f7xx_hal_hcd.c **** 
 257              		.loc 1 240 1 is_stmt 0 view .LVU83
 258 007c 05B0     		add	sp, sp, #20
 259              	.LCFI3:
 260              		.cfi_remember_state
 261              		.cfi_def_cfa_offset 20
 262              		@ sp needed
 263 007e F0BD     		pop	{r4, r5, r6, r7, pc}
 264              	.LVL21:
 265              	.L13:
 266              	.LCFI4:
ARM GAS  C:\Users\seblo\AppData\Local\Temp\ccHEsOvX.s 			page 34


 267              		.cfi_restore_state
 221:Drivers/STM32F7xx_HAL_Driver/Src/stm32f7xx_hal_hcd.c ****   }
 268              		.loc 1 221 5 is_stmt 1 view .LVU84
 221:Drivers/STM32F7xx_HAL_Driver/Src/stm32f7xx_hal_hcd.c ****   }
 269              		.loc 1 221 31 is_stmt 0 view .LVU85
 270 0080 01EB8100 		add	r0, r1, r1, lsl #2
 271 0084 04EBC000 		add	r0, r4, r0, lsl #3
 272 0088 4FF0010C 		mov	ip, #1
 273 008c 80F83BC0 		strb	ip, [r0, #59]
 274 0090 E5E7     		b	.L10
 275              	.L11:
 211:Drivers/STM32F7xx_HAL_Driver/Src/stm32f7xx_hal_hcd.c ****   hhcd->hc[ch_num].do_ping = 0U;
 276              		.loc 1 211 3 view .LVU86
 277 0092 0220     		movs	r0, #2
 278 0094 F2E7     		b	.L8
 279              		.cfi_endproc
 280              	.LFE142:
 282              		.section	.text.HAL_HCD_HC_Halt,"ax",%progbits
 283              		.align	1
 284              		.global	HAL_HCD_HC_Halt
 285              		.syntax unified
 286              		.thumb
 287              		.thumb_func
 288              		.fpu fpv5-sp-d16
 290              	HAL_HCD_HC_Halt:
 291              	.LVL22:
 292              	.LFB143:
 250:Drivers/STM32F7xx_HAL_Driver/Src/stm32f7xx_hal_hcd.c ****   HAL_StatusTypeDef status = HAL_OK;
 293              		.loc 1 250 1 is_stmt 1 view -0
 294              		.cfi_startproc
 295              		@ args = 0, pretend = 0, frame = 0
 296              		@ frame_needed = 0, uses_anonymous_args = 0
 251:Drivers/STM32F7xx_HAL_Driver/Src/stm32f7xx_hal_hcd.c **** 
 297              		.loc 1 251 3 view .LVU88
 253:Drivers/STM32F7xx_HAL_Driver/Src/stm32f7xx_hal_hcd.c ****   (void)USB_HC_Halt(hhcd->Instance, (uint8_t)ch_num);
 298              		.loc 1 253 3 view .LVU89
 253:Drivers/STM32F7xx_HAL_Driver/Src/stm32f7xx_hal_hcd.c ****   (void)USB_HC_Halt(hhcd->Instance, (uint8_t)ch_num);
 299              		.loc 1 253 3 view .LVU90
 300 0000 90F8B832 		ldrb	r3, [r0, #696]	@ zero_extendqisi2
 301 0004 012B     		cmp	r3, #1
 302 0006 0BD0     		beq	.L16
 250:Drivers/STM32F7xx_HAL_Driver/Src/stm32f7xx_hal_hcd.c ****   HAL_StatusTypeDef status = HAL_OK;
 303              		.loc 1 250 1 is_stmt 0 discriminator 2 view .LVU91
 304 0008 10B5     		push	{r4, lr}
 305              	.LCFI5:
 306              		.cfi_def_cfa_offset 8
 307              		.cfi_offset 4, -8
 308              		.cfi_offset 14, -4
 309 000a 0446     		mov	r4, r0
 253:Drivers/STM32F7xx_HAL_Driver/Src/stm32f7xx_hal_hcd.c ****   (void)USB_HC_Halt(hhcd->Instance, (uint8_t)ch_num);
 310              		.loc 1 253 3 is_stmt 1 discriminator 2 view .LVU92
 311 000c 0123     		movs	r3, #1
 312 000e 80F8B832 		strb	r3, [r0, #696]
 253:Drivers/STM32F7xx_HAL_Driver/Src/stm32f7xx_hal_hcd.c ****   (void)USB_HC_Halt(hhcd->Instance, (uint8_t)ch_num);
 313              		.loc 1 253 3 discriminator 2 view .LVU93
 254:Drivers/STM32F7xx_HAL_Driver/Src/stm32f7xx_hal_hcd.c ****   __HAL_UNLOCK(hhcd);
 314              		.loc 1 254 3 discriminator 2 view .LVU94
ARM GAS  C:\Users\seblo\AppData\Local\Temp\ccHEsOvX.s 			page 35


 254:Drivers/STM32F7xx_HAL_Driver/Src/stm32f7xx_hal_hcd.c ****   __HAL_UNLOCK(hhcd);
 315              		.loc 1 254 9 is_stmt 0 discriminator 2 view .LVU95
 316 0012 0068     		ldr	r0, [r0]
 317              	.LVL23:
 254:Drivers/STM32F7xx_HAL_Driver/Src/stm32f7xx_hal_hcd.c ****   __HAL_UNLOCK(hhcd);
 318              		.loc 1 254 9 discriminator 2 view .LVU96
 319 0014 FFF7FEFF 		bl	USB_HC_Halt
 320              	.LVL24:
 255:Drivers/STM32F7xx_HAL_Driver/Src/stm32f7xx_hal_hcd.c **** 
 321              		.loc 1 255 3 is_stmt 1 discriminator 2 view .LVU97
 255:Drivers/STM32F7xx_HAL_Driver/Src/stm32f7xx_hal_hcd.c **** 
 322              		.loc 1 255 3 discriminator 2 view .LVU98
 323 0018 0020     		movs	r0, #0
 324 001a 84F8B802 		strb	r0, [r4, #696]
 255:Drivers/STM32F7xx_HAL_Driver/Src/stm32f7xx_hal_hcd.c **** 
 325              		.loc 1 255 3 discriminator 2 view .LVU99
 257:Drivers/STM32F7xx_HAL_Driver/Src/stm32f7xx_hal_hcd.c **** }
 326              		.loc 1 257 3 discriminator 2 view .LVU100
 258:Drivers/STM32F7xx_HAL_Driver/Src/stm32f7xx_hal_hcd.c **** 
 327              		.loc 1 258 1 is_stmt 0 discriminator 2 view .LVU101
 328 001e 10BD     		pop	{r4, pc}
 329              	.LVL25:
 330              	.L16:
 331              	.LCFI6:
 332              		.cfi_def_cfa_offset 0
 333              		.cfi_restore 4
 334              		.cfi_restore 14
 253:Drivers/STM32F7xx_HAL_Driver/Src/stm32f7xx_hal_hcd.c ****   (void)USB_HC_Halt(hhcd->Instance, (uint8_t)ch_num);
 335              		.loc 1 253 3 view .LVU102
 336 0020 0220     		movs	r0, #2
 337              	.LVL26:
 258:Drivers/STM32F7xx_HAL_Driver/Src/stm32f7xx_hal_hcd.c **** 
 338              		.loc 1 258 1 view .LVU103
 339 0022 7047     		bx	lr
 340              		.cfi_endproc
 341              	.LFE143:
 343              		.section	.text.HAL_HCD_MspInit,"ax",%progbits
 344              		.align	1
 345              		.weak	HAL_HCD_MspInit
 346              		.syntax unified
 347              		.thumb
 348              		.thumb_func
 349              		.fpu fpv5-sp-d16
 351              	HAL_HCD_MspInit:
 352              	.LVL27:
 353              	.LFB145:
 301:Drivers/STM32F7xx_HAL_Driver/Src/stm32f7xx_hal_hcd.c ****   /* Prevent unused argument(s) compilation warning */
 354              		.loc 1 301 1 is_stmt 1 view -0
 355              		.cfi_startproc
 356              		@ args = 0, pretend = 0, frame = 0
 357              		@ frame_needed = 0, uses_anonymous_args = 0
 358              		@ link register save eliminated.
 303:Drivers/STM32F7xx_HAL_Driver/Src/stm32f7xx_hal_hcd.c **** 
 359              		.loc 1 303 3 view .LVU105
 308:Drivers/STM32F7xx_HAL_Driver/Src/stm32f7xx_hal_hcd.c **** 
 360              		.loc 1 308 1 is_stmt 0 view .LVU106
 361 0000 7047     		bx	lr
ARM GAS  C:\Users\seblo\AppData\Local\Temp\ccHEsOvX.s 			page 36


 362              		.cfi_endproc
 363              	.LFE145:
 365              		.section	.text.HAL_HCD_Init,"ax",%progbits
 366              		.align	1
 367              		.global	HAL_HCD_Init
 368              		.syntax unified
 369              		.thumb
 370              		.thumb_func
 371              		.fpu fpv5-sp-d16
 373              	HAL_HCD_Init:
 374              	.LVL28:
 375              	.LFB141:
 112:Drivers/STM32F7xx_HAL_Driver/Src/stm32f7xx_hal_hcd.c ****   USB_OTG_GlobalTypeDef *USBx;
 376              		.loc 1 112 1 is_stmt 1 view -0
 377              		.cfi_startproc
 378              		@ args = 0, pretend = 0, frame = 0
 379              		@ frame_needed = 0, uses_anonymous_args = 0
 113:Drivers/STM32F7xx_HAL_Driver/Src/stm32f7xx_hal_hcd.c **** 
 380              		.loc 1 113 3 view .LVU108
 116:Drivers/STM32F7xx_HAL_Driver/Src/stm32f7xx_hal_hcd.c ****   {
 381              		.loc 1 116 3 view .LVU109
 116:Drivers/STM32F7xx_HAL_Driver/Src/stm32f7xx_hal_hcd.c ****   {
 382              		.loc 1 116 6 is_stmt 0 view .LVU110
 383 0000 0028     		cmp	r0, #0
 384 0002 4DD0     		beq	.L26
 112:Drivers/STM32F7xx_HAL_Driver/Src/stm32f7xx_hal_hcd.c ****   USB_OTG_GlobalTypeDef *USBx;
 385              		.loc 1 112 1 view .LVU111
 386 0004 70B5     		push	{r4, r5, r6, lr}
 387              	.LCFI7:
 388              		.cfi_def_cfa_offset 16
 389              		.cfi_offset 4, -16
 390              		.cfi_offset 5, -12
 391              		.cfi_offset 6, -8
 392              		.cfi_offset 14, -4
 393 0006 8AB0     		sub	sp, sp, #40
 394              	.LCFI8:
 395              		.cfi_def_cfa_offset 56
 396 0008 0446     		mov	r4, r0
 122:Drivers/STM32F7xx_HAL_Driver/Src/stm32f7xx_hal_hcd.c **** 
 397              		.loc 1 122 3 is_stmt 1 view .LVU112
 124:Drivers/STM32F7xx_HAL_Driver/Src/stm32f7xx_hal_hcd.c **** 
 398              		.loc 1 124 3 view .LVU113
 124:Drivers/STM32F7xx_HAL_Driver/Src/stm32f7xx_hal_hcd.c **** 
 399              		.loc 1 124 8 is_stmt 0 view .LVU114
 400 000a 0568     		ldr	r5, [r0]
 401              	.LVL29:
 126:Drivers/STM32F7xx_HAL_Driver/Src/stm32f7xx_hal_hcd.c ****   {
 402              		.loc 1 126 3 is_stmt 1 view .LVU115
 126:Drivers/STM32F7xx_HAL_Driver/Src/stm32f7xx_hal_hcd.c ****   {
 403              		.loc 1 126 11 is_stmt 0 view .LVU116
 404 000c 90F8B932 		ldrb	r3, [r0, #697]	@ zero_extendqisi2
 126:Drivers/STM32F7xx_HAL_Driver/Src/stm32f7xx_hal_hcd.c ****   {
 405              		.loc 1 126 6 view .LVU117
 406 0010 002B     		cmp	r3, #0
 407 0012 40D0     		beq	.L31
 408              	.LVL30:
 409              	.L24:
ARM GAS  C:\Users\seblo\AppData\Local\Temp\ccHEsOvX.s 			page 37


 152:Drivers/STM32F7xx_HAL_Driver/Src/stm32f7xx_hal_hcd.c **** 
 410              		.loc 1 152 3 is_stmt 1 view .LVU118
 152:Drivers/STM32F7xx_HAL_Driver/Src/stm32f7xx_hal_hcd.c **** 
 411              		.loc 1 152 15 is_stmt 0 view .LVU119
 412 0014 0323     		movs	r3, #3
 413 0016 84F8B932 		strb	r3, [r4, #697]
 155:Drivers/STM32F7xx_HAL_Driver/Src/stm32f7xx_hal_hcd.c ****   {
 414              		.loc 1 155 3 is_stmt 1 view .LVU120
 155:Drivers/STM32F7xx_HAL_Driver/Src/stm32f7xx_hal_hcd.c ****   {
 415              		.loc 1 155 12 is_stmt 0 view .LVU121
 416 001a EB6B     		ldr	r3, [r5, #60]
 155:Drivers/STM32F7xx_HAL_Driver/Src/stm32f7xx_hal_hcd.c ****   {
 417              		.loc 1 155 6 view .LVU122
 418 001c 13F4807F 		tst	r3, #256
 419 0020 01D1     		bne	.L25
 157:Drivers/STM32F7xx_HAL_Driver/Src/stm32f7xx_hal_hcd.c ****   }
 420              		.loc 1 157 5 is_stmt 1 view .LVU123
 157:Drivers/STM32F7xx_HAL_Driver/Src/stm32f7xx_hal_hcd.c ****   }
 421              		.loc 1 157 27 is_stmt 0 view .LVU124
 422 0022 0023     		movs	r3, #0
 423 0024 2361     		str	r3, [r4, #16]
 424              	.L25:
 161:Drivers/STM32F7xx_HAL_Driver/Src/stm32f7xx_hal_hcd.c **** 
 425              		.loc 1 161 3 is_stmt 1 view .LVU125
 426 0026 2068     		ldr	r0, [r4]
 427 0028 FFF7FEFF 		bl	USB_DisableGlobalInt
 428              	.LVL31:
 164:Drivers/STM32F7xx_HAL_Driver/Src/stm32f7xx_hal_hcd.c **** 
 429              		.loc 1 164 3 view .LVU126
 164:Drivers/STM32F7xx_HAL_Driver/Src/stm32f7xx_hal_hcd.c **** 
 430              		.loc 1 164 26 is_stmt 0 view .LVU127
 431 002c A446     		mov	ip, r4
 432 002e 5CF8106B 		ldr	r6, [ip], #16
 164:Drivers/STM32F7xx_HAL_Driver/Src/stm32f7xx_hal_hcd.c **** 
 433              		.loc 1 164 9 view .LVU128
 434 0032 EE46     		mov	lr, sp
 435 0034 BCE80F00 		ldmia	ip!, {r0, r1, r2, r3}
 436 0038 AEE80F00 		stmia	lr!, {r0, r1, r2, r3}
 437 003c BCE80F00 		ldmia	ip!, {r0, r1, r2, r3}
 438 0040 AEE80F00 		stmia	lr!, {r0, r1, r2, r3}
 439 0044 9CE80300 		ldm	ip, {r0, r1}
 440 0048 8EE80300 		stm	lr, {r0, r1}
 441 004c 251D     		adds	r5, r4, #4
 442              	.LVL32:
 164:Drivers/STM32F7xx_HAL_Driver/Src/stm32f7xx_hal_hcd.c **** 
 443              		.loc 1 164 9 view .LVU129
 444 004e 95E80E00 		ldm	r5, {r1, r2, r3}
 445 0052 3046     		mov	r0, r6
 446 0054 FFF7FEFF 		bl	USB_CoreInit
 447              	.LVL33:
 167:Drivers/STM32F7xx_HAL_Driver/Src/stm32f7xx_hal_hcd.c **** 
 448              		.loc 1 167 3 is_stmt 1 view .LVU130
 167:Drivers/STM32F7xx_HAL_Driver/Src/stm32f7xx_hal_hcd.c **** 
 449              		.loc 1 167 9 is_stmt 0 view .LVU131
 450 0058 0121     		movs	r1, #1
 451 005a 2068     		ldr	r0, [r4]
 452 005c FFF7FEFF 		bl	USB_SetCurrentMode
ARM GAS  C:\Users\seblo\AppData\Local\Temp\ccHEsOvX.s 			page 38


 453              	.LVL34:
 170:Drivers/STM32F7xx_HAL_Driver/Src/stm32f7xx_hal_hcd.c **** 
 454              		.loc 1 170 3 is_stmt 1 view .LVU132
 170:Drivers/STM32F7xx_HAL_Driver/Src/stm32f7xx_hal_hcd.c **** 
 455              		.loc 1 170 26 is_stmt 0 view .LVU133
 456 0060 A446     		mov	ip, r4
 457 0062 5CF8106B 		ldr	r6, [ip], #16
 170:Drivers/STM32F7xx_HAL_Driver/Src/stm32f7xx_hal_hcd.c **** 
 458              		.loc 1 170 9 view .LVU134
 459 0066 EE46     		mov	lr, sp
 460 0068 BCE80F00 		ldmia	ip!, {r0, r1, r2, r3}
 461 006c AEE80F00 		stmia	lr!, {r0, r1, r2, r3}
 462 0070 BCE80F00 		ldmia	ip!, {r0, r1, r2, r3}
 463 0074 AEE80F00 		stmia	lr!, {r0, r1, r2, r3}
 464 0078 9CE80300 		ldm	ip, {r0, r1}
 465 007c 8EE80300 		stm	lr, {r0, r1}
 466 0080 95E80E00 		ldm	r5, {r1, r2, r3}
 467 0084 3046     		mov	r0, r6
 468 0086 FFF7FEFF 		bl	USB_HostInit
 469              	.LVL35:
 172:Drivers/STM32F7xx_HAL_Driver/Src/stm32f7xx_hal_hcd.c **** 
 470              		.loc 1 172 3 is_stmt 1 view .LVU135
 172:Drivers/STM32F7xx_HAL_Driver/Src/stm32f7xx_hal_hcd.c **** 
 471              		.loc 1 172 15 is_stmt 0 view .LVU136
 472 008a 0123     		movs	r3, #1
 473 008c 84F8B932 		strb	r3, [r4, #697]
 174:Drivers/STM32F7xx_HAL_Driver/Src/stm32f7xx_hal_hcd.c **** }
 474              		.loc 1 174 3 is_stmt 1 view .LVU137
 174:Drivers/STM32F7xx_HAL_Driver/Src/stm32f7xx_hal_hcd.c **** }
 475              		.loc 1 174 10 is_stmt 0 view .LVU138
 476 0090 0020     		movs	r0, #0
 175:Drivers/STM32F7xx_HAL_Driver/Src/stm32f7xx_hal_hcd.c **** 
 477              		.loc 1 175 1 view .LVU139
 478 0092 0AB0     		add	sp, sp, #40
 479              	.LCFI9:
 480              		.cfi_remember_state
 481              		.cfi_def_cfa_offset 16
 482              		@ sp needed
 483 0094 70BD     		pop	{r4, r5, r6, pc}
 484              	.LVL36:
 485              	.L31:
 486              	.LCFI10:
 487              		.cfi_restore_state
 129:Drivers/STM32F7xx_HAL_Driver/Src/stm32f7xx_hal_hcd.c **** 
 488              		.loc 1 129 5 is_stmt 1 view .LVU140
 129:Drivers/STM32F7xx_HAL_Driver/Src/stm32f7xx_hal_hcd.c **** 
 489              		.loc 1 129 16 is_stmt 0 view .LVU141
 490 0096 80F8B832 		strb	r3, [r0, #696]
 148:Drivers/STM32F7xx_HAL_Driver/Src/stm32f7xx_hal_hcd.c **** #endif /* (USE_HAL_HCD_REGISTER_CALLBACKS) */
 491              		.loc 1 148 5 is_stmt 1 view .LVU142
 492 009a FFF7FEFF 		bl	HAL_HCD_MspInit
 493              	.LVL37:
 148:Drivers/STM32F7xx_HAL_Driver/Src/stm32f7xx_hal_hcd.c **** #endif /* (USE_HAL_HCD_REGISTER_CALLBACKS) */
 494              		.loc 1 148 5 is_stmt 0 view .LVU143
 495 009e B9E7     		b	.L24
 496              	.LVL38:
 497              	.L26:
ARM GAS  C:\Users\seblo\AppData\Local\Temp\ccHEsOvX.s 			page 39


 498              	.LCFI11:
 499              		.cfi_def_cfa_offset 0
 500              		.cfi_restore 4
 501              		.cfi_restore 5
 502              		.cfi_restore 6
 503              		.cfi_restore 14
 118:Drivers/STM32F7xx_HAL_Driver/Src/stm32f7xx_hal_hcd.c ****   }
 504              		.loc 1 118 12 view .LVU144
 505 00a0 0120     		movs	r0, #1
 506              	.LVL39:
 175:Drivers/STM32F7xx_HAL_Driver/Src/stm32f7xx_hal_hcd.c **** 
 507              		.loc 1 175 1 view .LVU145
 508 00a2 7047     		bx	lr
 509              		.cfi_endproc
 510              	.LFE141:
 512              		.section	.text.HAL_HCD_MspDeInit,"ax",%progbits
 513              		.align	1
 514              		.weak	HAL_HCD_MspDeInit
 515              		.syntax unified
 516              		.thumb
 517              		.thumb_func
 518              		.fpu fpv5-sp-d16
 520              	HAL_HCD_MspDeInit:
 521              	.LVL40:
 522              	.LFB146:
 316:Drivers/STM32F7xx_HAL_Driver/Src/stm32f7xx_hal_hcd.c ****   /* Prevent unused argument(s) compilation warning */
 523              		.loc 1 316 1 is_stmt 1 view -0
 524              		.cfi_startproc
 525              		@ args = 0, pretend = 0, frame = 0
 526              		@ frame_needed = 0, uses_anonymous_args = 0
 527              		@ link register save eliminated.
 318:Drivers/STM32F7xx_HAL_Driver/Src/stm32f7xx_hal_hcd.c **** 
 528              		.loc 1 318 3 view .LVU147
 323:Drivers/STM32F7xx_HAL_Driver/Src/stm32f7xx_hal_hcd.c **** 
 529              		.loc 1 323 1 is_stmt 0 view .LVU148
 530 0000 7047     		bx	lr
 531              		.cfi_endproc
 532              	.LFE146:
 534              		.section	.text.HAL_HCD_DeInit,"ax",%progbits
 535              		.align	1
 536              		.global	HAL_HCD_DeInit
 537              		.syntax unified
 538              		.thumb
 539              		.thumb_func
 540              		.fpu fpv5-sp-d16
 542              	HAL_HCD_DeInit:
 543              	.LVL41:
 544              	.LFB144:
 266:Drivers/STM32F7xx_HAL_Driver/Src/stm32f7xx_hal_hcd.c ****   /* Check the HCD handle allocation */
 545              		.loc 1 266 1 is_stmt 1 view -0
 546              		.cfi_startproc
 547              		@ args = 0, pretend = 0, frame = 0
 548              		@ frame_needed = 0, uses_anonymous_args = 0
 268:Drivers/STM32F7xx_HAL_Driver/Src/stm32f7xx_hal_hcd.c ****   {
 549              		.loc 1 268 3 view .LVU150
 268:Drivers/STM32F7xx_HAL_Driver/Src/stm32f7xx_hal_hcd.c ****   {
 550              		.loc 1 268 6 is_stmt 0 view .LVU151
ARM GAS  C:\Users\seblo\AppData\Local\Temp\ccHEsOvX.s 			page 40


 551 0000 68B1     		cbz	r0, .L35
 266:Drivers/STM32F7xx_HAL_Driver/Src/stm32f7xx_hal_hcd.c ****   /* Check the HCD handle allocation */
 552              		.loc 1 266 1 view .LVU152
 553 0002 10B5     		push	{r4, lr}
 554              	.LCFI12:
 555              		.cfi_def_cfa_offset 8
 556              		.cfi_offset 4, -8
 557              		.cfi_offset 14, -4
 558 0004 0446     		mov	r4, r0
 273:Drivers/STM32F7xx_HAL_Driver/Src/stm32f7xx_hal_hcd.c **** 
 559              		.loc 1 273 3 is_stmt 1 view .LVU153
 273:Drivers/STM32F7xx_HAL_Driver/Src/stm32f7xx_hal_hcd.c **** 
 560              		.loc 1 273 15 is_stmt 0 view .LVU154
 561 0006 0323     		movs	r3, #3
 562 0008 80F8B932 		strb	r3, [r0, #697]
 285:Drivers/STM32F7xx_HAL_Driver/Src/stm32f7xx_hal_hcd.c **** #endif /* USE_HAL_HCD_REGISTER_CALLBACKS */
 563              		.loc 1 285 3 is_stmt 1 view .LVU155
 564 000c FFF7FEFF 		bl	HAL_HCD_MspDeInit
 565              	.LVL42:
 288:Drivers/STM32F7xx_HAL_Driver/Src/stm32f7xx_hal_hcd.c **** 
 566              		.loc 1 288 3 view .LVU156
 567 0010 2068     		ldr	r0, [r4]
 568 0012 FFF7FEFF 		bl	USB_DisableGlobalInt
 569              	.LVL43:
 290:Drivers/STM32F7xx_HAL_Driver/Src/stm32f7xx_hal_hcd.c **** 
 570              		.loc 1 290 3 view .LVU157
 290:Drivers/STM32F7xx_HAL_Driver/Src/stm32f7xx_hal_hcd.c **** 
 571              		.loc 1 290 15 is_stmt 0 view .LVU158
 572 0016 0020     		movs	r0, #0
 573 0018 84F8B902 		strb	r0, [r4, #697]
 292:Drivers/STM32F7xx_HAL_Driver/Src/stm32f7xx_hal_hcd.c **** }
 574              		.loc 1 292 3 is_stmt 1 view .LVU159
 293:Drivers/STM32F7xx_HAL_Driver/Src/stm32f7xx_hal_hcd.c **** 
 575              		.loc 1 293 1 is_stmt 0 view .LVU160
 576 001c 10BD     		pop	{r4, pc}
 577              	.LVL44:
 578              	.L35:
 579              	.LCFI13:
 580              		.cfi_def_cfa_offset 0
 581              		.cfi_restore 4
 582              		.cfi_restore 14
 270:Drivers/STM32F7xx_HAL_Driver/Src/stm32f7xx_hal_hcd.c ****   }
 583              		.loc 1 270 12 view .LVU161
 584 001e 0120     		movs	r0, #1
 585              	.LVL45:
 293:Drivers/STM32F7xx_HAL_Driver/Src/stm32f7xx_hal_hcd.c **** 
 586              		.loc 1 293 1 view .LVU162
 587 0020 7047     		bx	lr
 588              		.cfi_endproc
 589              	.LFE144:
 591              		.section	.text.HAL_HCD_HC_SubmitRequest,"ax",%progbits
 592              		.align	1
 593              		.global	HAL_HCD_HC_SubmitRequest
 594              		.syntax unified
 595              		.thumb
 596              		.thumb_func
 597              		.fpu fpv5-sp-d16
ARM GAS  C:\Users\seblo\AppData\Local\Temp\ccHEsOvX.s 			page 41


 599              	HAL_HCD_HC_SubmitRequest:
 600              	.LVL46:
 601              	.LFB147:
 375:Drivers/STM32F7xx_HAL_Driver/Src/stm32f7xx_hal_hcd.c ****   hhcd->hc[ch_num].ep_is_in = direction;
 602              		.loc 1 375 1 is_stmt 1 view -0
 603              		.cfi_startproc
 604              		@ args = 16, pretend = 0, frame = 0
 605              		@ frame_needed = 0, uses_anonymous_args = 0
 375:Drivers/STM32F7xx_HAL_Driver/Src/stm32f7xx_hal_hcd.c ****   hhcd->hc[ch_num].ep_is_in = direction;
 606              		.loc 1 375 1 is_stmt 0 view .LVU164
 607 0000 38B5     		push	{r3, r4, r5, lr}
 608              	.LCFI14:
 609              		.cfi_def_cfa_offset 16
 610              		.cfi_offset 3, -16
 611              		.cfi_offset 4, -12
 612              		.cfi_offset 5, -8
 613              		.cfi_offset 14, -4
 614 0002 9DF81040 		ldrb	r4, [sp, #16]	@ zero_extendqisi2
 615 0006 BDF81850 		ldrh	r5, [sp, #24]
 376:Drivers/STM32F7xx_HAL_Driver/Src/stm32f7xx_hal_hcd.c ****   hhcd->hc[ch_num].ep_type  = ep_type;
 616              		.loc 1 376 3 is_stmt 1 view .LVU165
 376:Drivers/STM32F7xx_HAL_Driver/Src/stm32f7xx_hal_hcd.c ****   hhcd->hc[ch_num].ep_type  = ep_type;
 617              		.loc 1 376 29 is_stmt 0 view .LVU166
 618 000a 01EB810C 		add	ip, r1, r1, lsl #2
 619 000e 00EBCC0C 		add	ip, r0, ip, lsl #3
 620 0012 8CF83B20 		strb	r2, [ip, #59]
 377:Drivers/STM32F7xx_HAL_Driver/Src/stm32f7xx_hal_hcd.c **** 
 621              		.loc 1 377 3 is_stmt 1 view .LVU167
 377:Drivers/STM32F7xx_HAL_Driver/Src/stm32f7xx_hal_hcd.c **** 
 622              		.loc 1 377 29 is_stmt 0 view .LVU168
 623 0016 8CF83F30 		strb	r3, [ip, #63]
 379:Drivers/STM32F7xx_HAL_Driver/Src/stm32f7xx_hal_hcd.c ****   {
 624              		.loc 1 379 3 is_stmt 1 view .LVU169
 379:Drivers/STM32F7xx_HAL_Driver/Src/stm32f7xx_hal_hcd.c ****   {
 625              		.loc 1 379 6 is_stmt 0 view .LVU170
 626 001a 94B9     		cbnz	r4, .L41
 381:Drivers/STM32F7xx_HAL_Driver/Src/stm32f7xx_hal_hcd.c ****     hhcd->hc[ch_num].do_ping = do_ping;
 627              		.loc 1 381 5 is_stmt 1 view .LVU171
 381:Drivers/STM32F7xx_HAL_Driver/Src/stm32f7xx_hal_hcd.c ****     hhcd->hc[ch_num].do_ping = do_ping;
 628              		.loc 1 381 31 is_stmt 0 view .LVU172
 629 001c 01EB810C 		add	ip, r1, r1, lsl #2
 630 0020 00EBCC0C 		add	ip, r0, ip, lsl #3
 631 0024 4FF0030E 		mov	lr, #3
 632 0028 8CF842E0 		strb	lr, [ip, #66]
 382:Drivers/STM32F7xx_HAL_Driver/Src/stm32f7xx_hal_hcd.c ****   }
 633              		.loc 1 382 5 is_stmt 1 view .LVU173
 382:Drivers/STM32F7xx_HAL_Driver/Src/stm32f7xx_hal_hcd.c ****   }
 634              		.loc 1 382 30 is_stmt 0 view .LVU174
 635 002c 9DF81CE0 		ldrb	lr, [sp, #28]	@ zero_extendqisi2
 636 0030 8CF83DE0 		strb	lr, [ip, #61]
 637              	.L42:
 390:Drivers/STM32F7xx_HAL_Driver/Src/stm32f7xx_hal_hcd.c ****   {
 638              		.loc 1 390 3 is_stmt 1 view .LVU175
 639 0034 032B     		cmp	r3, #3
 640 0036 00F29480 		bhi	.L43
 641 003a DFE803F0 		tbb	[pc, r3]
 642              	.L45:
ARM GAS  C:\Users\seblo\AppData\Local\Temp\ccHEsOvX.s 			page 42


 643 003e 0B       		.byte	(.L48-.L45)/2
 644 003f 8B       		.byte	(.L47-.L45)/2
 645 0040 2F       		.byte	(.L46-.L45)/2
 646 0041 5D       		.byte	(.L44-.L45)/2
 647              		.p2align 1
 648              	.L41:
 386:Drivers/STM32F7xx_HAL_Driver/Src/stm32f7xx_hal_hcd.c ****   }
 649              		.loc 1 386 5 view .LVU176
 386:Drivers/STM32F7xx_HAL_Driver/Src/stm32f7xx_hal_hcd.c ****   }
 650              		.loc 1 386 31 is_stmt 0 view .LVU177
 651 0042 01EB810C 		add	ip, r1, r1, lsl #2
 652 0046 00EBCC0C 		add	ip, r0, ip, lsl #3
 653 004a 4FF0020E 		mov	lr, #2
 654 004e 8CF842E0 		strb	lr, [ip, #66]
 655 0052 EFE7     		b	.L42
 656              	.L48:
 393:Drivers/STM32F7xx_HAL_Driver/Src/stm32f7xx_hal_hcd.c ****       {
 657              		.loc 1 393 7 is_stmt 1 view .LVU178
 393:Drivers/STM32F7xx_HAL_Driver/Src/stm32f7xx_hal_hcd.c ****       {
 658              		.loc 1 393 10 is_stmt 0 view .LVU179
 659 0054 012C     		cmp	r4, #1
 660 0056 08BF     		it	eq
 661 0058 002A     		cmpeq	r2, #0
 662 005a 40F08280 		bne	.L43
 395:Drivers/STM32F7xx_HAL_Driver/Src/stm32f7xx_hal_hcd.c ****         {
 663              		.loc 1 395 9 is_stmt 1 view .LVU180
 395:Drivers/STM32F7xx_HAL_Driver/Src/stm32f7xx_hal_hcd.c ****         {
 664              		.loc 1 395 12 is_stmt 0 view .LVU181
 665 005e 35B9     		cbnz	r5, .L49
 398:Drivers/STM32F7xx_HAL_Driver/Src/stm32f7xx_hal_hcd.c ****         }
 666              		.loc 1 398 11 is_stmt 1 view .LVU182
 398:Drivers/STM32F7xx_HAL_Driver/Src/stm32f7xx_hal_hcd.c ****         }
 667              		.loc 1 398 39 is_stmt 0 view .LVU183
 668 0060 01EB8103 		add	r3, r1, r1, lsl #2
 669              	.LVL47:
 398:Drivers/STM32F7xx_HAL_Driver/Src/stm32f7xx_hal_hcd.c ****         }
 670              		.loc 1 398 39 view .LVU184
 671 0064 00EBC303 		add	r3, r0, r3, lsl #3
 672 0068 0122     		movs	r2, #1
 673              	.LVL48:
 398:Drivers/STM32F7xx_HAL_Driver/Src/stm32f7xx_hal_hcd.c ****         }
 674              		.loc 1 398 39 view .LVU185
 675 006a 83F85120 		strb	r2, [r3, #81]
 676              	.L49:
 402:Drivers/STM32F7xx_HAL_Driver/Src/stm32f7xx_hal_hcd.c ****         {
 677              		.loc 1 402 9 is_stmt 1 view .LVU186
 402:Drivers/STM32F7xx_HAL_Driver/Src/stm32f7xx_hal_hcd.c ****         {
 678              		.loc 1 402 29 is_stmt 0 view .LVU187
 679 006e 01EB8103 		add	r3, r1, r1, lsl #2
 680 0072 00EBC303 		add	r3, r0, r3, lsl #3
 681 0076 93F85130 		ldrb	r3, [r3, #81]	@ zero_extendqisi2
 402:Drivers/STM32F7xx_HAL_Driver/Src/stm32f7xx_hal_hcd.c ****         {
 682              		.loc 1 402 12 view .LVU188
 683 007a 3BB9     		cbnz	r3, .L50
 405:Drivers/STM32F7xx_HAL_Driver/Src/stm32f7xx_hal_hcd.c ****         }
 684              		.loc 1 405 11 is_stmt 1 view .LVU189
 405:Drivers/STM32F7xx_HAL_Driver/Src/stm32f7xx_hal_hcd.c ****         }
ARM GAS  C:\Users\seblo\AppData\Local\Temp\ccHEsOvX.s 			page 43


 685              		.loc 1 405 37 is_stmt 0 view .LVU190
 686 007c 01EB8103 		add	r3, r1, r1, lsl #2
 687 0080 00EBC303 		add	r3, r0, r3, lsl #3
 688 0084 0022     		movs	r2, #0
 689 0086 83F84220 		strb	r2, [r3, #66]
 690 008a 6AE0     		b	.L43
 691              	.L50:
 410:Drivers/STM32F7xx_HAL_Driver/Src/stm32f7xx_hal_hcd.c ****         }
 692              		.loc 1 410 11 is_stmt 1 view .LVU191
 410:Drivers/STM32F7xx_HAL_Driver/Src/stm32f7xx_hal_hcd.c ****         }
 693              		.loc 1 410 37 is_stmt 0 view .LVU192
 694 008c 01EB8103 		add	r3, r1, r1, lsl #2
 695 0090 00EBC303 		add	r3, r0, r3, lsl #3
 696 0094 0222     		movs	r2, #2
 697 0096 83F84220 		strb	r2, [r3, #66]
 698 009a 62E0     		b	.L43
 699              	.LVL49:
 700              	.L46:
 416:Drivers/STM32F7xx_HAL_Driver/Src/stm32f7xx_hal_hcd.c ****       {
 701              		.loc 1 416 7 is_stmt 1 view .LVU193
 416:Drivers/STM32F7xx_HAL_Driver/Src/stm32f7xx_hal_hcd.c ****       {
 702              		.loc 1 416 10 is_stmt 0 view .LVU194
 703 009c AAB9     		cbnz	r2, .L51
 419:Drivers/STM32F7xx_HAL_Driver/Src/stm32f7xx_hal_hcd.c ****         {
 704              		.loc 1 419 9 is_stmt 1 view .LVU195
 419:Drivers/STM32F7xx_HAL_Driver/Src/stm32f7xx_hal_hcd.c ****         {
 705              		.loc 1 419 29 is_stmt 0 view .LVU196
 706 009e 01EB8103 		add	r3, r1, r1, lsl #2
 707              	.LVL50:
 419:Drivers/STM32F7xx_HAL_Driver/Src/stm32f7xx_hal_hcd.c ****         {
 708              		.loc 1 419 29 view .LVU197
 709 00a2 00EBC303 		add	r3, r0, r3, lsl #3
 710 00a6 93F85130 		ldrb	r3, [r3, #81]	@ zero_extendqisi2
 419:Drivers/STM32F7xx_HAL_Driver/Src/stm32f7xx_hal_hcd.c ****         {
 711              		.loc 1 419 12 view .LVU198
 712 00aa 33B9     		cbnz	r3, .L52
 422:Drivers/STM32F7xx_HAL_Driver/Src/stm32f7xx_hal_hcd.c ****         }
 713              		.loc 1 422 11 is_stmt 1 view .LVU199
 422:Drivers/STM32F7xx_HAL_Driver/Src/stm32f7xx_hal_hcd.c ****         }
 714              		.loc 1 422 37 is_stmt 0 view .LVU200
 715 00ac 01EB8103 		add	r3, r1, r1, lsl #2
 716 00b0 00EBC303 		add	r3, r0, r3, lsl #3
 717 00b4 83F84220 		strb	r2, [r3, #66]
 718 00b8 53E0     		b	.L43
 719              	.L52:
 427:Drivers/STM32F7xx_HAL_Driver/Src/stm32f7xx_hal_hcd.c ****         }
 720              		.loc 1 427 11 is_stmt 1 view .LVU201
 427:Drivers/STM32F7xx_HAL_Driver/Src/stm32f7xx_hal_hcd.c ****         }
 721              		.loc 1 427 37 is_stmt 0 view .LVU202
 722 00ba 01EB8103 		add	r3, r1, r1, lsl #2
 723 00be 00EBC303 		add	r3, r0, r3, lsl #3
 724 00c2 0222     		movs	r2, #2
 725              	.LVL51:
 427:Drivers/STM32F7xx_HAL_Driver/Src/stm32f7xx_hal_hcd.c ****         }
 726              		.loc 1 427 37 view .LVU203
 727 00c4 83F84220 		strb	r2, [r3, #66]
 728 00c8 4BE0     		b	.L43
ARM GAS  C:\Users\seblo\AppData\Local\Temp\ccHEsOvX.s 			page 44


 729              	.LVL52:
 730              	.L51:
 432:Drivers/STM32F7xx_HAL_Driver/Src/stm32f7xx_hal_hcd.c ****         {
 731              		.loc 1 432 9 is_stmt 1 view .LVU204
 432:Drivers/STM32F7xx_HAL_Driver/Src/stm32f7xx_hal_hcd.c ****         {
 732              		.loc 1 432 29 is_stmt 0 view .LVU205
 733 00ca 01EB8103 		add	r3, r1, r1, lsl #2
 734              	.LVL53:
 432:Drivers/STM32F7xx_HAL_Driver/Src/stm32f7xx_hal_hcd.c ****         {
 735              		.loc 1 432 29 view .LVU206
 736 00ce 00EBC303 		add	r3, r0, r3, lsl #3
 737 00d2 93F85030 		ldrb	r3, [r3, #80]	@ zero_extendqisi2
 432:Drivers/STM32F7xx_HAL_Driver/Src/stm32f7xx_hal_hcd.c ****         {
 738              		.loc 1 432 12 view .LVU207
 739 00d6 3BB9     		cbnz	r3, .L53
 434:Drivers/STM32F7xx_HAL_Driver/Src/stm32f7xx_hal_hcd.c ****         }
 740              		.loc 1 434 11 is_stmt 1 view .LVU208
 434:Drivers/STM32F7xx_HAL_Driver/Src/stm32f7xx_hal_hcd.c ****         }
 741              		.loc 1 434 37 is_stmt 0 view .LVU209
 742 00d8 01EB8103 		add	r3, r1, r1, lsl #2
 743 00dc 00EBC303 		add	r3, r0, r3, lsl #3
 744 00e0 0022     		movs	r2, #0
 745              	.LVL54:
 434:Drivers/STM32F7xx_HAL_Driver/Src/stm32f7xx_hal_hcd.c ****         }
 746              		.loc 1 434 37 view .LVU210
 747 00e2 83F84220 		strb	r2, [r3, #66]
 748 00e6 3CE0     		b	.L43
 749              	.LVL55:
 750              	.L53:
 438:Drivers/STM32F7xx_HAL_Driver/Src/stm32f7xx_hal_hcd.c ****         }
 751              		.loc 1 438 11 is_stmt 1 view .LVU211
 438:Drivers/STM32F7xx_HAL_Driver/Src/stm32f7xx_hal_hcd.c ****         }
 752              		.loc 1 438 37 is_stmt 0 view .LVU212
 753 00e8 01EB8103 		add	r3, r1, r1, lsl #2
 754 00ec 00EBC303 		add	r3, r0, r3, lsl #3
 755 00f0 0222     		movs	r2, #2
 756              	.LVL56:
 438:Drivers/STM32F7xx_HAL_Driver/Src/stm32f7xx_hal_hcd.c ****         }
 757              		.loc 1 438 37 view .LVU213
 758 00f2 83F84220 		strb	r2, [r3, #66]
 759 00f6 34E0     		b	.L43
 760              	.LVL57:
 761              	.L44:
 444:Drivers/STM32F7xx_HAL_Driver/Src/stm32f7xx_hal_hcd.c ****       {
 762              		.loc 1 444 7 is_stmt 1 view .LVU214
 444:Drivers/STM32F7xx_HAL_Driver/Src/stm32f7xx_hal_hcd.c ****       {
 763              		.loc 1 444 10 is_stmt 0 view .LVU215
 764 00f8 AAB9     		cbnz	r2, .L54
 447:Drivers/STM32F7xx_HAL_Driver/Src/stm32f7xx_hal_hcd.c ****         {
 765              		.loc 1 447 9 is_stmt 1 view .LVU216
 447:Drivers/STM32F7xx_HAL_Driver/Src/stm32f7xx_hal_hcd.c ****         {
 766              		.loc 1 447 29 is_stmt 0 view .LVU217
 767 00fa 01EB8103 		add	r3, r1, r1, lsl #2
 768              	.LVL58:
 447:Drivers/STM32F7xx_HAL_Driver/Src/stm32f7xx_hal_hcd.c ****         {
 769              		.loc 1 447 29 view .LVU218
 770 00fe 00EBC303 		add	r3, r0, r3, lsl #3
ARM GAS  C:\Users\seblo\AppData\Local\Temp\ccHEsOvX.s 			page 45


 771 0102 93F85130 		ldrb	r3, [r3, #81]	@ zero_extendqisi2
 447:Drivers/STM32F7xx_HAL_Driver/Src/stm32f7xx_hal_hcd.c ****         {
 772              		.loc 1 447 12 view .LVU219
 773 0106 33B9     		cbnz	r3, .L55
 450:Drivers/STM32F7xx_HAL_Driver/Src/stm32f7xx_hal_hcd.c ****         }
 774              		.loc 1 450 11 is_stmt 1 view .LVU220
 450:Drivers/STM32F7xx_HAL_Driver/Src/stm32f7xx_hal_hcd.c ****         }
 775              		.loc 1 450 37 is_stmt 0 view .LVU221
 776 0108 01EB8103 		add	r3, r1, r1, lsl #2
 777 010c 00EBC303 		add	r3, r0, r3, lsl #3
 778 0110 83F84220 		strb	r2, [r3, #66]
 779 0114 25E0     		b	.L43
 780              	.L55:
 455:Drivers/STM32F7xx_HAL_Driver/Src/stm32f7xx_hal_hcd.c ****         }
 781              		.loc 1 455 11 is_stmt 1 view .LVU222
 455:Drivers/STM32F7xx_HAL_Driver/Src/stm32f7xx_hal_hcd.c ****         }
 782              		.loc 1 455 37 is_stmt 0 view .LVU223
 783 0116 01EB8103 		add	r3, r1, r1, lsl #2
 784 011a 00EBC303 		add	r3, r0, r3, lsl #3
 785 011e 0222     		movs	r2, #2
 786              	.LVL59:
 455:Drivers/STM32F7xx_HAL_Driver/Src/stm32f7xx_hal_hcd.c ****         }
 787              		.loc 1 455 37 view .LVU224
 788 0120 83F84220 		strb	r2, [r3, #66]
 789 0124 1DE0     		b	.L43
 790              	.LVL60:
 791              	.L54:
 460:Drivers/STM32F7xx_HAL_Driver/Src/stm32f7xx_hal_hcd.c ****         {
 792              		.loc 1 460 9 is_stmt 1 view .LVU225
 460:Drivers/STM32F7xx_HAL_Driver/Src/stm32f7xx_hal_hcd.c ****         {
 793              		.loc 1 460 29 is_stmt 0 view .LVU226
 794 0126 01EB8103 		add	r3, r1, r1, lsl #2
 795              	.LVL61:
 460:Drivers/STM32F7xx_HAL_Driver/Src/stm32f7xx_hal_hcd.c ****         {
 796              		.loc 1 460 29 view .LVU227
 797 012a 00EBC303 		add	r3, r0, r3, lsl #3
 798 012e 93F85030 		ldrb	r3, [r3, #80]	@ zero_extendqisi2
 460:Drivers/STM32F7xx_HAL_Driver/Src/stm32f7xx_hal_hcd.c ****         {
 799              		.loc 1 460 12 view .LVU228
 800 0132 3BB9     		cbnz	r3, .L56
 462:Drivers/STM32F7xx_HAL_Driver/Src/stm32f7xx_hal_hcd.c ****         }
 801              		.loc 1 462 11 is_stmt 1 view .LVU229
 462:Drivers/STM32F7xx_HAL_Driver/Src/stm32f7xx_hal_hcd.c ****         }
 802              		.loc 1 462 37 is_stmt 0 view .LVU230
 803 0134 01EB8103 		add	r3, r1, r1, lsl #2
 804 0138 00EBC303 		add	r3, r0, r3, lsl #3
 805 013c 0022     		movs	r2, #0
 806              	.LVL62:
 462:Drivers/STM32F7xx_HAL_Driver/Src/stm32f7xx_hal_hcd.c ****         }
 807              		.loc 1 462 37 view .LVU231
 808 013e 83F84220 		strb	r2, [r3, #66]
 809 0142 0EE0     		b	.L43
 810              	.LVL63:
 811              	.L56:
 466:Drivers/STM32F7xx_HAL_Driver/Src/stm32f7xx_hal_hcd.c ****         }
 812              		.loc 1 466 11 is_stmt 1 view .LVU232
 466:Drivers/STM32F7xx_HAL_Driver/Src/stm32f7xx_hal_hcd.c ****         }
ARM GAS  C:\Users\seblo\AppData\Local\Temp\ccHEsOvX.s 			page 46


 813              		.loc 1 466 37 is_stmt 0 view .LVU233
 814 0144 01EB8103 		add	r3, r1, r1, lsl #2
 815 0148 00EBC303 		add	r3, r0, r3, lsl #3
 816 014c 0222     		movs	r2, #2
 817              	.LVL64:
 466:Drivers/STM32F7xx_HAL_Driver/Src/stm32f7xx_hal_hcd.c ****         }
 818              		.loc 1 466 37 view .LVU234
 819 014e 83F84220 		strb	r2, [r3, #66]
 820 0152 06E0     		b	.L43
 821              	.LVL65:
 822              	.L47:
 472:Drivers/STM32F7xx_HAL_Driver/Src/stm32f7xx_hal_hcd.c ****       break;
 823              		.loc 1 472 7 is_stmt 1 view .LVU235
 472:Drivers/STM32F7xx_HAL_Driver/Src/stm32f7xx_hal_hcd.c ****       break;
 824              		.loc 1 472 33 is_stmt 0 view .LVU236
 825 0154 01EB8103 		add	r3, r1, r1, lsl #2
 826              	.LVL66:
 472:Drivers/STM32F7xx_HAL_Driver/Src/stm32f7xx_hal_hcd.c ****       break;
 827              		.loc 1 472 33 view .LVU237
 828 0158 00EBC303 		add	r3, r0, r3, lsl #3
 829 015c 0022     		movs	r2, #0
 830              	.LVL67:
 472:Drivers/STM32F7xx_HAL_Driver/Src/stm32f7xx_hal_hcd.c ****       break;
 831              		.loc 1 472 33 view .LVU238
 832 015e 83F84220 		strb	r2, [r3, #66]
 473:Drivers/STM32F7xx_HAL_Driver/Src/stm32f7xx_hal_hcd.c **** 
 833              		.loc 1 473 7 is_stmt 1 view .LVU239
 834              	.L43:
 479:Drivers/STM32F7xx_HAL_Driver/Src/stm32f7xx_hal_hcd.c ****   hhcd->hc[ch_num].xfer_len  = length;
 835              		.loc 1 479 3 view .LVU240
 479:Drivers/STM32F7xx_HAL_Driver/Src/stm32f7xx_hal_hcd.c ****   hhcd->hc[ch_num].xfer_len  = length;
 836              		.loc 1 479 30 is_stmt 0 view .LVU241
 837 0162 01EB8103 		add	r3, r1, r1, lsl #2
 838 0166 00EBC303 		add	r3, r0, r3, lsl #3
 839 016a 059A     		ldr	r2, [sp, #20]
 840 016c 5A64     		str	r2, [r3, #68]
 480:Drivers/STM32F7xx_HAL_Driver/Src/stm32f7xx_hal_hcd.c ****   hhcd->hc[ch_num].urb_state = URB_IDLE;
 841              		.loc 1 480 3 is_stmt 1 view .LVU242
 480:Drivers/STM32F7xx_HAL_Driver/Src/stm32f7xx_hal_hcd.c ****   hhcd->hc[ch_num].urb_state = URB_IDLE;
 842              		.loc 1 480 30 is_stmt 0 view .LVU243
 843 016e 9D64     		str	r5, [r3, #72]
 481:Drivers/STM32F7xx_HAL_Driver/Src/stm32f7xx_hal_hcd.c ****   hhcd->hc[ch_num].xfer_count = 0U;
 844              		.loc 1 481 3 is_stmt 1 view .LVU244
 481:Drivers/STM32F7xx_HAL_Driver/Src/stm32f7xx_hal_hcd.c ****   hhcd->hc[ch_num].xfer_count = 0U;
 845              		.loc 1 481 30 is_stmt 0 view .LVU245
 846 0170 0022     		movs	r2, #0
 847 0172 83F85C20 		strb	r2, [r3, #92]
 482:Drivers/STM32F7xx_HAL_Driver/Src/stm32f7xx_hal_hcd.c ****   hhcd->hc[ch_num].ch_num = ch_num;
 848              		.loc 1 482 3 is_stmt 1 view .LVU246
 482:Drivers/STM32F7xx_HAL_Driver/Src/stm32f7xx_hal_hcd.c ****   hhcd->hc[ch_num].ch_num = ch_num;
 849              		.loc 1 482 31 is_stmt 0 view .LVU247
 850 0176 DA64     		str	r2, [r3, #76]
 483:Drivers/STM32F7xx_HAL_Driver/Src/stm32f7xx_hal_hcd.c ****   hhcd->hc[ch_num].state = HC_IDLE;
 851              		.loc 1 483 3 is_stmt 1 view .LVU248
 483:Drivers/STM32F7xx_HAL_Driver/Src/stm32f7xx_hal_hcd.c ****   hhcd->hc[ch_num].state = HC_IDLE;
 852              		.loc 1 483 27 is_stmt 0 view .LVU249
 853 0178 83F83910 		strb	r1, [r3, #57]
ARM GAS  C:\Users\seblo\AppData\Local\Temp\ccHEsOvX.s 			page 47


 484:Drivers/STM32F7xx_HAL_Driver/Src/stm32f7xx_hal_hcd.c **** 
 854              		.loc 1 484 3 is_stmt 1 view .LVU250
 484:Drivers/STM32F7xx_HAL_Driver/Src/stm32f7xx_hal_hcd.c **** 
 855              		.loc 1 484 26 is_stmt 0 view .LVU251
 856 017c 83F85D20 		strb	r2, [r3, #93]
 486:Drivers/STM32F7xx_HAL_Driver/Src/stm32f7xx_hal_hcd.c **** }
 857              		.loc 1 486 3 is_stmt 1 view .LVU252
 486:Drivers/STM32F7xx_HAL_Driver/Src/stm32f7xx_hal_hcd.c **** }
 858              		.loc 1 486 43 is_stmt 0 view .LVU253
 859 0180 01EB8101 		add	r1, r1, r1, lsl #2
 860              	.LVL68:
 486:Drivers/STM32F7xx_HAL_Driver/Src/stm32f7xx_hal_hcd.c **** }
 861              		.loc 1 486 43 view .LVU254
 862 0184 C900     		lsls	r1, r1, #3
 863 0186 3831     		adds	r1, r1, #56
 486:Drivers/STM32F7xx_HAL_Driver/Src/stm32f7xx_hal_hcd.c **** }
 864              		.loc 1 486 10 view .LVU255
 865 0188 027C     		ldrb	r2, [r0, #16]	@ zero_extendqisi2
 866 018a 0144     		add	r1, r1, r0
 867 018c 0068     		ldr	r0, [r0]
 868              	.LVL69:
 486:Drivers/STM32F7xx_HAL_Driver/Src/stm32f7xx_hal_hcd.c **** }
 869              		.loc 1 486 10 view .LVU256
 870 018e FFF7FEFF 		bl	USB_HC_StartXfer
 871              	.LVL70:
 487:Drivers/STM32F7xx_HAL_Driver/Src/stm32f7xx_hal_hcd.c **** 
 872              		.loc 1 487 1 view .LVU257
 873 0192 38BD     		pop	{r3, r4, r5, pc}
 487:Drivers/STM32F7xx_HAL_Driver/Src/stm32f7xx_hal_hcd.c **** 
 874              		.loc 1 487 1 view .LVU258
 875              		.cfi_endproc
 876              	.LFE147:
 878              		.section	.text.HAL_HCD_SOF_Callback,"ax",%progbits
 879              		.align	1
 880              		.weak	HAL_HCD_SOF_Callback
 881              		.syntax unified
 882              		.thumb
 883              		.thumb_func
 884              		.fpu fpv5-sp-d16
 886              	HAL_HCD_SOF_Callback:
 887              	.LVL71:
 888              	.LFB149:
 608:Drivers/STM32F7xx_HAL_Driver/Src/stm32f7xx_hal_hcd.c ****   /* Prevent unused argument(s) compilation warning */
 889              		.loc 1 608 1 is_stmt 1 view -0
 890              		.cfi_startproc
 891              		@ args = 0, pretend = 0, frame = 0
 892              		@ frame_needed = 0, uses_anonymous_args = 0
 893              		@ link register save eliminated.
 610:Drivers/STM32F7xx_HAL_Driver/Src/stm32f7xx_hal_hcd.c **** 
 894              		.loc 1 610 3 view .LVU260
 615:Drivers/STM32F7xx_HAL_Driver/Src/stm32f7xx_hal_hcd.c **** 
 895              		.loc 1 615 1 is_stmt 0 view .LVU261
 896 0000 7047     		bx	lr
 897              		.cfi_endproc
 898              	.LFE149:
 900              		.section	.text.HAL_HCD_Connect_Callback,"ax",%progbits
 901              		.align	1
ARM GAS  C:\Users\seblo\AppData\Local\Temp\ccHEsOvX.s 			page 48


 902              		.weak	HAL_HCD_Connect_Callback
 903              		.syntax unified
 904              		.thumb
 905              		.thumb_func
 906              		.fpu fpv5-sp-d16
 908              	HAL_HCD_Connect_Callback:
 909              	.LVL72:
 910              	.LFB150:
 623:Drivers/STM32F7xx_HAL_Driver/Src/stm32f7xx_hal_hcd.c ****   /* Prevent unused argument(s) compilation warning */
 911              		.loc 1 623 1 is_stmt 1 view -0
 912              		.cfi_startproc
 913              		@ args = 0, pretend = 0, frame = 0
 914              		@ frame_needed = 0, uses_anonymous_args = 0
 915              		@ link register save eliminated.
 625:Drivers/STM32F7xx_HAL_Driver/Src/stm32f7xx_hal_hcd.c **** 
 916              		.loc 1 625 3 view .LVU263
 630:Drivers/STM32F7xx_HAL_Driver/Src/stm32f7xx_hal_hcd.c **** 
 917              		.loc 1 630 1 is_stmt 0 view .LVU264
 918 0000 7047     		bx	lr
 919              		.cfi_endproc
 920              	.LFE150:
 922              		.section	.text.HAL_HCD_Disconnect_Callback,"ax",%progbits
 923              		.align	1
 924              		.weak	HAL_HCD_Disconnect_Callback
 925              		.syntax unified
 926              		.thumb
 927              		.thumb_func
 928              		.fpu fpv5-sp-d16
 930              	HAL_HCD_Disconnect_Callback:
 931              	.LVL73:
 932              	.LFB151:
 638:Drivers/STM32F7xx_HAL_Driver/Src/stm32f7xx_hal_hcd.c ****   /* Prevent unused argument(s) compilation warning */
 933              		.loc 1 638 1 is_stmt 1 view -0
 934              		.cfi_startproc
 935              		@ args = 0, pretend = 0, frame = 0
 936              		@ frame_needed = 0, uses_anonymous_args = 0
 937              		@ link register save eliminated.
 640:Drivers/STM32F7xx_HAL_Driver/Src/stm32f7xx_hal_hcd.c **** 
 938              		.loc 1 640 3 view .LVU266
 645:Drivers/STM32F7xx_HAL_Driver/Src/stm32f7xx_hal_hcd.c **** 
 939              		.loc 1 645 1 is_stmt 0 view .LVU267
 940 0000 7047     		bx	lr
 941              		.cfi_endproc
 942              	.LFE151:
 944              		.section	.text.HAL_HCD_PortEnabled_Callback,"ax",%progbits
 945              		.align	1
 946              		.weak	HAL_HCD_PortEnabled_Callback
 947              		.syntax unified
 948              		.thumb
 949              		.thumb_func
 950              		.fpu fpv5-sp-d16
 952              	HAL_HCD_PortEnabled_Callback:
 953              	.LVL74:
 954              	.LFB152:
 653:Drivers/STM32F7xx_HAL_Driver/Src/stm32f7xx_hal_hcd.c ****   /* Prevent unused argument(s) compilation warning */
 955              		.loc 1 653 1 is_stmt 1 view -0
 956              		.cfi_startproc
ARM GAS  C:\Users\seblo\AppData\Local\Temp\ccHEsOvX.s 			page 49


 957              		@ args = 0, pretend = 0, frame = 0
 958              		@ frame_needed = 0, uses_anonymous_args = 0
 959              		@ link register save eliminated.
 655:Drivers/STM32F7xx_HAL_Driver/Src/stm32f7xx_hal_hcd.c **** 
 960              		.loc 1 655 3 view .LVU269
 660:Drivers/STM32F7xx_HAL_Driver/Src/stm32f7xx_hal_hcd.c **** 
 961              		.loc 1 660 1 is_stmt 0 view .LVU270
 962 0000 7047     		bx	lr
 963              		.cfi_endproc
 964              	.LFE152:
 966              		.section	.text.HAL_HCD_PortDisabled_Callback,"ax",%progbits
 967              		.align	1
 968              		.weak	HAL_HCD_PortDisabled_Callback
 969              		.syntax unified
 970              		.thumb
 971              		.thumb_func
 972              		.fpu fpv5-sp-d16
 974              	HAL_HCD_PortDisabled_Callback:
 975              	.LVL75:
 976              	.LFB153:
 668:Drivers/STM32F7xx_HAL_Driver/Src/stm32f7xx_hal_hcd.c ****   /* Prevent unused argument(s) compilation warning */
 977              		.loc 1 668 1 is_stmt 1 view -0
 978              		.cfi_startproc
 979              		@ args = 0, pretend = 0, frame = 0
 980              		@ frame_needed = 0, uses_anonymous_args = 0
 981              		@ link register save eliminated.
 670:Drivers/STM32F7xx_HAL_Driver/Src/stm32f7xx_hal_hcd.c **** 
 982              		.loc 1 670 3 view .LVU272
 675:Drivers/STM32F7xx_HAL_Driver/Src/stm32f7xx_hal_hcd.c **** 
 983              		.loc 1 675 1 is_stmt 0 view .LVU273
 984 0000 7047     		bx	lr
 985              		.cfi_endproc
 986              	.LFE153:
 988              		.section	.text.HCD_Port_IRQHandler,"ax",%progbits
 989              		.align	1
 990              		.syntax unified
 991              		.thumb
 992              		.thumb_func
 993              		.fpu fpv5-sp-d16
 995              	HCD_Port_IRQHandler:
 996              	.LVL76:
 997              	.LFB167:
1557:Drivers/STM32F7xx_HAL_Driver/Src/stm32f7xx_hal_hcd.c **** 
1558:Drivers/STM32F7xx_HAL_Driver/Src/stm32f7xx_hal_hcd.c **** /**
1559:Drivers/STM32F7xx_HAL_Driver/Src/stm32f7xx_hal_hcd.c ****   * @brief  Handle Host Port interrupt requests.
1560:Drivers/STM32F7xx_HAL_Driver/Src/stm32f7xx_hal_hcd.c ****   * @param  hhcd HCD handle
1561:Drivers/STM32F7xx_HAL_Driver/Src/stm32f7xx_hal_hcd.c ****   * @retval None
1562:Drivers/STM32F7xx_HAL_Driver/Src/stm32f7xx_hal_hcd.c ****   */
1563:Drivers/STM32F7xx_HAL_Driver/Src/stm32f7xx_hal_hcd.c **** static void HCD_Port_IRQHandler(HCD_HandleTypeDef *hhcd)
1564:Drivers/STM32F7xx_HAL_Driver/Src/stm32f7xx_hal_hcd.c **** {
 998              		.loc 1 1564 1 is_stmt 1 view -0
 999              		.cfi_startproc
 1000              		@ args = 0, pretend = 0, frame = 8
 1001              		@ frame_needed = 0, uses_anonymous_args = 0
 1002              		.loc 1 1564 1 is_stmt 0 view .LVU275
 1003 0000 30B5     		push	{r4, r5, lr}
 1004              	.LCFI15:
ARM GAS  C:\Users\seblo\AppData\Local\Temp\ccHEsOvX.s 			page 50


 1005              		.cfi_def_cfa_offset 12
 1006              		.cfi_offset 4, -12
 1007              		.cfi_offset 5, -8
 1008              		.cfi_offset 14, -4
 1009 0002 83B0     		sub	sp, sp, #12
 1010              	.LCFI16:
 1011              		.cfi_def_cfa_offset 24
 1012 0004 0446     		mov	r4, r0
1565:Drivers/STM32F7xx_HAL_Driver/Src/stm32f7xx_hal_hcd.c ****   USB_OTG_GlobalTypeDef *USBx = hhcd->Instance;
 1013              		.loc 1 1565 3 is_stmt 1 view .LVU276
 1014              		.loc 1 1565 26 is_stmt 0 view .LVU277
 1015 0006 0568     		ldr	r5, [r0]
1566:Drivers/STM32F7xx_HAL_Driver/Src/stm32f7xx_hal_hcd.c ****   uint32_t USBx_BASE = (uint32_t)USBx;
 1016              		.loc 1 1566 3 is_stmt 1 view .LVU278
 1017              	.LVL77:
1567:Drivers/STM32F7xx_HAL_Driver/Src/stm32f7xx_hal_hcd.c ****   __IO uint32_t hprt0, hprt0_dup;
 1018              		.loc 1 1567 3 view .LVU279
1568:Drivers/STM32F7xx_HAL_Driver/Src/stm32f7xx_hal_hcd.c **** 
1569:Drivers/STM32F7xx_HAL_Driver/Src/stm32f7xx_hal_hcd.c ****   /* Handle Host Port Interrupts */
1570:Drivers/STM32F7xx_HAL_Driver/Src/stm32f7xx_hal_hcd.c ****   hprt0 = USBx_HPRT0;
 1019              		.loc 1 1570 3 view .LVU280
 1020              		.loc 1 1570 11 is_stmt 0 view .LVU281
 1021 0008 D5F84034 		ldr	r3, [r5, #1088]
 1022              		.loc 1 1570 9 view .LVU282
 1023 000c 0193     		str	r3, [sp, #4]
1571:Drivers/STM32F7xx_HAL_Driver/Src/stm32f7xx_hal_hcd.c ****   hprt0_dup = USBx_HPRT0;
 1024              		.loc 1 1571 3 is_stmt 1 view .LVU283
 1025              		.loc 1 1571 15 is_stmt 0 view .LVU284
 1026 000e D5F84034 		ldr	r3, [r5, #1088]
 1027              		.loc 1 1571 13 view .LVU285
 1028 0012 0093     		str	r3, [sp]
1572:Drivers/STM32F7xx_HAL_Driver/Src/stm32f7xx_hal_hcd.c **** 
1573:Drivers/STM32F7xx_HAL_Driver/Src/stm32f7xx_hal_hcd.c ****   hprt0_dup &= ~(USB_OTG_HPRT_PENA | USB_OTG_HPRT_PCDET | \
 1029              		.loc 1 1573 3 is_stmt 1 view .LVU286
 1030              		.loc 1 1573 13 is_stmt 0 view .LVU287
 1031 0014 009B     		ldr	r3, [sp]
 1032 0016 23F02E03 		bic	r3, r3, #46
 1033 001a 0093     		str	r3, [sp]
1574:Drivers/STM32F7xx_HAL_Driver/Src/stm32f7xx_hal_hcd.c ****                  USB_OTG_HPRT_PENCHNG | USB_OTG_HPRT_POCCHNG);
1575:Drivers/STM32F7xx_HAL_Driver/Src/stm32f7xx_hal_hcd.c **** 
1576:Drivers/STM32F7xx_HAL_Driver/Src/stm32f7xx_hal_hcd.c ****   /* Check whether Port Connect detected */
1577:Drivers/STM32F7xx_HAL_Driver/Src/stm32f7xx_hal_hcd.c ****   if ((hprt0 & USB_OTG_HPRT_PCDET) == USB_OTG_HPRT_PCDET)
 1034              		.loc 1 1577 3 is_stmt 1 view .LVU288
 1035              		.loc 1 1577 14 is_stmt 0 view .LVU289
 1036 001c 019B     		ldr	r3, [sp, #4]
 1037              		.loc 1 1577 6 view .LVU290
 1038 001e 13F0020F 		tst	r3, #2
 1039 0022 07D0     		beq	.L64
1578:Drivers/STM32F7xx_HAL_Driver/Src/stm32f7xx_hal_hcd.c ****   {
1579:Drivers/STM32F7xx_HAL_Driver/Src/stm32f7xx_hal_hcd.c ****     if ((hprt0 & USB_OTG_HPRT_PCSTS) == USB_OTG_HPRT_PCSTS)
 1040              		.loc 1 1579 5 is_stmt 1 view .LVU291
 1041              		.loc 1 1579 16 is_stmt 0 view .LVU292
 1042 0024 019B     		ldr	r3, [sp, #4]
 1043              		.loc 1 1579 8 view .LVU293
 1044 0026 13F0010F 		tst	r3, #1
 1045 002a 25D1     		bne	.L73
 1046              	.LVL78:
ARM GAS  C:\Users\seblo\AppData\Local\Temp\ccHEsOvX.s 			page 51


 1047              	.L65:
1580:Drivers/STM32F7xx_HAL_Driver/Src/stm32f7xx_hal_hcd.c ****     {
1581:Drivers/STM32F7xx_HAL_Driver/Src/stm32f7xx_hal_hcd.c **** #if (USE_HAL_HCD_REGISTER_CALLBACKS == 1U)
1582:Drivers/STM32F7xx_HAL_Driver/Src/stm32f7xx_hal_hcd.c ****       hhcd->ConnectCallback(hhcd);
1583:Drivers/STM32F7xx_HAL_Driver/Src/stm32f7xx_hal_hcd.c **** #else
1584:Drivers/STM32F7xx_HAL_Driver/Src/stm32f7xx_hal_hcd.c ****       HAL_HCD_Connect_Callback(hhcd);
1585:Drivers/STM32F7xx_HAL_Driver/Src/stm32f7xx_hal_hcd.c **** #endif /* USE_HAL_HCD_REGISTER_CALLBACKS */
1586:Drivers/STM32F7xx_HAL_Driver/Src/stm32f7xx_hal_hcd.c ****     }
1587:Drivers/STM32F7xx_HAL_Driver/Src/stm32f7xx_hal_hcd.c ****     hprt0_dup  |= USB_OTG_HPRT_PCDET;
 1048              		.loc 1 1587 5 is_stmt 1 view .LVU294
 1049              		.loc 1 1587 16 is_stmt 0 view .LVU295
 1050 002c 009B     		ldr	r3, [sp]
 1051 002e 43F00203 		orr	r3, r3, #2
 1052 0032 0093     		str	r3, [sp]
 1053              	.L64:
1588:Drivers/STM32F7xx_HAL_Driver/Src/stm32f7xx_hal_hcd.c ****   }
1589:Drivers/STM32F7xx_HAL_Driver/Src/stm32f7xx_hal_hcd.c **** 
1590:Drivers/STM32F7xx_HAL_Driver/Src/stm32f7xx_hal_hcd.c ****   /* Check whether Port Enable Changed */
1591:Drivers/STM32F7xx_HAL_Driver/Src/stm32f7xx_hal_hcd.c ****   if ((hprt0 & USB_OTG_HPRT_PENCHNG) == USB_OTG_HPRT_PENCHNG)
 1054              		.loc 1 1591 3 is_stmt 1 view .LVU296
 1055              		.loc 1 1591 14 is_stmt 0 view .LVU297
 1056 0034 019B     		ldr	r3, [sp, #4]
 1057              		.loc 1 1591 6 view .LVU298
 1058 0036 13F0080F 		tst	r3, #8
 1059 003a 10D0     		beq	.L66
1592:Drivers/STM32F7xx_HAL_Driver/Src/stm32f7xx_hal_hcd.c ****   {
1593:Drivers/STM32F7xx_HAL_Driver/Src/stm32f7xx_hal_hcd.c ****     hprt0_dup |= USB_OTG_HPRT_PENCHNG;
 1060              		.loc 1 1593 5 is_stmt 1 view .LVU299
 1061              		.loc 1 1593 15 is_stmt 0 view .LVU300
 1062 003c 009B     		ldr	r3, [sp]
 1063 003e 43F00803 		orr	r3, r3, #8
 1064 0042 0093     		str	r3, [sp]
1594:Drivers/STM32F7xx_HAL_Driver/Src/stm32f7xx_hal_hcd.c **** 
1595:Drivers/STM32F7xx_HAL_Driver/Src/stm32f7xx_hal_hcd.c ****     if ((hprt0 & USB_OTG_HPRT_PENA) == USB_OTG_HPRT_PENA)
 1065              		.loc 1 1595 5 is_stmt 1 view .LVU301
 1066              		.loc 1 1595 16 is_stmt 0 view .LVU302
 1067 0044 019B     		ldr	r3, [sp, #4]
 1068              		.loc 1 1595 8 view .LVU303
 1069 0046 13F0040F 		tst	r3, #4
 1070 004a 2DD0     		beq	.L67
1596:Drivers/STM32F7xx_HAL_Driver/Src/stm32f7xx_hal_hcd.c ****     {
1597:Drivers/STM32F7xx_HAL_Driver/Src/stm32f7xx_hal_hcd.c ****       if (hhcd->Init.phy_itface  == USB_OTG_EMBEDDED_PHY)
 1071              		.loc 1 1597 7 is_stmt 1 view .LVU304
 1072              		.loc 1 1597 21 is_stmt 0 view .LVU305
 1073 004c A369     		ldr	r3, [r4, #24]
 1074              		.loc 1 1597 10 view .LVU306
 1075 004e 022B     		cmp	r3, #2
 1076 0050 15D0     		beq	.L74
1598:Drivers/STM32F7xx_HAL_Driver/Src/stm32f7xx_hal_hcd.c ****       {
1599:Drivers/STM32F7xx_HAL_Driver/Src/stm32f7xx_hal_hcd.c ****         if ((hprt0 & USB_OTG_HPRT_PSPD) == (HPRT0_PRTSPD_LOW_SPEED << 17))
1600:Drivers/STM32F7xx_HAL_Driver/Src/stm32f7xx_hal_hcd.c ****         {
1601:Drivers/STM32F7xx_HAL_Driver/Src/stm32f7xx_hal_hcd.c ****           (void)USB_InitFSLSPClkSel(hhcd->Instance, HCFG_6_MHZ);
1602:Drivers/STM32F7xx_HAL_Driver/Src/stm32f7xx_hal_hcd.c ****         }
1603:Drivers/STM32F7xx_HAL_Driver/Src/stm32f7xx_hal_hcd.c ****         else
1604:Drivers/STM32F7xx_HAL_Driver/Src/stm32f7xx_hal_hcd.c ****         {
1605:Drivers/STM32F7xx_HAL_Driver/Src/stm32f7xx_hal_hcd.c ****           (void)USB_InitFSLSPClkSel(hhcd->Instance, HCFG_48_MHZ);
1606:Drivers/STM32F7xx_HAL_Driver/Src/stm32f7xx_hal_hcd.c ****         }
ARM GAS  C:\Users\seblo\AppData\Local\Temp\ccHEsOvX.s 			page 52


1607:Drivers/STM32F7xx_HAL_Driver/Src/stm32f7xx_hal_hcd.c ****       }
1608:Drivers/STM32F7xx_HAL_Driver/Src/stm32f7xx_hal_hcd.c ****       else
1609:Drivers/STM32F7xx_HAL_Driver/Src/stm32f7xx_hal_hcd.c ****       {
1610:Drivers/STM32F7xx_HAL_Driver/Src/stm32f7xx_hal_hcd.c ****         if (hhcd->Init.speed == HCD_SPEED_FULL)
 1077              		.loc 1 1610 9 is_stmt 1 view .LVU307
 1078              		.loc 1 1610 23 is_stmt 0 view .LVU308
 1079 0052 E368     		ldr	r3, [r4, #12]
 1080              		.loc 1 1610 12 view .LVU309
 1081 0054 012B     		cmp	r3, #1
 1082 0056 22D0     		beq	.L75
 1083              	.L70:
1611:Drivers/STM32F7xx_HAL_Driver/Src/stm32f7xx_hal_hcd.c ****         {
1612:Drivers/STM32F7xx_HAL_Driver/Src/stm32f7xx_hal_hcd.c ****           USBx_HOST->HFIR = 60000U;
1613:Drivers/STM32F7xx_HAL_Driver/Src/stm32f7xx_hal_hcd.c ****         }
1614:Drivers/STM32F7xx_HAL_Driver/Src/stm32f7xx_hal_hcd.c ****       }
1615:Drivers/STM32F7xx_HAL_Driver/Src/stm32f7xx_hal_hcd.c **** #if (USE_HAL_HCD_REGISTER_CALLBACKS == 1U)
1616:Drivers/STM32F7xx_HAL_Driver/Src/stm32f7xx_hal_hcd.c ****       hhcd->PortEnabledCallback(hhcd);
1617:Drivers/STM32F7xx_HAL_Driver/Src/stm32f7xx_hal_hcd.c **** #else
1618:Drivers/STM32F7xx_HAL_Driver/Src/stm32f7xx_hal_hcd.c ****       HAL_HCD_PortEnabled_Callback(hhcd);
 1084              		.loc 1 1618 7 is_stmt 1 view .LVU310
 1085 0058 2046     		mov	r0, r4
 1086 005a FFF7FEFF 		bl	HAL_HCD_PortEnabled_Callback
 1087              	.LVL79:
 1088              	.L66:
1619:Drivers/STM32F7xx_HAL_Driver/Src/stm32f7xx_hal_hcd.c **** #endif /* USE_HAL_HCD_REGISTER_CALLBACKS */
1620:Drivers/STM32F7xx_HAL_Driver/Src/stm32f7xx_hal_hcd.c **** 
1621:Drivers/STM32F7xx_HAL_Driver/Src/stm32f7xx_hal_hcd.c ****     }
1622:Drivers/STM32F7xx_HAL_Driver/Src/stm32f7xx_hal_hcd.c ****     else
1623:Drivers/STM32F7xx_HAL_Driver/Src/stm32f7xx_hal_hcd.c ****     {
1624:Drivers/STM32F7xx_HAL_Driver/Src/stm32f7xx_hal_hcd.c **** #if (USE_HAL_HCD_REGISTER_CALLBACKS == 1U)
1625:Drivers/STM32F7xx_HAL_Driver/Src/stm32f7xx_hal_hcd.c ****       hhcd->PortDisabledCallback(hhcd);
1626:Drivers/STM32F7xx_HAL_Driver/Src/stm32f7xx_hal_hcd.c **** #else
1627:Drivers/STM32F7xx_HAL_Driver/Src/stm32f7xx_hal_hcd.c ****       HAL_HCD_PortDisabled_Callback(hhcd);
1628:Drivers/STM32F7xx_HAL_Driver/Src/stm32f7xx_hal_hcd.c **** #endif /* USE_HAL_HCD_REGISTER_CALLBACKS */
1629:Drivers/STM32F7xx_HAL_Driver/Src/stm32f7xx_hal_hcd.c ****     }
1630:Drivers/STM32F7xx_HAL_Driver/Src/stm32f7xx_hal_hcd.c ****   }
1631:Drivers/STM32F7xx_HAL_Driver/Src/stm32f7xx_hal_hcd.c **** 
1632:Drivers/STM32F7xx_HAL_Driver/Src/stm32f7xx_hal_hcd.c ****   /* Check for an overcurrent */
1633:Drivers/STM32F7xx_HAL_Driver/Src/stm32f7xx_hal_hcd.c ****   if ((hprt0 & USB_OTG_HPRT_POCCHNG) == USB_OTG_HPRT_POCCHNG)
 1089              		.loc 1 1633 3 view .LVU311
 1090              		.loc 1 1633 14 is_stmt 0 view .LVU312
 1091 005e 019B     		ldr	r3, [sp, #4]
 1092              		.loc 1 1633 6 view .LVU313
 1093 0060 13F0200F 		tst	r3, #32
 1094 0064 03D0     		beq	.L71
1634:Drivers/STM32F7xx_HAL_Driver/Src/stm32f7xx_hal_hcd.c ****   {
1635:Drivers/STM32F7xx_HAL_Driver/Src/stm32f7xx_hal_hcd.c ****     hprt0_dup |= USB_OTG_HPRT_POCCHNG;
 1095              		.loc 1 1635 5 is_stmt 1 view .LVU314
 1096              		.loc 1 1635 15 is_stmt 0 view .LVU315
 1097 0066 009B     		ldr	r3, [sp]
 1098 0068 43F02003 		orr	r3, r3, #32
 1099 006c 0093     		str	r3, [sp]
 1100              	.L71:
1636:Drivers/STM32F7xx_HAL_Driver/Src/stm32f7xx_hal_hcd.c ****   }
1637:Drivers/STM32F7xx_HAL_Driver/Src/stm32f7xx_hal_hcd.c **** 
1638:Drivers/STM32F7xx_HAL_Driver/Src/stm32f7xx_hal_hcd.c ****   /* Clear Port Interrupts */
1639:Drivers/STM32F7xx_HAL_Driver/Src/stm32f7xx_hal_hcd.c ****   USBx_HPRT0 = hprt0_dup;
ARM GAS  C:\Users\seblo\AppData\Local\Temp\ccHEsOvX.s 			page 53


 1101              		.loc 1 1639 3 is_stmt 1 view .LVU316
 1102              		.loc 1 1639 14 is_stmt 0 view .LVU317
 1103 006e 009B     		ldr	r3, [sp]
 1104 0070 C5F84034 		str	r3, [r5, #1088]
1640:Drivers/STM32F7xx_HAL_Driver/Src/stm32f7xx_hal_hcd.c **** }
 1105              		.loc 1 1640 1 view .LVU318
 1106 0074 03B0     		add	sp, sp, #12
 1107              	.LCFI17:
 1108              		.cfi_remember_state
 1109              		.cfi_def_cfa_offset 12
 1110              		@ sp needed
 1111 0076 30BD     		pop	{r4, r5, pc}
 1112              	.LVL80:
 1113              	.L73:
 1114              	.LCFI18:
 1115              		.cfi_restore_state
1584:Drivers/STM32F7xx_HAL_Driver/Src/stm32f7xx_hal_hcd.c **** #endif /* USE_HAL_HCD_REGISTER_CALLBACKS */
 1116              		.loc 1 1584 7 is_stmt 1 view .LVU319
 1117 0078 FFF7FEFF 		bl	HAL_HCD_Connect_Callback
 1118              	.LVL81:
1584:Drivers/STM32F7xx_HAL_Driver/Src/stm32f7xx_hal_hcd.c **** #endif /* USE_HAL_HCD_REGISTER_CALLBACKS */
 1119              		.loc 1 1584 7 is_stmt 0 view .LVU320
 1120 007c D6E7     		b	.L65
 1121              	.L74:
1599:Drivers/STM32F7xx_HAL_Driver/Src/stm32f7xx_hal_hcd.c ****         {
 1122              		.loc 1 1599 9 is_stmt 1 view .LVU321
1599:Drivers/STM32F7xx_HAL_Driver/Src/stm32f7xx_hal_hcd.c ****         {
 1123              		.loc 1 1599 20 is_stmt 0 view .LVU322
 1124 007e 019B     		ldr	r3, [sp, #4]
 1125 0080 03F4C023 		and	r3, r3, #393216
1599:Drivers/STM32F7xx_HAL_Driver/Src/stm32f7xx_hal_hcd.c ****         {
 1126              		.loc 1 1599 12 view .LVU323
 1127 0084 B3F5802F 		cmp	r3, #262144
 1128 0088 04D0     		beq	.L76
1605:Drivers/STM32F7xx_HAL_Driver/Src/stm32f7xx_hal_hcd.c ****         }
 1129              		.loc 1 1605 11 is_stmt 1 view .LVU324
1605:Drivers/STM32F7xx_HAL_Driver/Src/stm32f7xx_hal_hcd.c ****         }
 1130              		.loc 1 1605 17 is_stmt 0 view .LVU325
 1131 008a 0121     		movs	r1, #1
 1132 008c 2068     		ldr	r0, [r4]
 1133 008e FFF7FEFF 		bl	USB_InitFSLSPClkSel
 1134              	.LVL82:
 1135 0092 E1E7     		b	.L70
 1136              	.L76:
1601:Drivers/STM32F7xx_HAL_Driver/Src/stm32f7xx_hal_hcd.c ****         }
 1137              		.loc 1 1601 11 is_stmt 1 view .LVU326
1601:Drivers/STM32F7xx_HAL_Driver/Src/stm32f7xx_hal_hcd.c ****         }
 1138              		.loc 1 1601 17 is_stmt 0 view .LVU327
 1139 0094 0221     		movs	r1, #2
 1140 0096 2068     		ldr	r0, [r4]
 1141 0098 FFF7FEFF 		bl	USB_InitFSLSPClkSel
 1142              	.LVL83:
 1143 009c DCE7     		b	.L70
 1144              	.L75:
1612:Drivers/STM32F7xx_HAL_Driver/Src/stm32f7xx_hal_hcd.c ****         }
 1145              		.loc 1 1612 11 is_stmt 1 view .LVU328
1612:Drivers/STM32F7xx_HAL_Driver/Src/stm32f7xx_hal_hcd.c ****         }
ARM GAS  C:\Users\seblo\AppData\Local\Temp\ccHEsOvX.s 			page 54


 1146              		.loc 1 1612 27 is_stmt 0 view .LVU329
 1147 009e 4EF66022 		movw	r2, #60000
 1148 00a2 C5F80424 		str	r2, [r5, #1028]
 1149 00a6 D7E7     		b	.L70
 1150              	.L67:
1627:Drivers/STM32F7xx_HAL_Driver/Src/stm32f7xx_hal_hcd.c **** #endif /* USE_HAL_HCD_REGISTER_CALLBACKS */
 1151              		.loc 1 1627 7 is_stmt 1 view .LVU330
 1152 00a8 2046     		mov	r0, r4
 1153 00aa FFF7FEFF 		bl	HAL_HCD_PortDisabled_Callback
 1154              	.LVL84:
 1155 00ae D6E7     		b	.L66
 1156              		.cfi_endproc
 1157              	.LFE167:
 1159              		.section	.text.HAL_HCD_HC_NotifyURBChange_Callback,"ax",%progbits
 1160              		.align	1
 1161              		.weak	HAL_HCD_HC_NotifyURBChange_Callback
 1162              		.syntax unified
 1163              		.thumb
 1164              		.thumb_func
 1165              		.fpu fpv5-sp-d16
 1167              	HAL_HCD_HC_NotifyURBChange_Callback:
 1168              	.LVL85:
 1169              	.LFB154:
 693:Drivers/STM32F7xx_HAL_Driver/Src/stm32f7xx_hal_hcd.c ****   /* Prevent unused argument(s) compilation warning */
 1170              		.loc 1 693 1 view -0
 1171              		.cfi_startproc
 1172              		@ args = 0, pretend = 0, frame = 0
 1173              		@ frame_needed = 0, uses_anonymous_args = 0
 1174              		@ link register save eliminated.
 695:Drivers/STM32F7xx_HAL_Driver/Src/stm32f7xx_hal_hcd.c ****   UNUSED(chnum);
 1175              		.loc 1 695 3 view .LVU332
 696:Drivers/STM32F7xx_HAL_Driver/Src/stm32f7xx_hal_hcd.c ****   UNUSED(urb_state);
 1176              		.loc 1 696 3 view .LVU333
 697:Drivers/STM32F7xx_HAL_Driver/Src/stm32f7xx_hal_hcd.c **** 
 1177              		.loc 1 697 3 view .LVU334
 702:Drivers/STM32F7xx_HAL_Driver/Src/stm32f7xx_hal_hcd.c **** 
 1178              		.loc 1 702 1 is_stmt 0 view .LVU335
 1179 0000 7047     		bx	lr
 1180              		.cfi_endproc
 1181              	.LFE154:
 1183              		.section	.text.HCD_HC_IN_IRQHandler,"ax",%progbits
 1184              		.align	1
 1185              		.syntax unified
 1186              		.thumb
 1187              		.thumb_func
 1188              		.fpu fpv5-sp-d16
 1190              	HCD_HC_IN_IRQHandler:
 1191              	.LVL86:
 1192              	.LFB164:
1161:Drivers/STM32F7xx_HAL_Driver/Src/stm32f7xx_hal_hcd.c ****   USB_OTG_GlobalTypeDef *USBx = hhcd->Instance;
 1193              		.loc 1 1161 1 is_stmt 1 view -0
 1194              		.cfi_startproc
 1195              		@ args = 0, pretend = 0, frame = 0
 1196              		@ frame_needed = 0, uses_anonymous_args = 0
1161:Drivers/STM32F7xx_HAL_Driver/Src/stm32f7xx_hal_hcd.c ****   USB_OTG_GlobalTypeDef *USBx = hhcd->Instance;
 1197              		.loc 1 1161 1 is_stmt 0 view .LVU337
 1198 0000 F8B5     		push	{r3, r4, r5, r6, r7, lr}
ARM GAS  C:\Users\seblo\AppData\Local\Temp\ccHEsOvX.s 			page 55


 1199              	.LCFI19:
 1200              		.cfi_def_cfa_offset 24
 1201              		.cfi_offset 3, -24
 1202              		.cfi_offset 4, -20
 1203              		.cfi_offset 5, -16
 1204              		.cfi_offset 6, -12
 1205              		.cfi_offset 7, -8
 1206              		.cfi_offset 14, -4
 1207 0002 0646     		mov	r6, r0
 1208 0004 0C46     		mov	r4, r1
1162:Drivers/STM32F7xx_HAL_Driver/Src/stm32f7xx_hal_hcd.c ****   uint32_t USBx_BASE = (uint32_t)USBx;
 1209              		.loc 1 1162 3 is_stmt 1 view .LVU338
1162:Drivers/STM32F7xx_HAL_Driver/Src/stm32f7xx_hal_hcd.c ****   uint32_t USBx_BASE = (uint32_t)USBx;
 1210              		.loc 1 1162 26 is_stmt 0 view .LVU339
 1211 0006 0768     		ldr	r7, [r0]
 1212              	.LVL87:
1163:Drivers/STM32F7xx_HAL_Driver/Src/stm32f7xx_hal_hcd.c ****   uint32_t ch_num = (uint32_t)chnum;
 1213              		.loc 1 1163 3 is_stmt 1 view .LVU340
1164:Drivers/STM32F7xx_HAL_Driver/Src/stm32f7xx_hal_hcd.c **** 
 1214              		.loc 1 1164 3 view .LVU341
1166:Drivers/STM32F7xx_HAL_Driver/Src/stm32f7xx_hal_hcd.c **** 
 1215              		.loc 1 1166 3 view .LVU342
1168:Drivers/STM32F7xx_HAL_Driver/Src/stm32f7xx_hal_hcd.c ****   {
 1216              		.loc 1 1168 3 view .LVU343
1168:Drivers/STM32F7xx_HAL_Driver/Src/stm32f7xx_hal_hcd.c ****   {
 1217              		.loc 1 1168 8 is_stmt 0 view .LVU344
 1218 0008 07EB4117 		add	r7, r7, r1, lsl #5
 1219              	.LVL88:
1168:Drivers/STM32F7xx_HAL_Driver/Src/stm32f7xx_hal_hcd.c ****   {
 1220              		.loc 1 1168 8 view .LVU345
 1221 000c 07F5A065 		add	r5, r7, #1280
1168:Drivers/STM32F7xx_HAL_Driver/Src/stm32f7xx_hal_hcd.c ****   {
 1222              		.loc 1 1168 23 view .LVU346
 1223 0010 AB68     		ldr	r3, [r5, #8]
1168:Drivers/STM32F7xx_HAL_Driver/Src/stm32f7xx_hal_hcd.c ****   {
 1224              		.loc 1 1168 6 view .LVU347
 1225 0012 13F0040F 		tst	r3, #4
 1226 0016 39D0     		beq	.L79
1170:Drivers/STM32F7xx_HAL_Driver/Src/stm32f7xx_hal_hcd.c ****     __HAL_HCD_UNMASK_HALT_HC_INT(ch_num);
 1227              		.loc 1 1170 5 is_stmt 1 view .LVU348
 1228 0018 0423     		movs	r3, #4
 1229 001a AB60     		str	r3, [r5, #8]
 1230              	.LVL89:
1171:Drivers/STM32F7xx_HAL_Driver/Src/stm32f7xx_hal_hcd.c ****   }
 1231              		.loc 1 1171 5 view .LVU349
 1232 001c EB68     		ldr	r3, [r5, #12]
 1233 001e 43F00203 		orr	r3, r3, #2
 1234 0022 EB60     		str	r3, [r5, #12]
 1235              	.LVL90:
 1236              	.L80:
1203:Drivers/STM32F7xx_HAL_Driver/Src/stm32f7xx_hal_hcd.c **** 
 1237              		.loc 1 1203 3 view .LVU350
1205:Drivers/STM32F7xx_HAL_Driver/Src/stm32f7xx_hal_hcd.c ****   {
 1238              		.loc 1 1205 3 view .LVU351
1205:Drivers/STM32F7xx_HAL_Driver/Src/stm32f7xx_hal_hcd.c ****   {
 1239              		.loc 1 1205 23 is_stmt 0 view .LVU352
 1240 0024 AB68     		ldr	r3, [r5, #8]
ARM GAS  C:\Users\seblo\AppData\Local\Temp\ccHEsOvX.s 			page 56


1205:Drivers/STM32F7xx_HAL_Driver/Src/stm32f7xx_hal_hcd.c ****   {
 1241              		.loc 1 1205 6 view .LVU353
 1242 0026 13F4007F 		tst	r3, #512
 1243 002a 7BD1     		bne	.L103
1211:Drivers/STM32F7xx_HAL_Driver/Src/stm32f7xx_hal_hcd.c ****   {
 1244              		.loc 1 1211 8 is_stmt 1 view .LVU354
1211:Drivers/STM32F7xx_HAL_Driver/Src/stm32f7xx_hal_hcd.c ****   {
 1245              		.loc 1 1211 28 is_stmt 0 view .LVU355
 1246 002c AB68     		ldr	r3, [r5, #8]
1211:Drivers/STM32F7xx_HAL_Driver/Src/stm32f7xx_hal_hcd.c ****   {
 1247              		.loc 1 1211 11 view .LVU356
 1248 002e 13F0010F 		tst	r3, #1
 1249 0032 00F0B180 		beq	.L86
1213:Drivers/STM32F7xx_HAL_Driver/Src/stm32f7xx_hal_hcd.c ****     {
 1250              		.loc 1 1213 5 is_stmt 1 view .LVU357
1213:Drivers/STM32F7xx_HAL_Driver/Src/stm32f7xx_hal_hcd.c ****     {
 1251              		.loc 1 1213 19 is_stmt 0 view .LVU358
 1252 0036 3369     		ldr	r3, [r6, #16]
1213:Drivers/STM32F7xx_HAL_Driver/Src/stm32f7xx_hal_hcd.c ****     {
 1253              		.loc 1 1213 8 view .LVU359
 1254 0038 4BB1     		cbz	r3, .L87
1215:Drivers/STM32F7xx_HAL_Driver/Src/stm32f7xx_hal_hcd.c ****                                     (USBx_HC(ch_num)->HCTSIZ & USB_OTG_HCTSIZ_XFRSIZ);
 1255              		.loc 1 1215 7 is_stmt 1 view .LVU360
1215:Drivers/STM32F7xx_HAL_Driver/Src/stm32f7xx_hal_hcd.c ****                                     (USBx_HC(ch_num)->HCTSIZ & USB_OTG_HCTSIZ_XFRSIZ);
 1256              		.loc 1 1215 53 is_stmt 0 view .LVU361
 1257 003a 04EB8403 		add	r3, r4, r4, lsl #2
 1258 003e 06EBC303 		add	r3, r6, r3, lsl #3
 1259 0042 9A6C     		ldr	r2, [r3, #72]
1216:Drivers/STM32F7xx_HAL_Driver/Src/stm32f7xx_hal_hcd.c ****     }
 1260              		.loc 1 1216 53 view .LVU362
 1261 0044 2969     		ldr	r1, [r5, #16]
1216:Drivers/STM32F7xx_HAL_Driver/Src/stm32f7xx_hal_hcd.c ****     }
 1262              		.loc 1 1216 62 view .LVU363
 1263 0046 C1F31201 		ubfx	r1, r1, #0, #19
1215:Drivers/STM32F7xx_HAL_Driver/Src/stm32f7xx_hal_hcd.c ****                                     (USBx_HC(ch_num)->HCTSIZ & USB_OTG_HCTSIZ_XFRSIZ);
 1264              		.loc 1 1215 63 view .LVU364
 1265 004a 521A     		subs	r2, r2, r1
1215:Drivers/STM32F7xx_HAL_Driver/Src/stm32f7xx_hal_hcd.c ****                                     (USBx_HC(ch_num)->HCTSIZ & USB_OTG_HCTSIZ_XFRSIZ);
 1266              		.loc 1 1215 35 view .LVU365
 1267 004c DA64     		str	r2, [r3, #76]
 1268              	.L87:
1219:Drivers/STM32F7xx_HAL_Driver/Src/stm32f7xx_hal_hcd.c ****     hhcd->hc[ch_num].ErrCnt = 0U;
 1269              		.loc 1 1219 5 is_stmt 1 view .LVU366
1219:Drivers/STM32F7xx_HAL_Driver/Src/stm32f7xx_hal_hcd.c ****     hhcd->hc[ch_num].ErrCnt = 0U;
 1270              		.loc 1 1219 28 is_stmt 0 view .LVU367
 1271 004e 04EB8403 		add	r3, r4, r4, lsl #2
 1272 0052 06EBC303 		add	r3, r6, r3, lsl #3
 1273 0056 0122     		movs	r2, #1
 1274 0058 83F85D20 		strb	r2, [r3, #93]
1220:Drivers/STM32F7xx_HAL_Driver/Src/stm32f7xx_hal_hcd.c ****     __HAL_HCD_CLEAR_HC_INT(ch_num, USB_OTG_HCINT_XFRC);
 1275              		.loc 1 1220 5 is_stmt 1 view .LVU368
1220:Drivers/STM32F7xx_HAL_Driver/Src/stm32f7xx_hal_hcd.c ****     __HAL_HCD_CLEAR_HC_INT(ch_num, USB_OTG_HCINT_XFRC);
 1276              		.loc 1 1220 29 is_stmt 0 view .LVU369
 1277 005c 0021     		movs	r1, #0
 1278 005e 9965     		str	r1, [r3, #88]
1221:Drivers/STM32F7xx_HAL_Driver/Src/stm32f7xx_hal_hcd.c **** 
 1279              		.loc 1 1221 5 is_stmt 1 view .LVU370
ARM GAS  C:\Users\seblo\AppData\Local\Temp\ccHEsOvX.s 			page 57


 1280 0060 AA60     		str	r2, [r5, #8]
1223:Drivers/STM32F7xx_HAL_Driver/Src/stm32f7xx_hal_hcd.c ****         (hhcd->hc[ch_num].ep_type == EP_TYPE_BULK))
 1281              		.loc 1 1223 5 view .LVU371
1223:Drivers/STM32F7xx_HAL_Driver/Src/stm32f7xx_hal_hcd.c ****         (hhcd->hc[ch_num].ep_type == EP_TYPE_BULK))
 1282              		.loc 1 1223 26 is_stmt 0 view .LVU372
 1283 0062 93F83F30 		ldrb	r3, [r3, #63]	@ zero_extendqisi2
1223:Drivers/STM32F7xx_HAL_Driver/Src/stm32f7xx_hal_hcd.c ****         (hhcd->hc[ch_num].ep_type == EP_TYPE_BULK))
 1284              		.loc 1 1223 8 view .LVU373
 1285 0066 022B     		cmp	r3, #2
 1286 0068 18BF     		it	ne
 1287 006a 8B42     		cmpne	r3, r1
 1288 006c 66D0     		beq	.L104
1230:Drivers/STM32F7xx_HAL_Driver/Src/stm32f7xx_hal_hcd.c ****     {
 1289              		.loc 1 1230 10 is_stmt 1 view .LVU374
1230:Drivers/STM32F7xx_HAL_Driver/Src/stm32f7xx_hal_hcd.c ****     {
 1290              		.loc 1 1230 13 is_stmt 0 view .LVU375
 1291 006e 032B     		cmp	r3, #3
 1292 0070 6FD0     		beq	.L105
1241:Drivers/STM32F7xx_HAL_Driver/Src/stm32f7xx_hal_hcd.c ****     {
 1293              		.loc 1 1241 10 is_stmt 1 view .LVU376
1241:Drivers/STM32F7xx_HAL_Driver/Src/stm32f7xx_hal_hcd.c ****     {
 1294              		.loc 1 1241 13 is_stmt 0 view .LVU377
 1295 0072 012B     		cmp	r3, #1
 1296 0074 7FD0     		beq	.L106
 1297              	.L89:
1255:Drivers/STM32F7xx_HAL_Driver/Src/stm32f7xx_hal_hcd.c ****     hhcd->hc[ch_num].toggle_in ^= 1U;
 1298              		.loc 1 1255 5 is_stmt 1 view .LVU378
1256:Drivers/STM32F7xx_HAL_Driver/Src/stm32f7xx_hal_hcd.c **** 
 1299              		.loc 1 1256 5 view .LVU379
1256:Drivers/STM32F7xx_HAL_Driver/Src/stm32f7xx_hal_hcd.c **** 
 1300              		.loc 1 1256 32 is_stmt 0 view .LVU380
 1301 0076 04EB8403 		add	r3, r4, r4, lsl #2
 1302 007a 06EBC303 		add	r3, r6, r3, lsl #3
 1303 007e 93F85020 		ldrb	r2, [r3, #80]	@ zero_extendqisi2
 1304 0082 82F00102 		eor	r2, r2, #1
 1305 0086 83F85020 		strb	r2, [r3, #80]
 1306              	.L78:
1350:Drivers/STM32F7xx_HAL_Driver/Src/stm32f7xx_hal_hcd.c **** 
 1307              		.loc 1 1350 1 view .LVU381
 1308 008a F8BD     		pop	{r3, r4, r5, r6, r7, pc}
 1309              	.LVL91:
 1310              	.L79:
1173:Drivers/STM32F7xx_HAL_Driver/Src/stm32f7xx_hal_hcd.c ****   {
 1311              		.loc 1 1173 8 is_stmt 1 view .LVU382
1173:Drivers/STM32F7xx_HAL_Driver/Src/stm32f7xx_hal_hcd.c ****   {
 1312              		.loc 1 1173 28 is_stmt 0 view .LVU383
 1313 008c AB68     		ldr	r3, [r5, #8]
1173:Drivers/STM32F7xx_HAL_Driver/Src/stm32f7xx_hal_hcd.c ****   {
 1314              		.loc 1 1173 11 view .LVU384
 1315 008e 13F4807F 		tst	r3, #256
 1316 0092 06D1     		bne	.L107
1180:Drivers/STM32F7xx_HAL_Driver/Src/stm32f7xx_hal_hcd.c ****   {
 1317              		.loc 1 1180 8 is_stmt 1 view .LVU385
1180:Drivers/STM32F7xx_HAL_Driver/Src/stm32f7xx_hal_hcd.c ****   {
 1318              		.loc 1 1180 28 is_stmt 0 view .LVU386
 1319 0094 AB68     		ldr	r3, [r5, #8]
1180:Drivers/STM32F7xx_HAL_Driver/Src/stm32f7xx_hal_hcd.c ****   {
ARM GAS  C:\Users\seblo\AppData\Local\Temp\ccHEsOvX.s 			page 58


 1320              		.loc 1 1180 11 view .LVU387
 1321 0096 13F0200F 		tst	r3, #32
 1322 009a 14D0     		beq	.L82
1182:Drivers/STM32F7xx_HAL_Driver/Src/stm32f7xx_hal_hcd.c ****   }
 1323              		.loc 1 1182 5 is_stmt 1 view .LVU388
 1324 009c 2023     		movs	r3, #32
 1325 009e AB60     		str	r3, [r5, #8]
 1326              	.LVL92:
1182:Drivers/STM32F7xx_HAL_Driver/Src/stm32f7xx_hal_hcd.c ****   }
 1327              		.loc 1 1182 5 is_stmt 0 view .LVU389
 1328 00a0 C0E7     		b	.L80
 1329              	.LVL93:
 1330              	.L107:
1175:Drivers/STM32F7xx_HAL_Driver/Src/stm32f7xx_hal_hcd.c ****     hhcd->hc[ch_num].state = HC_BBLERR;
 1331              		.loc 1 1175 5 is_stmt 1 view .LVU390
 1332 00a2 4FF48073 		mov	r3, #256
 1333 00a6 AB60     		str	r3, [r5, #8]
 1334              	.LVL94:
1176:Drivers/STM32F7xx_HAL_Driver/Src/stm32f7xx_hal_hcd.c ****     __HAL_HCD_UNMASK_HALT_HC_INT(ch_num);
 1335              		.loc 1 1176 5 view .LVU391
1176:Drivers/STM32F7xx_HAL_Driver/Src/stm32f7xx_hal_hcd.c ****     __HAL_HCD_UNMASK_HALT_HC_INT(ch_num);
 1336              		.loc 1 1176 28 is_stmt 0 view .LVU392
 1337 00a8 01EB8103 		add	r3, r1, r1, lsl #2
 1338 00ac 00EBC303 		add	r3, r0, r3, lsl #3
 1339 00b0 0722     		movs	r2, #7
 1340 00b2 83F85D20 		strb	r2, [r3, #93]
1177:Drivers/STM32F7xx_HAL_Driver/Src/stm32f7xx_hal_hcd.c ****     (void)USB_HC_Halt(hhcd->Instance, (uint8_t)ch_num);
 1341              		.loc 1 1177 5 is_stmt 1 view .LVU393
 1342 00b6 EB68     		ldr	r3, [r5, #12]
 1343 00b8 43F00203 		orr	r3, r3, #2
 1344 00bc EB60     		str	r3, [r5, #12]
1178:Drivers/STM32F7xx_HAL_Driver/Src/stm32f7xx_hal_hcd.c ****   }
 1345              		.loc 1 1178 5 view .LVU394
1178:Drivers/STM32F7xx_HAL_Driver/Src/stm32f7xx_hal_hcd.c ****   }
 1346              		.loc 1 1178 11 is_stmt 0 view .LVU395
 1347 00be 0068     		ldr	r0, [r0]
 1348              	.LVL95:
1178:Drivers/STM32F7xx_HAL_Driver/Src/stm32f7xx_hal_hcd.c ****   }
 1349              		.loc 1 1178 11 view .LVU396
 1350 00c0 FFF7FEFF 		bl	USB_HC_Halt
 1351              	.LVL96:
1178:Drivers/STM32F7xx_HAL_Driver/Src/stm32f7xx_hal_hcd.c ****   }
 1352              		.loc 1 1178 11 view .LVU397
 1353 00c4 AEE7     		b	.L80
 1354              	.LVL97:
 1355              	.L82:
1184:Drivers/STM32F7xx_HAL_Driver/Src/stm32f7xx_hal_hcd.c ****   {
 1356              		.loc 1 1184 8 is_stmt 1 view .LVU398
1184:Drivers/STM32F7xx_HAL_Driver/Src/stm32f7xx_hal_hcd.c ****   {
 1357              		.loc 1 1184 28 is_stmt 0 view .LVU399
 1358 00c6 AB68     		ldr	r3, [r5, #8]
1184:Drivers/STM32F7xx_HAL_Driver/Src/stm32f7xx_hal_hcd.c ****   {
 1359              		.loc 1 1184 11 view .LVU400
 1360 00c8 13F0080F 		tst	r3, #8
 1361 00cc 17D1     		bne	.L108
1192:Drivers/STM32F7xx_HAL_Driver/Src/stm32f7xx_hal_hcd.c ****   {
 1362              		.loc 1 1192 8 is_stmt 1 view .LVU401
ARM GAS  C:\Users\seblo\AppData\Local\Temp\ccHEsOvX.s 			page 59


1192:Drivers/STM32F7xx_HAL_Driver/Src/stm32f7xx_hal_hcd.c ****   {
 1363              		.loc 1 1192 28 is_stmt 0 view .LVU402
 1364 00ce AB68     		ldr	r3, [r5, #8]
1192:Drivers/STM32F7xx_HAL_Driver/Src/stm32f7xx_hal_hcd.c ****   {
 1365              		.loc 1 1192 11 view .LVU403
 1366 00d0 13F4806F 		tst	r3, #1024
 1367 00d4 A6D0     		beq	.L80
1194:Drivers/STM32F7xx_HAL_Driver/Src/stm32f7xx_hal_hcd.c ****     (void)USB_HC_Halt(hhcd->Instance, (uint8_t)ch_num);
 1368              		.loc 1 1194 5 is_stmt 1 view .LVU404
 1369 00d6 EB68     		ldr	r3, [r5, #12]
 1370 00d8 43F00203 		orr	r3, r3, #2
 1371 00dc EB60     		str	r3, [r5, #12]
 1372              	.LVL98:
1195:Drivers/STM32F7xx_HAL_Driver/Src/stm32f7xx_hal_hcd.c ****     __HAL_HCD_CLEAR_HC_INT(ch_num, USB_OTG_HCINT_NAK);
 1373              		.loc 1 1195 5 view .LVU405
1195:Drivers/STM32F7xx_HAL_Driver/Src/stm32f7xx_hal_hcd.c ****     __HAL_HCD_CLEAR_HC_INT(ch_num, USB_OTG_HCINT_NAK);
 1374              		.loc 1 1195 11 is_stmt 0 view .LVU406
 1375 00de 0068     		ldr	r0, [r0]
 1376              	.LVL99:
1195:Drivers/STM32F7xx_HAL_Driver/Src/stm32f7xx_hal_hcd.c ****     __HAL_HCD_CLEAR_HC_INT(ch_num, USB_OTG_HCINT_NAK);
 1377              		.loc 1 1195 11 view .LVU407
 1378 00e0 FFF7FEFF 		bl	USB_HC_Halt
 1379              	.LVL100:
1196:Drivers/STM32F7xx_HAL_Driver/Src/stm32f7xx_hal_hcd.c ****     hhcd->hc[ch_num].state = HC_DATATGLERR;
 1380              		.loc 1 1196 5 is_stmt 1 view .LVU408
 1381 00e4 1023     		movs	r3, #16
 1382 00e6 AB60     		str	r3, [r5, #8]
1197:Drivers/STM32F7xx_HAL_Driver/Src/stm32f7xx_hal_hcd.c ****     __HAL_HCD_CLEAR_HC_INT(ch_num, USB_OTG_HCINT_DTERR);
 1383              		.loc 1 1197 5 view .LVU409
1197:Drivers/STM32F7xx_HAL_Driver/Src/stm32f7xx_hal_hcd.c ****     __HAL_HCD_CLEAR_HC_INT(ch_num, USB_OTG_HCINT_DTERR);
 1384              		.loc 1 1197 28 is_stmt 0 view .LVU410
 1385 00e8 04EB8403 		add	r3, r4, r4, lsl #2
 1386 00ec 06EBC303 		add	r3, r6, r3, lsl #3
 1387 00f0 0822     		movs	r2, #8
 1388 00f2 83F85D20 		strb	r2, [r3, #93]
1198:Drivers/STM32F7xx_HAL_Driver/Src/stm32f7xx_hal_hcd.c ****   }
 1389              		.loc 1 1198 5 is_stmt 1 view .LVU411
 1390 00f6 4FF48063 		mov	r3, #1024
 1391 00fa AB60     		str	r3, [r5, #8]
 1392 00fc 92E7     		b	.L80
 1393              	.LVL101:
 1394              	.L108:
1186:Drivers/STM32F7xx_HAL_Driver/Src/stm32f7xx_hal_hcd.c ****     hhcd->hc[ch_num].state = HC_STALL;
 1395              		.loc 1 1186 5 view .LVU412
 1396 00fe EB68     		ldr	r3, [r5, #12]
 1397 0100 43F00203 		orr	r3, r3, #2
 1398 0104 EB60     		str	r3, [r5, #12]
 1399              	.LVL102:
1187:Drivers/STM32F7xx_HAL_Driver/Src/stm32f7xx_hal_hcd.c ****     __HAL_HCD_CLEAR_HC_INT(ch_num, USB_OTG_HCINT_NAK);
 1400              		.loc 1 1187 5 view .LVU413
1187:Drivers/STM32F7xx_HAL_Driver/Src/stm32f7xx_hal_hcd.c ****     __HAL_HCD_CLEAR_HC_INT(ch_num, USB_OTG_HCINT_NAK);
 1401              		.loc 1 1187 28 is_stmt 0 view .LVU414
 1402 0106 01EB8103 		add	r3, r1, r1, lsl #2
 1403 010a 00EBC303 		add	r3, r0, r3, lsl #3
 1404 010e 0522     		movs	r2, #5
 1405 0110 83F85D20 		strb	r2, [r3, #93]
1188:Drivers/STM32F7xx_HAL_Driver/Src/stm32f7xx_hal_hcd.c ****     __HAL_HCD_CLEAR_HC_INT(ch_num, USB_OTG_HCINT_STALL);
ARM GAS  C:\Users\seblo\AppData\Local\Temp\ccHEsOvX.s 			page 60


 1406              		.loc 1 1188 5 is_stmt 1 view .LVU415
 1407 0114 1023     		movs	r3, #16
 1408 0116 AB60     		str	r3, [r5, #8]
1189:Drivers/STM32F7xx_HAL_Driver/Src/stm32f7xx_hal_hcd.c ****     (void)USB_HC_Halt(hhcd->Instance, (uint8_t)ch_num);
 1409              		.loc 1 1189 5 view .LVU416
 1410 0118 0823     		movs	r3, #8
 1411 011a AB60     		str	r3, [r5, #8]
1190:Drivers/STM32F7xx_HAL_Driver/Src/stm32f7xx_hal_hcd.c ****   }
 1412              		.loc 1 1190 5 view .LVU417
1190:Drivers/STM32F7xx_HAL_Driver/Src/stm32f7xx_hal_hcd.c ****   }
 1413              		.loc 1 1190 11 is_stmt 0 view .LVU418
 1414 011c 0068     		ldr	r0, [r0]
 1415              	.LVL103:
1190:Drivers/STM32F7xx_HAL_Driver/Src/stm32f7xx_hal_hcd.c ****   }
 1416              		.loc 1 1190 11 view .LVU419
 1417 011e FFF7FEFF 		bl	USB_HC_Halt
 1418              	.LVL104:
1190:Drivers/STM32F7xx_HAL_Driver/Src/stm32f7xx_hal_hcd.c ****   }
 1419              		.loc 1 1190 11 view .LVU420
 1420 0122 7FE7     		b	.L80
 1421              	.L103:
1207:Drivers/STM32F7xx_HAL_Driver/Src/stm32f7xx_hal_hcd.c ****     (void)USB_HC_Halt(hhcd->Instance, (uint8_t)ch_num);
 1422              		.loc 1 1207 5 is_stmt 1 view .LVU421
 1423 0124 EB68     		ldr	r3, [r5, #12]
 1424 0126 43F00203 		orr	r3, r3, #2
 1425 012a EB60     		str	r3, [r5, #12]
1208:Drivers/STM32F7xx_HAL_Driver/Src/stm32f7xx_hal_hcd.c ****     __HAL_HCD_CLEAR_HC_INT(ch_num, USB_OTG_HCINT_FRMOR);
 1426              		.loc 1 1208 5 view .LVU422
1208:Drivers/STM32F7xx_HAL_Driver/Src/stm32f7xx_hal_hcd.c ****     __HAL_HCD_CLEAR_HC_INT(ch_num, USB_OTG_HCINT_FRMOR);
 1427              		.loc 1 1208 11 is_stmt 0 view .LVU423
 1428 012c 2146     		mov	r1, r4
 1429 012e 3068     		ldr	r0, [r6]
 1430 0130 FFF7FEFF 		bl	USB_HC_Halt
 1431              	.LVL105:
1209:Drivers/STM32F7xx_HAL_Driver/Src/stm32f7xx_hal_hcd.c ****   }
 1432              		.loc 1 1209 5 is_stmt 1 view .LVU424
 1433 0134 4FF40073 		mov	r3, #512
 1434 0138 AB60     		str	r3, [r5, #8]
 1435 013a A6E7     		b	.L78
 1436              	.L104:
1226:Drivers/STM32F7xx_HAL_Driver/Src/stm32f7xx_hal_hcd.c ****       (void)USB_HC_Halt(hhcd->Instance, (uint8_t)ch_num);
 1437              		.loc 1 1226 7 view .LVU425
 1438 013c EB68     		ldr	r3, [r5, #12]
 1439 013e 43F00203 		orr	r3, r3, #2
 1440 0142 EB60     		str	r3, [r5, #12]
1227:Drivers/STM32F7xx_HAL_Driver/Src/stm32f7xx_hal_hcd.c ****       __HAL_HCD_CLEAR_HC_INT(ch_num, USB_OTG_HCINT_NAK);
 1441              		.loc 1 1227 7 view .LVU426
1227:Drivers/STM32F7xx_HAL_Driver/Src/stm32f7xx_hal_hcd.c ****       __HAL_HCD_CLEAR_HC_INT(ch_num, USB_OTG_HCINT_NAK);
 1442              		.loc 1 1227 13 is_stmt 0 view .LVU427
 1443 0144 2146     		mov	r1, r4
 1444 0146 3068     		ldr	r0, [r6]
 1445 0148 FFF7FEFF 		bl	USB_HC_Halt
 1446              	.LVL106:
1228:Drivers/STM32F7xx_HAL_Driver/Src/stm32f7xx_hal_hcd.c ****     }
 1447              		.loc 1 1228 7 is_stmt 1 view .LVU428
 1448 014c 1023     		movs	r3, #16
 1449 014e AB60     		str	r3, [r5, #8]
ARM GAS  C:\Users\seblo\AppData\Local\Temp\ccHEsOvX.s 			page 61


 1450 0150 91E7     		b	.L89
 1451              	.L105:
1232:Drivers/STM32F7xx_HAL_Driver/Src/stm32f7xx_hal_hcd.c ****       hhcd->hc[ch_num].urb_state = URB_DONE;
 1452              		.loc 1 1232 7 view .LVU429
1232:Drivers/STM32F7xx_HAL_Driver/Src/stm32f7xx_hal_hcd.c ****       hhcd->hc[ch_num].urb_state = URB_DONE;
 1453              		.loc 1 1232 31 is_stmt 0 view .LVU430
 1454 0152 D7F80035 		ldr	r3, [r7, #1280]
 1455 0156 43F00053 		orr	r3, r3, #536870912
 1456 015a C7F80035 		str	r3, [r7, #1280]
1233:Drivers/STM32F7xx_HAL_Driver/Src/stm32f7xx_hal_hcd.c **** 
 1457              		.loc 1 1233 7 is_stmt 1 view .LVU431
1233:Drivers/STM32F7xx_HAL_Driver/Src/stm32f7xx_hal_hcd.c **** 
 1458              		.loc 1 1233 34 is_stmt 0 view .LVU432
 1459 015e 04EB8403 		add	r3, r4, r4, lsl #2
 1460 0162 06EBC303 		add	r3, r6, r3, lsl #3
 1461 0166 0122     		movs	r2, #1
 1462 0168 83F85C20 		strb	r2, [r3, #92]
1238:Drivers/STM32F7xx_HAL_Driver/Src/stm32f7xx_hal_hcd.c **** #endif /* USE_HAL_HCD_REGISTER_CALLBACKS */
 1463              		.loc 1 1238 7 is_stmt 1 view .LVU433
 1464 016c 2146     		mov	r1, r4
 1465 016e 3046     		mov	r0, r6
 1466 0170 FFF7FEFF 		bl	HAL_HCD_HC_NotifyURBChange_Callback
 1467              	.LVL107:
 1468 0174 7FE7     		b	.L89
 1469              	.L106:
1243:Drivers/STM32F7xx_HAL_Driver/Src/stm32f7xx_hal_hcd.c ****       hhcd->hc[ch_num].toggle_in ^= 1U;
 1470              		.loc 1 1243 7 view .LVU434
1243:Drivers/STM32F7xx_HAL_Driver/Src/stm32f7xx_hal_hcd.c ****       hhcd->hc[ch_num].toggle_in ^= 1U;
 1471              		.loc 1 1243 34 is_stmt 0 view .LVU435
 1472 0176 04EB8403 		add	r3, r4, r4, lsl #2
 1473 017a 06EBC303 		add	r3, r6, r3, lsl #3
 1474 017e 0122     		movs	r2, #1
 1475 0180 83F85C20 		strb	r2, [r3, #92]
1244:Drivers/STM32F7xx_HAL_Driver/Src/stm32f7xx_hal_hcd.c **** 
 1476              		.loc 1 1244 7 is_stmt 1 view .LVU436
1244:Drivers/STM32F7xx_HAL_Driver/Src/stm32f7xx_hal_hcd.c **** 
 1477              		.loc 1 1244 34 is_stmt 0 view .LVU437
 1478 0184 93F85010 		ldrb	r1, [r3, #80]	@ zero_extendqisi2
 1479 0188 5140     		eors	r1, r1, r2
 1480 018a 83F85010 		strb	r1, [r3, #80]
1249:Drivers/STM32F7xx_HAL_Driver/Src/stm32f7xx_hal_hcd.c **** #endif /* USE_HAL_HCD_REGISTER_CALLBACKS */
 1481              		.loc 1 1249 7 is_stmt 1 view .LVU438
 1482 018e 2146     		mov	r1, r4
 1483 0190 3046     		mov	r0, r6
 1484 0192 FFF7FEFF 		bl	HAL_HCD_HC_NotifyURBChange_Callback
 1485              	.LVL108:
 1486 0196 6EE7     		b	.L89
 1487              	.L86:
1259:Drivers/STM32F7xx_HAL_Driver/Src/stm32f7xx_hal_hcd.c ****   {
 1488              		.loc 1 1259 8 view .LVU439
1259:Drivers/STM32F7xx_HAL_Driver/Src/stm32f7xx_hal_hcd.c ****   {
 1489              		.loc 1 1259 28 is_stmt 0 view .LVU440
 1490 0198 AB68     		ldr	r3, [r5, #8]
1259:Drivers/STM32F7xx_HAL_Driver/Src/stm32f7xx_hal_hcd.c ****   {
 1491              		.loc 1 1259 11 view .LVU441
 1492 019a 13F0020F 		tst	r3, #2
 1493 019e 6CD0     		beq	.L91
ARM GAS  C:\Users\seblo\AppData\Local\Temp\ccHEsOvX.s 			page 62


1261:Drivers/STM32F7xx_HAL_Driver/Src/stm32f7xx_hal_hcd.c **** 
 1494              		.loc 1 1261 5 is_stmt 1 view .LVU442
 1495 01a0 EB68     		ldr	r3, [r5, #12]
 1496 01a2 23F00203 		bic	r3, r3, #2
 1497 01a6 EB60     		str	r3, [r5, #12]
1263:Drivers/STM32F7xx_HAL_Driver/Src/stm32f7xx_hal_hcd.c ****     {
 1498              		.loc 1 1263 5 view .LVU443
1263:Drivers/STM32F7xx_HAL_Driver/Src/stm32f7xx_hal_hcd.c ****     {
 1499              		.loc 1 1263 25 is_stmt 0 view .LVU444
 1500 01a8 04EB8403 		add	r3, r4, r4, lsl #2
 1501 01ac 06EBC303 		add	r3, r6, r3, lsl #3
 1502 01b0 93F85D30 		ldrb	r3, [r3, #93]	@ zero_extendqisi2
1263:Drivers/STM32F7xx_HAL_Driver/Src/stm32f7xx_hal_hcd.c ****     {
 1503              		.loc 1 1263 8 view .LVU445
 1504 01b4 012B     		cmp	r3, #1
 1505 01b6 1DD0     		beq	.L109
1267:Drivers/STM32F7xx_HAL_Driver/Src/stm32f7xx_hal_hcd.c ****     {
 1506              		.loc 1 1267 10 is_stmt 1 view .LVU446
1267:Drivers/STM32F7xx_HAL_Driver/Src/stm32f7xx_hal_hcd.c ****     {
 1507              		.loc 1 1267 13 is_stmt 0 view .LVU447
 1508 01b8 052B     		cmp	r3, #5
 1509 01ba 2FD0     		beq	.L110
1271:Drivers/STM32F7xx_HAL_Driver/Src/stm32f7xx_hal_hcd.c ****              (hhcd->hc[ch_num].state == HC_DATATGLERR))
 1510              		.loc 1 1271 10 is_stmt 1 view .LVU448
1271:Drivers/STM32F7xx_HAL_Driver/Src/stm32f7xx_hal_hcd.c ****              (hhcd->hc[ch_num].state == HC_DATATGLERR))
 1511              		.loc 1 1271 13 is_stmt 0 view .LVU449
 1512 01bc 082B     		cmp	r3, #8
 1513 01be 18BF     		it	ne
 1514 01c0 062B     		cmpne	r3, #6
 1515 01c2 3BD1     		bne	.L95
1274:Drivers/STM32F7xx_HAL_Driver/Src/stm32f7xx_hal_hcd.c ****       if (hhcd->hc[ch_num].ErrCnt > 3U)
 1516              		.loc 1 1274 7 is_stmt 1 view .LVU450
1274:Drivers/STM32F7xx_HAL_Driver/Src/stm32f7xx_hal_hcd.c ****       if (hhcd->hc[ch_num].ErrCnt > 3U)
 1517              		.loc 1 1274 23 is_stmt 0 view .LVU451
 1518 01c4 04EB8402 		add	r2, r4, r4, lsl #2
 1519 01c8 06EBC202 		add	r2, r6, r2, lsl #3
 1520 01cc 936D     		ldr	r3, [r2, #88]
1274:Drivers/STM32F7xx_HAL_Driver/Src/stm32f7xx_hal_hcd.c ****       if (hhcd->hc[ch_num].ErrCnt > 3U)
 1521              		.loc 1 1274 30 view .LVU452
 1522 01ce 0133     		adds	r3, r3, #1
 1523 01d0 9365     		str	r3, [r2, #88]
1275:Drivers/STM32F7xx_HAL_Driver/Src/stm32f7xx_hal_hcd.c ****       {
 1524              		.loc 1 1275 7 is_stmt 1 view .LVU453
1275:Drivers/STM32F7xx_HAL_Driver/Src/stm32f7xx_hal_hcd.c ****       {
 1525              		.loc 1 1275 10 is_stmt 0 view .LVU454
 1526 01d2 032B     		cmp	r3, #3
 1527 01d4 2AD9     		bls	.L96
1277:Drivers/STM32F7xx_HAL_Driver/Src/stm32f7xx_hal_hcd.c ****         hhcd->hc[ch_num].urb_state = URB_ERROR;
 1528              		.loc 1 1277 9 is_stmt 1 view .LVU455
1277:Drivers/STM32F7xx_HAL_Driver/Src/stm32f7xx_hal_hcd.c ****         hhcd->hc[ch_num].urb_state = URB_ERROR;
 1529              		.loc 1 1277 33 is_stmt 0 view .LVU456
 1530 01d6 1346     		mov	r3, r2
 1531 01d8 0022     		movs	r2, #0
 1532 01da 9A65     		str	r2, [r3, #88]
1278:Drivers/STM32F7xx_HAL_Driver/Src/stm32f7xx_hal_hcd.c ****       }
 1533              		.loc 1 1278 9 is_stmt 1 view .LVU457
1278:Drivers/STM32F7xx_HAL_Driver/Src/stm32f7xx_hal_hcd.c ****       }
ARM GAS  C:\Users\seblo\AppData\Local\Temp\ccHEsOvX.s 			page 63


 1534              		.loc 1 1278 36 is_stmt 0 view .LVU458
 1535 01dc 0422     		movs	r2, #4
 1536 01de 83F85C20 		strb	r2, [r3, #92]
 1537              	.L97:
1286:Drivers/STM32F7xx_HAL_Driver/Src/stm32f7xx_hal_hcd.c ****       tmpreg &= ~USB_OTG_HCCHAR_CHDIS;
 1538              		.loc 1 1286 7 is_stmt 1 view .LVU459
1286:Drivers/STM32F7xx_HAL_Driver/Src/stm32f7xx_hal_hcd.c ****       tmpreg &= ~USB_OTG_HCCHAR_CHDIS;
 1539              		.loc 1 1286 14 is_stmt 0 view .LVU460
 1540 01e2 D7F80035 		ldr	r3, [r7, #1280]
 1541              	.LVL109:
1287:Drivers/STM32F7xx_HAL_Driver/Src/stm32f7xx_hal_hcd.c ****       tmpreg |= USB_OTG_HCCHAR_CHENA;
 1542              		.loc 1 1287 7 is_stmt 1 view .LVU461
1287:Drivers/STM32F7xx_HAL_Driver/Src/stm32f7xx_hal_hcd.c ****       tmpreg |= USB_OTG_HCCHAR_CHENA;
 1543              		.loc 1 1287 14 is_stmt 0 view .LVU462
 1544 01e6 23F08043 		bic	r3, r3, #1073741824
 1545              	.LVL110:
1288:Drivers/STM32F7xx_HAL_Driver/Src/stm32f7xx_hal_hcd.c ****       USBx_HC(ch_num)->HCCHAR = tmpreg;
 1546              		.loc 1 1288 7 is_stmt 1 view .LVU463
1288:Drivers/STM32F7xx_HAL_Driver/Src/stm32f7xx_hal_hcd.c ****       USBx_HC(ch_num)->HCCHAR = tmpreg;
 1547              		.loc 1 1288 14 is_stmt 0 view .LVU464
 1548 01ea 43F00043 		orr	r3, r3, #-2147483648
 1549              	.LVL111:
1289:Drivers/STM32F7xx_HAL_Driver/Src/stm32f7xx_hal_hcd.c ****     }
 1550              		.loc 1 1289 7 is_stmt 1 view .LVU465
1289:Drivers/STM32F7xx_HAL_Driver/Src/stm32f7xx_hal_hcd.c ****     }
 1551              		.loc 1 1289 31 is_stmt 0 view .LVU466
 1552 01ee C7F80035 		str	r3, [r7, #1280]
 1553 01f2 06E0     		b	.L93
 1554              	.LVL112:
 1555              	.L109:
1265:Drivers/STM32F7xx_HAL_Driver/Src/stm32f7xx_hal_hcd.c ****     }
 1556              		.loc 1 1265 7 is_stmt 1 view .LVU467
1265:Drivers/STM32F7xx_HAL_Driver/Src/stm32f7xx_hal_hcd.c ****     }
 1557              		.loc 1 1265 35 is_stmt 0 view .LVU468
 1558 01f4 04EB8403 		add	r3, r4, r4, lsl #2
 1559 01f8 06EBC303 		add	r3, r6, r3, lsl #3
 1560 01fc 0122     		movs	r2, #1
 1561 01fe 83F85C20 		strb	r2, [r3, #92]
 1562              	.L93:
1308:Drivers/STM32F7xx_HAL_Driver/Src/stm32f7xx_hal_hcd.c ****     __HAL_HCD_CLEAR_HC_INT(ch_num, USB_OTG_HCINT_CHH);
 1563              		.loc 1 1308 5 is_stmt 1 view .LVU469
1309:Drivers/STM32F7xx_HAL_Driver/Src/stm32f7xx_hal_hcd.c ****     HAL_HCD_HC_NotifyURBChange_Callback(hhcd, (uint8_t)ch_num, hhcd->hc[ch_num].urb_state);
 1564              		.loc 1 1309 5 view .LVU470
 1565 0202 0223     		movs	r3, #2
 1566 0204 AB60     		str	r3, [r5, #8]
1310:Drivers/STM32F7xx_HAL_Driver/Src/stm32f7xx_hal_hcd.c ****   }
 1567              		.loc 1 1310 5 view .LVU471
 1568 0206 04EB8403 		add	r3, r4, r4, lsl #2
 1569 020a 06EBC303 		add	r3, r6, r3, lsl #3
 1570 020e 93F85C20 		ldrb	r2, [r3, #92]	@ zero_extendqisi2
 1571 0212 2146     		mov	r1, r4
 1572 0214 3046     		mov	r0, r6
 1573 0216 FFF7FEFF 		bl	HAL_HCD_HC_NotifyURBChange_Callback
 1574              	.LVL113:
 1575 021a 36E7     		b	.L78
 1576              	.L110:
1269:Drivers/STM32F7xx_HAL_Driver/Src/stm32f7xx_hal_hcd.c ****     }
ARM GAS  C:\Users\seblo\AppData\Local\Temp\ccHEsOvX.s 			page 64


 1577              		.loc 1 1269 7 view .LVU472
1269:Drivers/STM32F7xx_HAL_Driver/Src/stm32f7xx_hal_hcd.c ****     }
 1578              		.loc 1 1269 35 is_stmt 0 view .LVU473
 1579 021c 04EB8403 		add	r3, r4, r4, lsl #2
 1580 0220 06EBC303 		add	r3, r6, r3, lsl #3
 1581 0224 0522     		movs	r2, #5
 1582 0226 83F85C20 		strb	r2, [r3, #92]
 1583 022a EAE7     		b	.L93
 1584              	.L96:
1282:Drivers/STM32F7xx_HAL_Driver/Src/stm32f7xx_hal_hcd.c ****       }
 1585              		.loc 1 1282 9 is_stmt 1 view .LVU474
1282:Drivers/STM32F7xx_HAL_Driver/Src/stm32f7xx_hal_hcd.c ****       }
 1586              		.loc 1 1282 36 is_stmt 0 view .LVU475
 1587 022c 04EB8403 		add	r3, r4, r4, lsl #2
 1588 0230 06EBC303 		add	r3, r6, r3, lsl #3
 1589 0234 0222     		movs	r2, #2
 1590 0236 83F85C20 		strb	r2, [r3, #92]
 1591 023a D2E7     		b	.L97
 1592              	.L95:
1291:Drivers/STM32F7xx_HAL_Driver/Src/stm32f7xx_hal_hcd.c ****     {
 1593              		.loc 1 1291 10 is_stmt 1 view .LVU476
1291:Drivers/STM32F7xx_HAL_Driver/Src/stm32f7xx_hal_hcd.c ****     {
 1594              		.loc 1 1291 13 is_stmt 0 view .LVU477
 1595 023c 032B     		cmp	r3, #3
 1596 023e 0CD0     		beq	.L111
1300:Drivers/STM32F7xx_HAL_Driver/Src/stm32f7xx_hal_hcd.c ****     {
 1597              		.loc 1 1300 10 is_stmt 1 view .LVU478
1300:Drivers/STM32F7xx_HAL_Driver/Src/stm32f7xx_hal_hcd.c ****     {
 1598              		.loc 1 1300 13 is_stmt 0 view .LVU479
 1599 0240 072B     		cmp	r3, #7
 1600 0242 DED1     		bne	.L93
1302:Drivers/STM32F7xx_HAL_Driver/Src/stm32f7xx_hal_hcd.c ****       hhcd->hc[ch_num].urb_state = URB_ERROR;
 1601              		.loc 1 1302 7 is_stmt 1 view .LVU480
1302:Drivers/STM32F7xx_HAL_Driver/Src/stm32f7xx_hal_hcd.c ****       hhcd->hc[ch_num].urb_state = URB_ERROR;
 1602              		.loc 1 1302 23 is_stmt 0 view .LVU481
 1603 0244 04EB8403 		add	r3, r4, r4, lsl #2
 1604 0248 06EBC303 		add	r3, r6, r3, lsl #3
 1605 024c 9A6D     		ldr	r2, [r3, #88]
1302:Drivers/STM32F7xx_HAL_Driver/Src/stm32f7xx_hal_hcd.c ****       hhcd->hc[ch_num].urb_state = URB_ERROR;
 1606              		.loc 1 1302 30 view .LVU482
 1607 024e 0132     		adds	r2, r2, #1
 1608 0250 9A65     		str	r2, [r3, #88]
1303:Drivers/STM32F7xx_HAL_Driver/Src/stm32f7xx_hal_hcd.c ****     }
 1609              		.loc 1 1303 7 is_stmt 1 view .LVU483
1303:Drivers/STM32F7xx_HAL_Driver/Src/stm32f7xx_hal_hcd.c ****     }
 1610              		.loc 1 1303 34 is_stmt 0 view .LVU484
 1611 0252 0422     		movs	r2, #4
 1612 0254 83F85C20 		strb	r2, [r3, #92]
 1613 0258 D3E7     		b	.L93
 1614              	.L111:
1293:Drivers/STM32F7xx_HAL_Driver/Src/stm32f7xx_hal_hcd.c ****       /* re-activate the channel  */
 1615              		.loc 1 1293 7 is_stmt 1 view .LVU485
1293:Drivers/STM32F7xx_HAL_Driver/Src/stm32f7xx_hal_hcd.c ****       /* re-activate the channel  */
 1616              		.loc 1 1293 35 is_stmt 0 view .LVU486
 1617 025a 04EB8403 		add	r3, r4, r4, lsl #2
 1618 025e 06EBC303 		add	r3, r6, r3, lsl #3
 1619 0262 0222     		movs	r2, #2
ARM GAS  C:\Users\seblo\AppData\Local\Temp\ccHEsOvX.s 			page 65


 1620 0264 83F85C20 		strb	r2, [r3, #92]
1295:Drivers/STM32F7xx_HAL_Driver/Src/stm32f7xx_hal_hcd.c ****       tmpreg &= ~USB_OTG_HCCHAR_CHDIS;
 1621              		.loc 1 1295 7 is_stmt 1 view .LVU487
1295:Drivers/STM32F7xx_HAL_Driver/Src/stm32f7xx_hal_hcd.c ****       tmpreg &= ~USB_OTG_HCCHAR_CHDIS;
 1622              		.loc 1 1295 14 is_stmt 0 view .LVU488
 1623 0268 D7F80035 		ldr	r3, [r7, #1280]
 1624              	.LVL114:
1296:Drivers/STM32F7xx_HAL_Driver/Src/stm32f7xx_hal_hcd.c ****       tmpreg |= USB_OTG_HCCHAR_CHENA;
 1625              		.loc 1 1296 7 is_stmt 1 view .LVU489
1296:Drivers/STM32F7xx_HAL_Driver/Src/stm32f7xx_hal_hcd.c ****       tmpreg |= USB_OTG_HCCHAR_CHENA;
 1626              		.loc 1 1296 14 is_stmt 0 view .LVU490
 1627 026c 23F08043 		bic	r3, r3, #1073741824
 1628              	.LVL115:
1297:Drivers/STM32F7xx_HAL_Driver/Src/stm32f7xx_hal_hcd.c ****       USBx_HC(ch_num)->HCCHAR = tmpreg;
 1629              		.loc 1 1297 7 is_stmt 1 view .LVU491
1297:Drivers/STM32F7xx_HAL_Driver/Src/stm32f7xx_hal_hcd.c ****       USBx_HC(ch_num)->HCCHAR = tmpreg;
 1630              		.loc 1 1297 14 is_stmt 0 view .LVU492
 1631 0270 43F00043 		orr	r3, r3, #-2147483648
 1632              	.LVL116:
1298:Drivers/STM32F7xx_HAL_Driver/Src/stm32f7xx_hal_hcd.c ****     }
 1633              		.loc 1 1298 7 is_stmt 1 view .LVU493
1298:Drivers/STM32F7xx_HAL_Driver/Src/stm32f7xx_hal_hcd.c ****     }
 1634              		.loc 1 1298 31 is_stmt 0 view .LVU494
 1635 0274 C7F80035 		str	r3, [r7, #1280]
 1636 0278 C3E7     		b	.L93
 1637              	.LVL117:
 1638              	.L91:
1312:Drivers/STM32F7xx_HAL_Driver/Src/stm32f7xx_hal_hcd.c ****   {
 1639              		.loc 1 1312 8 is_stmt 1 view .LVU495
1312:Drivers/STM32F7xx_HAL_Driver/Src/stm32f7xx_hal_hcd.c ****   {
 1640              		.loc 1 1312 28 is_stmt 0 view .LVU496
 1641 027a AB68     		ldr	r3, [r5, #8]
1312:Drivers/STM32F7xx_HAL_Driver/Src/stm32f7xx_hal_hcd.c ****   {
 1642              		.loc 1 1312 11 view .LVU497
 1643 027c 13F0800F 		tst	r3, #128
 1644 0280 1BD1     		bne	.L112
1320:Drivers/STM32F7xx_HAL_Driver/Src/stm32f7xx_hal_hcd.c ****   {
 1645              		.loc 1 1320 8 is_stmt 1 view .LVU498
1320:Drivers/STM32F7xx_HAL_Driver/Src/stm32f7xx_hal_hcd.c ****   {
 1646              		.loc 1 1320 28 is_stmt 0 view .LVU499
 1647 0282 AB68     		ldr	r3, [r5, #8]
1320:Drivers/STM32F7xx_HAL_Driver/Src/stm32f7xx_hal_hcd.c ****   {
 1648              		.loc 1 1320 11 view .LVU500
 1649 0284 13F0100F 		tst	r3, #16
 1650 0288 3FF4FFAE 		beq	.L78
1322:Drivers/STM32F7xx_HAL_Driver/Src/stm32f7xx_hal_hcd.c ****     {
 1651              		.loc 1 1322 5 is_stmt 1 view .LVU501
1322:Drivers/STM32F7xx_HAL_Driver/Src/stm32f7xx_hal_hcd.c ****     {
 1652              		.loc 1 1322 25 is_stmt 0 view .LVU502
 1653 028c 04EB8403 		add	r3, r4, r4, lsl #2
 1654 0290 06EBC303 		add	r3, r6, r3, lsl #3
 1655 0294 93F83F30 		ldrb	r3, [r3, #63]	@ zero_extendqisi2
1322:Drivers/STM32F7xx_HAL_Driver/Src/stm32f7xx_hal_hcd.c ****     {
 1656              		.loc 1 1322 8 view .LVU503
 1657 0298 032B     		cmp	r3, #3
 1658 029a 27D0     		beq	.L113
1328:Drivers/STM32F7xx_HAL_Driver/Src/stm32f7xx_hal_hcd.c ****              (hhcd->hc[ch_num].ep_type == EP_TYPE_BULK))
ARM GAS  C:\Users\seblo\AppData\Local\Temp\ccHEsOvX.s 			page 66


 1659              		.loc 1 1328 10 is_stmt 1 view .LVU504
1328:Drivers/STM32F7xx_HAL_Driver/Src/stm32f7xx_hal_hcd.c ****              (hhcd->hc[ch_num].ep_type == EP_TYPE_BULK))
 1660              		.loc 1 1328 13 is_stmt 0 view .LVU505
 1661 029c 022B     		cmp	r3, #2
 1662 029e 18BF     		it	ne
 1663 02a0 002B     		cmpne	r3, #0
 1664 02a2 07D1     		bne	.L101
1331:Drivers/STM32F7xx_HAL_Driver/Src/stm32f7xx_hal_hcd.c **** 
 1665              		.loc 1 1331 7 is_stmt 1 view .LVU506
1331:Drivers/STM32F7xx_HAL_Driver/Src/stm32f7xx_hal_hcd.c **** 
 1666              		.loc 1 1331 31 is_stmt 0 view .LVU507
 1667 02a4 04EB8403 		add	r3, r4, r4, lsl #2
 1668 02a8 06EBC303 		add	r3, r6, r3, lsl #3
 1669 02ac 0022     		movs	r2, #0
 1670 02ae 9A65     		str	r2, [r3, #88]
1333:Drivers/STM32F7xx_HAL_Driver/Src/stm32f7xx_hal_hcd.c ****       {
 1671              		.loc 1 1333 7 is_stmt 1 view .LVU508
1333:Drivers/STM32F7xx_HAL_Driver/Src/stm32f7xx_hal_hcd.c ****       {
 1672              		.loc 1 1333 21 is_stmt 0 view .LVU509
 1673 02b0 3369     		ldr	r3, [r6, #16]
1333:Drivers/STM32F7xx_HAL_Driver/Src/stm32f7xx_hal_hcd.c ****       {
 1674              		.loc 1 1333 10 view .LVU510
 1675 02b2 53B3     		cbz	r3, .L114
 1676              	.L101:
1343:Drivers/STM32F7xx_HAL_Driver/Src/stm32f7xx_hal_hcd.c ****     __HAL_HCD_CLEAR_HC_INT(ch_num, USB_OTG_HCINT_NAK);
 1677              		.loc 1 1343 5 is_stmt 1 view .LVU511
1344:Drivers/STM32F7xx_HAL_Driver/Src/stm32f7xx_hal_hcd.c ****   }
 1678              		.loc 1 1344 5 view .LVU512
 1679 02b4 1023     		movs	r3, #16
 1680 02b6 AB60     		str	r3, [r5, #8]
1349:Drivers/STM32F7xx_HAL_Driver/Src/stm32f7xx_hal_hcd.c **** }
 1681              		.loc 1 1349 3 view .LVU513
1350:Drivers/STM32F7xx_HAL_Driver/Src/stm32f7xx_hal_hcd.c **** 
 1682              		.loc 1 1350 1 is_stmt 0 view .LVU514
 1683 02b8 E7E6     		b	.L78
 1684              	.L112:
1314:Drivers/STM32F7xx_HAL_Driver/Src/stm32f7xx_hal_hcd.c ****     hhcd->hc[ch_num].ErrCnt++;
 1685              		.loc 1 1314 5 is_stmt 1 view .LVU515
 1686 02ba EB68     		ldr	r3, [r5, #12]
 1687 02bc 43F00203 		orr	r3, r3, #2
 1688 02c0 EB60     		str	r3, [r5, #12]
1315:Drivers/STM32F7xx_HAL_Driver/Src/stm32f7xx_hal_hcd.c ****     hhcd->hc[ch_num].state = HC_XACTERR;
 1689              		.loc 1 1315 5 view .LVU516
1315:Drivers/STM32F7xx_HAL_Driver/Src/stm32f7xx_hal_hcd.c ****     hhcd->hc[ch_num].state = HC_XACTERR;
 1690              		.loc 1 1315 21 is_stmt 0 view .LVU517
 1691 02c2 04EB8403 		add	r3, r4, r4, lsl #2
 1692 02c6 06EBC303 		add	r3, r6, r3, lsl #3
 1693 02ca 9A6D     		ldr	r2, [r3, #88]
1315:Drivers/STM32F7xx_HAL_Driver/Src/stm32f7xx_hal_hcd.c ****     hhcd->hc[ch_num].state = HC_XACTERR;
 1694              		.loc 1 1315 28 view .LVU518
 1695 02cc 0132     		adds	r2, r2, #1
 1696 02ce 9A65     		str	r2, [r3, #88]
1316:Drivers/STM32F7xx_HAL_Driver/Src/stm32f7xx_hal_hcd.c ****     (void)USB_HC_Halt(hhcd->Instance, (uint8_t)ch_num);
 1697              		.loc 1 1316 5 is_stmt 1 view .LVU519
1316:Drivers/STM32F7xx_HAL_Driver/Src/stm32f7xx_hal_hcd.c ****     (void)USB_HC_Halt(hhcd->Instance, (uint8_t)ch_num);
 1698              		.loc 1 1316 28 is_stmt 0 view .LVU520
 1699 02d0 04EB8403 		add	r3, r4, r4, lsl #2
ARM GAS  C:\Users\seblo\AppData\Local\Temp\ccHEsOvX.s 			page 67


 1700 02d4 06EBC303 		add	r3, r6, r3, lsl #3
 1701 02d8 0622     		movs	r2, #6
 1702 02da 83F85D20 		strb	r2, [r3, #93]
1317:Drivers/STM32F7xx_HAL_Driver/Src/stm32f7xx_hal_hcd.c ****     __HAL_HCD_CLEAR_HC_INT(ch_num, USB_OTG_HCINT_TXERR);
 1703              		.loc 1 1317 5 is_stmt 1 view .LVU521
1317:Drivers/STM32F7xx_HAL_Driver/Src/stm32f7xx_hal_hcd.c ****     __HAL_HCD_CLEAR_HC_INT(ch_num, USB_OTG_HCINT_TXERR);
 1704              		.loc 1 1317 11 is_stmt 0 view .LVU522
 1705 02de 2146     		mov	r1, r4
 1706 02e0 3068     		ldr	r0, [r6]
 1707 02e2 FFF7FEFF 		bl	USB_HC_Halt
 1708              	.LVL118:
1318:Drivers/STM32F7xx_HAL_Driver/Src/stm32f7xx_hal_hcd.c ****   }
 1709              		.loc 1 1318 5 is_stmt 1 view .LVU523
 1710 02e6 8023     		movs	r3, #128
 1711 02e8 AB60     		str	r3, [r5, #8]
 1712 02ea CEE6     		b	.L78
 1713              	.L113:
1324:Drivers/STM32F7xx_HAL_Driver/Src/stm32f7xx_hal_hcd.c ****       __HAL_HCD_UNMASK_HALT_HC_INT(ch_num);
 1714              		.loc 1 1324 7 view .LVU524
1324:Drivers/STM32F7xx_HAL_Driver/Src/stm32f7xx_hal_hcd.c ****       __HAL_HCD_UNMASK_HALT_HC_INT(ch_num);
 1715              		.loc 1 1324 31 is_stmt 0 view .LVU525
 1716 02ec 04EB8403 		add	r3, r4, r4, lsl #2
 1717 02f0 06EBC303 		add	r3, r6, r3, lsl #3
 1718 02f4 0022     		movs	r2, #0
 1719 02f6 9A65     		str	r2, [r3, #88]
1325:Drivers/STM32F7xx_HAL_Driver/Src/stm32f7xx_hal_hcd.c ****       (void)USB_HC_Halt(hhcd->Instance, (uint8_t)ch_num);
 1720              		.loc 1 1325 7 is_stmt 1 view .LVU526
 1721 02f8 EB68     		ldr	r3, [r5, #12]
 1722 02fa 43F00203 		orr	r3, r3, #2
 1723 02fe EB60     		str	r3, [r5, #12]
1326:Drivers/STM32F7xx_HAL_Driver/Src/stm32f7xx_hal_hcd.c ****     }
 1724              		.loc 1 1326 7 view .LVU527
1326:Drivers/STM32F7xx_HAL_Driver/Src/stm32f7xx_hal_hcd.c ****     }
 1725              		.loc 1 1326 13 is_stmt 0 view .LVU528
 1726 0300 2146     		mov	r1, r4
 1727 0302 3068     		ldr	r0, [r6]
 1728 0304 FFF7FEFF 		bl	USB_HC_Halt
 1729              	.LVL119:
 1730 0308 D4E7     		b	.L101
 1731              	.L114:
1335:Drivers/STM32F7xx_HAL_Driver/Src/stm32f7xx_hal_hcd.c ****         __HAL_HCD_UNMASK_HALT_HC_INT(ch_num);
 1732              		.loc 1 1335 9 is_stmt 1 view .LVU529
1335:Drivers/STM32F7xx_HAL_Driver/Src/stm32f7xx_hal_hcd.c ****         __HAL_HCD_UNMASK_HALT_HC_INT(ch_num);
 1733              		.loc 1 1335 32 is_stmt 0 view .LVU530
 1734 030a 04EB8403 		add	r3, r4, r4, lsl #2
 1735 030e 06EBC303 		add	r3, r6, r3, lsl #3
 1736 0312 0322     		movs	r2, #3
 1737 0314 83F85D20 		strb	r2, [r3, #93]
1336:Drivers/STM32F7xx_HAL_Driver/Src/stm32f7xx_hal_hcd.c ****         (void)USB_HC_Halt(hhcd->Instance, (uint8_t)ch_num);
 1738              		.loc 1 1336 9 is_stmt 1 view .LVU531
 1739 0318 EB68     		ldr	r3, [r5, #12]
 1740 031a 43F00203 		orr	r3, r3, #2
 1741 031e EB60     		str	r3, [r5, #12]
1337:Drivers/STM32F7xx_HAL_Driver/Src/stm32f7xx_hal_hcd.c ****       }
 1742              		.loc 1 1337 9 view .LVU532
1337:Drivers/STM32F7xx_HAL_Driver/Src/stm32f7xx_hal_hcd.c ****       }
 1743              		.loc 1 1337 15 is_stmt 0 view .LVU533
ARM GAS  C:\Users\seblo\AppData\Local\Temp\ccHEsOvX.s 			page 68


 1744 0320 2146     		mov	r1, r4
 1745 0322 3068     		ldr	r0, [r6]
 1746 0324 FFF7FEFF 		bl	USB_HC_Halt
 1747              	.LVL120:
 1748 0328 C4E7     		b	.L101
 1749              		.cfi_endproc
 1750              	.LFE164:
 1752              		.section	.text.HCD_HC_OUT_IRQHandler,"ax",%progbits
 1753              		.align	1
 1754              		.syntax unified
 1755              		.thumb
 1756              		.thumb_func
 1757              		.fpu fpv5-sp-d16
 1759              	HCD_HC_OUT_IRQHandler:
 1760              	.LVL121:
 1761              	.LFB165:
1360:Drivers/STM32F7xx_HAL_Driver/Src/stm32f7xx_hal_hcd.c ****   USB_OTG_GlobalTypeDef *USBx = hhcd->Instance;
 1762              		.loc 1 1360 1 is_stmt 1 view -0
 1763              		.cfi_startproc
 1764              		@ args = 0, pretend = 0, frame = 0
 1765              		@ frame_needed = 0, uses_anonymous_args = 0
1360:Drivers/STM32F7xx_HAL_Driver/Src/stm32f7xx_hal_hcd.c ****   USB_OTG_GlobalTypeDef *USBx = hhcd->Instance;
 1766              		.loc 1 1360 1 is_stmt 0 view .LVU535
 1767 0000 F8B5     		push	{r3, r4, r5, r6, r7, lr}
 1768              	.LCFI20:
 1769              		.cfi_def_cfa_offset 24
 1770              		.cfi_offset 3, -24
 1771              		.cfi_offset 4, -20
 1772              		.cfi_offset 5, -16
 1773              		.cfi_offset 6, -12
 1774              		.cfi_offset 7, -8
 1775              		.cfi_offset 14, -4
1361:Drivers/STM32F7xx_HAL_Driver/Src/stm32f7xx_hal_hcd.c ****   uint32_t USBx_BASE = (uint32_t)USBx;
 1776              		.loc 1 1361 3 is_stmt 1 view .LVU536
1361:Drivers/STM32F7xx_HAL_Driver/Src/stm32f7xx_hal_hcd.c ****   uint32_t USBx_BASE = (uint32_t)USBx;
 1777              		.loc 1 1361 26 is_stmt 0 view .LVU537
 1778 0002 0368     		ldr	r3, [r0]
 1779              	.LVL122:
1362:Drivers/STM32F7xx_HAL_Driver/Src/stm32f7xx_hal_hcd.c ****   uint32_t ch_num = (uint32_t)chnum;
 1780              		.loc 1 1362 3 is_stmt 1 view .LVU538
1363:Drivers/STM32F7xx_HAL_Driver/Src/stm32f7xx_hal_hcd.c ****   uint32_t tmpreg;
 1781              		.loc 1 1363 3 view .LVU539
1364:Drivers/STM32F7xx_HAL_Driver/Src/stm32f7xx_hal_hcd.c **** 
 1782              		.loc 1 1364 3 view .LVU540
1366:Drivers/STM32F7xx_HAL_Driver/Src/stm32f7xx_hal_hcd.c ****   {
 1783              		.loc 1 1366 3 view .LVU541
1366:Drivers/STM32F7xx_HAL_Driver/Src/stm32f7xx_hal_hcd.c ****   {
 1784              		.loc 1 1366 8 is_stmt 0 view .LVU542
 1785 0004 03EB4113 		add	r3, r3, r1, lsl #5
 1786              	.LVL123:
1366:Drivers/STM32F7xx_HAL_Driver/Src/stm32f7xx_hal_hcd.c ****   {
 1787              		.loc 1 1366 8 view .LVU543
 1788 0008 03F5A065 		add	r5, r3, #1280
1366:Drivers/STM32F7xx_HAL_Driver/Src/stm32f7xx_hal_hcd.c ****   {
 1789              		.loc 1 1366 23 view .LVU544
 1790 000c AA68     		ldr	r2, [r5, #8]
1366:Drivers/STM32F7xx_HAL_Driver/Src/stm32f7xx_hal_hcd.c ****   {
ARM GAS  C:\Users\seblo\AppData\Local\Temp\ccHEsOvX.s 			page 69


 1791              		.loc 1 1366 6 view .LVU545
 1792 000e 12F0040F 		tst	r2, #4
 1793 0012 06D0     		beq	.L116
1368:Drivers/STM32F7xx_HAL_Driver/Src/stm32f7xx_hal_hcd.c ****     __HAL_HCD_UNMASK_HALT_HC_INT(ch_num);
 1794              		.loc 1 1368 5 is_stmt 1 view .LVU546
 1795 0014 0423     		movs	r3, #4
 1796 0016 AB60     		str	r3, [r5, #8]
 1797              	.LVL124:
1369:Drivers/STM32F7xx_HAL_Driver/Src/stm32f7xx_hal_hcd.c ****   }
 1798              		.loc 1 1369 5 view .LVU547
 1799 0018 EB68     		ldr	r3, [r5, #12]
 1800 001a 43F00203 		orr	r3, r3, #2
 1801 001e EB60     		str	r3, [r5, #12]
 1802              	.LVL125:
 1803              	.L115:
1502:Drivers/STM32F7xx_HAL_Driver/Src/stm32f7xx_hal_hcd.c **** 
 1804              		.loc 1 1502 1 is_stmt 0 view .LVU548
 1805 0020 F8BD     		pop	{r3, r4, r5, r6, r7, pc}
 1806              	.LVL126:
 1807              	.L116:
1502:Drivers/STM32F7xx_HAL_Driver/Src/stm32f7xx_hal_hcd.c **** 
 1808              		.loc 1 1502 1 view .LVU549
 1809 0022 0646     		mov	r6, r0
 1810 0024 0C46     		mov	r4, r1
1371:Drivers/STM32F7xx_HAL_Driver/Src/stm32f7xx_hal_hcd.c ****   {
 1811              		.loc 1 1371 8 is_stmt 1 view .LVU550
1371:Drivers/STM32F7xx_HAL_Driver/Src/stm32f7xx_hal_hcd.c ****   {
 1812              		.loc 1 1371 28 is_stmt 0 view .LVU551
 1813 0026 AA68     		ldr	r2, [r5, #8]
1371:Drivers/STM32F7xx_HAL_Driver/Src/stm32f7xx_hal_hcd.c ****   {
 1814              		.loc 1 1371 11 view .LVU552
 1815 0028 12F0200F 		tst	r2, #32
 1816 002c 1ED0     		beq	.L118
1373:Drivers/STM32F7xx_HAL_Driver/Src/stm32f7xx_hal_hcd.c **** 
 1817              		.loc 1 1373 5 is_stmt 1 view .LVU553
 1818 002e 2023     		movs	r3, #32
 1819 0030 AB60     		str	r3, [r5, #8]
 1820              	.LVL127:
1375:Drivers/STM32F7xx_HAL_Driver/Src/stm32f7xx_hal_hcd.c ****     {
 1821              		.loc 1 1375 5 view .LVU554
1375:Drivers/STM32F7xx_HAL_Driver/Src/stm32f7xx_hal_hcd.c ****     {
 1822              		.loc 1 1375 25 is_stmt 0 view .LVU555
 1823 0032 01EB8103 		add	r3, r1, r1, lsl #2
 1824 0036 00EBC303 		add	r3, r0, r3, lsl #3
 1825 003a 93F83D30 		ldrb	r3, [r3, #61]	@ zero_extendqisi2
1375:Drivers/STM32F7xx_HAL_Driver/Src/stm32f7xx_hal_hcd.c ****     {
 1826              		.loc 1 1375 8 view .LVU556
 1827 003e 012B     		cmp	r3, #1
 1828 0040 EED1     		bne	.L115
1377:Drivers/STM32F7xx_HAL_Driver/Src/stm32f7xx_hal_hcd.c ****       hhcd->hc[ch_num].urb_state  = URB_NOTREADY;
 1829              		.loc 1 1377 7 is_stmt 1 view .LVU557
1377:Drivers/STM32F7xx_HAL_Driver/Src/stm32f7xx_hal_hcd.c ****       hhcd->hc[ch_num].urb_state  = URB_NOTREADY;
 1830              		.loc 1 1377 32 is_stmt 0 view .LVU558
 1831 0042 01EB8103 		add	r3, r1, r1, lsl #2
 1832 0046 00EBC303 		add	r3, r0, r3, lsl #3
 1833 004a 0022     		movs	r2, #0
 1834 004c 83F83D20 		strb	r2, [r3, #61]
ARM GAS  C:\Users\seblo\AppData\Local\Temp\ccHEsOvX.s 			page 70


1378:Drivers/STM32F7xx_HAL_Driver/Src/stm32f7xx_hal_hcd.c ****       __HAL_HCD_UNMASK_HALT_HC_INT(ch_num);
 1835              		.loc 1 1378 7 is_stmt 1 view .LVU559
1378:Drivers/STM32F7xx_HAL_Driver/Src/stm32f7xx_hal_hcd.c ****       __HAL_HCD_UNMASK_HALT_HC_INT(ch_num);
 1836              		.loc 1 1378 35 is_stmt 0 view .LVU560
 1837 0050 01EB8103 		add	r3, r1, r1, lsl #2
 1838 0054 00EBC303 		add	r3, r0, r3, lsl #3
 1839 0058 0222     		movs	r2, #2
 1840 005a 83F85C20 		strb	r2, [r3, #92]
1379:Drivers/STM32F7xx_HAL_Driver/Src/stm32f7xx_hal_hcd.c ****       (void)USB_HC_Halt(hhcd->Instance, (uint8_t)ch_num);
 1841              		.loc 1 1379 7 is_stmt 1 view .LVU561
 1842 005e EB68     		ldr	r3, [r5, #12]
 1843 0060 1343     		orrs	r3, r3, r2
 1844 0062 EB60     		str	r3, [r5, #12]
1380:Drivers/STM32F7xx_HAL_Driver/Src/stm32f7xx_hal_hcd.c ****     }
 1845              		.loc 1 1380 7 view .LVU562
1380:Drivers/STM32F7xx_HAL_Driver/Src/stm32f7xx_hal_hcd.c ****     }
 1846              		.loc 1 1380 13 is_stmt 0 view .LVU563
 1847 0064 0068     		ldr	r0, [r0]
 1848              	.LVL128:
1380:Drivers/STM32F7xx_HAL_Driver/Src/stm32f7xx_hal_hcd.c ****     }
 1849              		.loc 1 1380 13 view .LVU564
 1850 0066 FFF7FEFF 		bl	USB_HC_Halt
 1851              	.LVL129:
1380:Drivers/STM32F7xx_HAL_Driver/Src/stm32f7xx_hal_hcd.c ****     }
 1852              		.loc 1 1380 13 view .LVU565
 1853 006a D9E7     		b	.L115
 1854              	.LVL130:
 1855              	.L118:
1383:Drivers/STM32F7xx_HAL_Driver/Src/stm32f7xx_hal_hcd.c ****   {
 1856              		.loc 1 1383 8 is_stmt 1 view .LVU566
1383:Drivers/STM32F7xx_HAL_Driver/Src/stm32f7xx_hal_hcd.c ****   {
 1857              		.loc 1 1383 28 is_stmt 0 view .LVU567
 1858 006c AA68     		ldr	r2, [r5, #8]
1383:Drivers/STM32F7xx_HAL_Driver/Src/stm32f7xx_hal_hcd.c ****   {
 1859              		.loc 1 1383 11 view .LVU568
 1860 006e 12F0400F 		tst	r2, #64
 1861 0072 34D1     		bne	.L135
1392:Drivers/STM32F7xx_HAL_Driver/Src/stm32f7xx_hal_hcd.c ****   {
 1862              		.loc 1 1392 8 is_stmt 1 view .LVU569
1392:Drivers/STM32F7xx_HAL_Driver/Src/stm32f7xx_hal_hcd.c ****   {
 1863              		.loc 1 1392 28 is_stmt 0 view .LVU570
 1864 0074 AA68     		ldr	r2, [r5, #8]
1392:Drivers/STM32F7xx_HAL_Driver/Src/stm32f7xx_hal_hcd.c ****   {
 1865              		.loc 1 1392 11 view .LVU571
 1866 0076 12F4007F 		tst	r2, #512
 1867 007a 4AD1     		bne	.L136
1398:Drivers/STM32F7xx_HAL_Driver/Src/stm32f7xx_hal_hcd.c ****   {
 1868              		.loc 1 1398 8 is_stmt 1 view .LVU572
1398:Drivers/STM32F7xx_HAL_Driver/Src/stm32f7xx_hal_hcd.c ****   {
 1869              		.loc 1 1398 28 is_stmt 0 view .LVU573
 1870 007c AA68     		ldr	r2, [r5, #8]
1398:Drivers/STM32F7xx_HAL_Driver/Src/stm32f7xx_hal_hcd.c ****   {
 1871              		.loc 1 1398 11 view .LVU574
 1872 007e 12F0010F 		tst	r2, #1
 1873 0082 51D1     		bne	.L137
1406:Drivers/STM32F7xx_HAL_Driver/Src/stm32f7xx_hal_hcd.c ****   {
 1874              		.loc 1 1406 8 is_stmt 1 view .LVU575
ARM GAS  C:\Users\seblo\AppData\Local\Temp\ccHEsOvX.s 			page 71


1406:Drivers/STM32F7xx_HAL_Driver/Src/stm32f7xx_hal_hcd.c ****   {
 1875              		.loc 1 1406 28 is_stmt 0 view .LVU576
 1876 0084 AA68     		ldr	r2, [r5, #8]
1406:Drivers/STM32F7xx_HAL_Driver/Src/stm32f7xx_hal_hcd.c ****   {
 1877              		.loc 1 1406 11 view .LVU577
 1878 0086 12F0080F 		tst	r2, #8
 1879 008a 63D1     		bne	.L138
1413:Drivers/STM32F7xx_HAL_Driver/Src/stm32f7xx_hal_hcd.c ****   {
 1880              		.loc 1 1413 8 is_stmt 1 view .LVU578
1413:Drivers/STM32F7xx_HAL_Driver/Src/stm32f7xx_hal_hcd.c ****   {
 1881              		.loc 1 1413 28 is_stmt 0 view .LVU579
 1882 008c AA68     		ldr	r2, [r5, #8]
1413:Drivers/STM32F7xx_HAL_Driver/Src/stm32f7xx_hal_hcd.c ****   {
 1883              		.loc 1 1413 11 view .LVU580
 1884 008e 12F0100F 		tst	r2, #16
 1885 0092 70D0     		beq	.L123
1415:Drivers/STM32F7xx_HAL_Driver/Src/stm32f7xx_hal_hcd.c ****     hhcd->hc[ch_num].state = HC_NAK;
 1886              		.loc 1 1415 5 is_stmt 1 view .LVU581
1415:Drivers/STM32F7xx_HAL_Driver/Src/stm32f7xx_hal_hcd.c ****     hhcd->hc[ch_num].state = HC_NAK;
 1887              		.loc 1 1415 29 is_stmt 0 view .LVU582
 1888 0094 01EB8103 		add	r3, r1, r1, lsl #2
 1889 0098 00EBC303 		add	r3, r0, r3, lsl #3
 1890 009c 0022     		movs	r2, #0
 1891 009e 9A65     		str	r2, [r3, #88]
 1892              	.LVL131:
1416:Drivers/STM32F7xx_HAL_Driver/Src/stm32f7xx_hal_hcd.c **** 
 1893              		.loc 1 1416 5 is_stmt 1 view .LVU583
1416:Drivers/STM32F7xx_HAL_Driver/Src/stm32f7xx_hal_hcd.c **** 
 1894              		.loc 1 1416 28 is_stmt 0 view .LVU584
 1895 00a0 0322     		movs	r2, #3
 1896 00a2 83F85D20 		strb	r2, [r3, #93]
1418:Drivers/STM32F7xx_HAL_Driver/Src/stm32f7xx_hal_hcd.c ****     {
 1897              		.loc 1 1418 5 is_stmt 1 view .LVU585
1418:Drivers/STM32F7xx_HAL_Driver/Src/stm32f7xx_hal_hcd.c ****     {
 1898              		.loc 1 1418 25 is_stmt 0 view .LVU586
 1899 00a6 93F83D30 		ldrb	r3, [r3, #61]	@ zero_extendqisi2
1418:Drivers/STM32F7xx_HAL_Driver/Src/stm32f7xx_hal_hcd.c ****     {
 1900              		.loc 1 1418 8 view .LVU587
 1901 00aa 6BB9     		cbnz	r3, .L124
1420:Drivers/STM32F7xx_HAL_Driver/Src/stm32f7xx_hal_hcd.c ****       {
 1902              		.loc 1 1420 7 is_stmt 1 view .LVU588
1420:Drivers/STM32F7xx_HAL_Driver/Src/stm32f7xx_hal_hcd.c ****       {
 1903              		.loc 1 1420 27 is_stmt 0 view .LVU589
 1904 00ac 01EB8103 		add	r3, r1, r1, lsl #2
 1905 00b0 00EBC303 		add	r3, r0, r3, lsl #3
 1906 00b4 93F83C30 		ldrb	r3, [r3, #60]	@ zero_extendqisi2
1420:Drivers/STM32F7xx_HAL_Driver/Src/stm32f7xx_hal_hcd.c ****       {
 1907              		.loc 1 1420 10 view .LVU590
 1908 00b8 33B9     		cbnz	r3, .L124
1422:Drivers/STM32F7xx_HAL_Driver/Src/stm32f7xx_hal_hcd.c ****       }
 1909              		.loc 1 1422 9 is_stmt 1 view .LVU591
1422:Drivers/STM32F7xx_HAL_Driver/Src/stm32f7xx_hal_hcd.c ****       }
 1910              		.loc 1 1422 34 is_stmt 0 view .LVU592
 1911 00ba 01EB8103 		add	r3, r1, r1, lsl #2
 1912 00be 00EBC303 		add	r3, r0, r3, lsl #3
 1913 00c2 0122     		movs	r2, #1
 1914 00c4 83F83D20 		strb	r2, [r3, #61]
ARM GAS  C:\Users\seblo\AppData\Local\Temp\ccHEsOvX.s 			page 72


 1915              	.L124:
1426:Drivers/STM32F7xx_HAL_Driver/Src/stm32f7xx_hal_hcd.c ****     (void)USB_HC_Halt(hhcd->Instance, (uint8_t)ch_num);
 1916              		.loc 1 1426 5 is_stmt 1 view .LVU593
 1917 00c8 EB68     		ldr	r3, [r5, #12]
 1918 00ca 43F00203 		orr	r3, r3, #2
 1919 00ce EB60     		str	r3, [r5, #12]
1427:Drivers/STM32F7xx_HAL_Driver/Src/stm32f7xx_hal_hcd.c ****     __HAL_HCD_CLEAR_HC_INT(ch_num, USB_OTG_HCINT_NAK);
 1920              		.loc 1 1427 5 view .LVU594
1427:Drivers/STM32F7xx_HAL_Driver/Src/stm32f7xx_hal_hcd.c ****     __HAL_HCD_CLEAR_HC_INT(ch_num, USB_OTG_HCINT_NAK);
 1921              		.loc 1 1427 11 is_stmt 0 view .LVU595
 1922 00d0 2146     		mov	r1, r4
 1923              	.LVL132:
1427:Drivers/STM32F7xx_HAL_Driver/Src/stm32f7xx_hal_hcd.c ****     __HAL_HCD_CLEAR_HC_INT(ch_num, USB_OTG_HCINT_NAK);
 1924              		.loc 1 1427 11 view .LVU596
 1925 00d2 3068     		ldr	r0, [r6]
 1926              	.LVL133:
1427:Drivers/STM32F7xx_HAL_Driver/Src/stm32f7xx_hal_hcd.c ****     __HAL_HCD_CLEAR_HC_INT(ch_num, USB_OTG_HCINT_NAK);
 1927              		.loc 1 1427 11 view .LVU597
 1928 00d4 FFF7FEFF 		bl	USB_HC_Halt
 1929              	.LVL134:
1428:Drivers/STM32F7xx_HAL_Driver/Src/stm32f7xx_hal_hcd.c ****   }
 1930              		.loc 1 1428 5 is_stmt 1 view .LVU598
 1931 00d8 1023     		movs	r3, #16
 1932 00da AB60     		str	r3, [r5, #8]
 1933 00dc A0E7     		b	.L115
 1934              	.LVL135:
 1935              	.L135:
1385:Drivers/STM32F7xx_HAL_Driver/Src/stm32f7xx_hal_hcd.c ****     hhcd->hc[ch_num].do_ping = 1U;
 1936              		.loc 1 1385 5 view .LVU599
1385:Drivers/STM32F7xx_HAL_Driver/Src/stm32f7xx_hal_hcd.c ****     hhcd->hc[ch_num].do_ping = 1U;
 1937              		.loc 1 1385 28 is_stmt 0 view .LVU600
 1938 00de 01EB8103 		add	r3, r1, r1, lsl #2
 1939 00e2 00EBC303 		add	r3, r0, r3, lsl #3
 1940 00e6 0422     		movs	r2, #4
 1941 00e8 83F85D20 		strb	r2, [r3, #93]
 1942              	.LVL136:
1386:Drivers/STM32F7xx_HAL_Driver/Src/stm32f7xx_hal_hcd.c ****     hhcd->hc[ch_num].ErrCnt = 0U;
 1943              		.loc 1 1386 5 is_stmt 1 view .LVU601
1386:Drivers/STM32F7xx_HAL_Driver/Src/stm32f7xx_hal_hcd.c ****     hhcd->hc[ch_num].ErrCnt = 0U;
 1944              		.loc 1 1386 30 is_stmt 0 view .LVU602
 1945 00ec 0122     		movs	r2, #1
 1946 00ee 83F83D20 		strb	r2, [r3, #61]
1387:Drivers/STM32F7xx_HAL_Driver/Src/stm32f7xx_hal_hcd.c ****     __HAL_HCD_UNMASK_HALT_HC_INT(ch_num);
 1947              		.loc 1 1387 5 is_stmt 1 view .LVU603
1387:Drivers/STM32F7xx_HAL_Driver/Src/stm32f7xx_hal_hcd.c ****     __HAL_HCD_UNMASK_HALT_HC_INT(ch_num);
 1948              		.loc 1 1387 29 is_stmt 0 view .LVU604
 1949 00f2 01EB8103 		add	r3, r1, r1, lsl #2
 1950 00f6 00EBC303 		add	r3, r0, r3, lsl #3
 1951 00fa 0022     		movs	r2, #0
 1952 00fc 9A65     		str	r2, [r3, #88]
1388:Drivers/STM32F7xx_HAL_Driver/Src/stm32f7xx_hal_hcd.c ****     (void)USB_HC_Halt(hhcd->Instance, (uint8_t)ch_num);
 1953              		.loc 1 1388 5 is_stmt 1 view .LVU605
 1954 00fe EB68     		ldr	r3, [r5, #12]
 1955 0100 43F00203 		orr	r3, r3, #2
 1956 0104 EB60     		str	r3, [r5, #12]
1389:Drivers/STM32F7xx_HAL_Driver/Src/stm32f7xx_hal_hcd.c ****     __HAL_HCD_CLEAR_HC_INT(ch_num, USB_OTG_HCINT_NYET);
 1957              		.loc 1 1389 5 view .LVU606
ARM GAS  C:\Users\seblo\AppData\Local\Temp\ccHEsOvX.s 			page 73


1389:Drivers/STM32F7xx_HAL_Driver/Src/stm32f7xx_hal_hcd.c ****     __HAL_HCD_CLEAR_HC_INT(ch_num, USB_OTG_HCINT_NYET);
 1958              		.loc 1 1389 11 is_stmt 0 view .LVU607
 1959 0106 0068     		ldr	r0, [r0]
 1960              	.LVL137:
1389:Drivers/STM32F7xx_HAL_Driver/Src/stm32f7xx_hal_hcd.c ****     __HAL_HCD_CLEAR_HC_INT(ch_num, USB_OTG_HCINT_NYET);
 1961              		.loc 1 1389 11 view .LVU608
 1962 0108 FFF7FEFF 		bl	USB_HC_Halt
 1963              	.LVL138:
1390:Drivers/STM32F7xx_HAL_Driver/Src/stm32f7xx_hal_hcd.c ****   }
 1964              		.loc 1 1390 5 is_stmt 1 view .LVU609
 1965 010c 4023     		movs	r3, #64
 1966 010e AB60     		str	r3, [r5, #8]
 1967 0110 86E7     		b	.L115
 1968              	.LVL139:
 1969              	.L136:
1394:Drivers/STM32F7xx_HAL_Driver/Src/stm32f7xx_hal_hcd.c ****     (void)USB_HC_Halt(hhcd->Instance, (uint8_t)ch_num);
 1970              		.loc 1 1394 5 view .LVU610
 1971 0112 EB68     		ldr	r3, [r5, #12]
 1972 0114 43F00203 		orr	r3, r3, #2
 1973 0118 EB60     		str	r3, [r5, #12]
 1974              	.LVL140:
1395:Drivers/STM32F7xx_HAL_Driver/Src/stm32f7xx_hal_hcd.c ****     __HAL_HCD_CLEAR_HC_INT(ch_num, USB_OTG_HCINT_FRMOR);
 1975              		.loc 1 1395 5 view .LVU611
1395:Drivers/STM32F7xx_HAL_Driver/Src/stm32f7xx_hal_hcd.c ****     __HAL_HCD_CLEAR_HC_INT(ch_num, USB_OTG_HCINT_FRMOR);
 1976              		.loc 1 1395 11 is_stmt 0 view .LVU612
 1977 011a 0068     		ldr	r0, [r0]
 1978              	.LVL141:
1395:Drivers/STM32F7xx_HAL_Driver/Src/stm32f7xx_hal_hcd.c ****     __HAL_HCD_CLEAR_HC_INT(ch_num, USB_OTG_HCINT_FRMOR);
 1979              		.loc 1 1395 11 view .LVU613
 1980 011c FFF7FEFF 		bl	USB_HC_Halt
 1981              	.LVL142:
1396:Drivers/STM32F7xx_HAL_Driver/Src/stm32f7xx_hal_hcd.c ****   }
 1982              		.loc 1 1396 5 is_stmt 1 view .LVU614
 1983 0120 4FF40073 		mov	r3, #512
 1984 0124 AB60     		str	r3, [r5, #8]
 1985 0126 7BE7     		b	.L115
 1986              	.LVL143:
 1987              	.L137:
1400:Drivers/STM32F7xx_HAL_Driver/Src/stm32f7xx_hal_hcd.c ****     __HAL_HCD_UNMASK_HALT_HC_INT(ch_num);
 1988              		.loc 1 1400 5 view .LVU615
1400:Drivers/STM32F7xx_HAL_Driver/Src/stm32f7xx_hal_hcd.c ****     __HAL_HCD_UNMASK_HALT_HC_INT(ch_num);
 1989              		.loc 1 1400 29 is_stmt 0 view .LVU616
 1990 0128 8F00     		lsls	r7, r1, #2
 1991 012a 01EB8103 		add	r3, r1, r1, lsl #2
 1992 012e 00EBC303 		add	r3, r0, r3, lsl #3
 1993 0132 0022     		movs	r2, #0
 1994 0134 9A65     		str	r2, [r3, #88]
 1995              	.LVL144:
1401:Drivers/STM32F7xx_HAL_Driver/Src/stm32f7xx_hal_hcd.c ****     (void)USB_HC_Halt(hhcd->Instance, (uint8_t)ch_num);
 1996              		.loc 1 1401 5 is_stmt 1 view .LVU617
 1997 0136 EB68     		ldr	r3, [r5, #12]
 1998 0138 43F00203 		orr	r3, r3, #2
 1999 013c EB60     		str	r3, [r5, #12]
1402:Drivers/STM32F7xx_HAL_Driver/Src/stm32f7xx_hal_hcd.c ****     __HAL_HCD_CLEAR_HC_INT(ch_num, USB_OTG_HCINT_XFRC);
 2000              		.loc 1 1402 5 view .LVU618
1402:Drivers/STM32F7xx_HAL_Driver/Src/stm32f7xx_hal_hcd.c ****     __HAL_HCD_CLEAR_HC_INT(ch_num, USB_OTG_HCINT_XFRC);
 2001              		.loc 1 1402 11 is_stmt 0 view .LVU619
ARM GAS  C:\Users\seblo\AppData\Local\Temp\ccHEsOvX.s 			page 74


 2002 013e 0068     		ldr	r0, [r0]
 2003              	.LVL145:
1402:Drivers/STM32F7xx_HAL_Driver/Src/stm32f7xx_hal_hcd.c ****     __HAL_HCD_CLEAR_HC_INT(ch_num, USB_OTG_HCINT_XFRC);
 2004              		.loc 1 1402 11 view .LVU620
 2005 0140 FFF7FEFF 		bl	USB_HC_Halt
 2006              	.LVL146:
1403:Drivers/STM32F7xx_HAL_Driver/Src/stm32f7xx_hal_hcd.c ****     hhcd->hc[ch_num].state = HC_XFRC;
 2007              		.loc 1 1403 5 is_stmt 1 view .LVU621
 2008 0144 0123     		movs	r3, #1
 2009 0146 AB60     		str	r3, [r5, #8]
1404:Drivers/STM32F7xx_HAL_Driver/Src/stm32f7xx_hal_hcd.c ****   }
 2010              		.loc 1 1404 5 view .LVU622
1404:Drivers/STM32F7xx_HAL_Driver/Src/stm32f7xx_hal_hcd.c ****   }
 2011              		.loc 1 1404 28 is_stmt 0 view .LVU623
 2012 0148 3C44     		add	r4, r4, r7
 2013              	.LVL147:
1404:Drivers/STM32F7xx_HAL_Driver/Src/stm32f7xx_hal_hcd.c ****   }
 2014              		.loc 1 1404 28 view .LVU624
 2015 014a 06EBC406 		add	r6, r6, r4, lsl #3
 2016              	.LVL148:
1404:Drivers/STM32F7xx_HAL_Driver/Src/stm32f7xx_hal_hcd.c ****   }
 2017              		.loc 1 1404 28 view .LVU625
 2018 014e 86F85D30 		strb	r3, [r6, #93]
 2019 0152 65E7     		b	.L115
 2020              	.LVL149:
 2021              	.L138:
1408:Drivers/STM32F7xx_HAL_Driver/Src/stm32f7xx_hal_hcd.c ****     __HAL_HCD_UNMASK_HALT_HC_INT(ch_num);
 2022              		.loc 1 1408 5 is_stmt 1 view .LVU626
 2023 0154 0823     		movs	r3, #8
 2024 0156 AB60     		str	r3, [r5, #8]
 2025              	.LVL150:
1409:Drivers/STM32F7xx_HAL_Driver/Src/stm32f7xx_hal_hcd.c ****     (void)USB_HC_Halt(hhcd->Instance, (uint8_t)ch_num);
 2026              		.loc 1 1409 5 view .LVU627
 2027 0158 EB68     		ldr	r3, [r5, #12]
 2028 015a 43F00203 		orr	r3, r3, #2
 2029 015e EB60     		str	r3, [r5, #12]
1410:Drivers/STM32F7xx_HAL_Driver/Src/stm32f7xx_hal_hcd.c ****     hhcd->hc[ch_num].state = HC_STALL;
 2030              		.loc 1 1410 5 view .LVU628
1410:Drivers/STM32F7xx_HAL_Driver/Src/stm32f7xx_hal_hcd.c ****     hhcd->hc[ch_num].state = HC_STALL;
 2031              		.loc 1 1410 11 is_stmt 0 view .LVU629
 2032 0160 0068     		ldr	r0, [r0]
 2033              	.LVL151:
1410:Drivers/STM32F7xx_HAL_Driver/Src/stm32f7xx_hal_hcd.c ****     hhcd->hc[ch_num].state = HC_STALL;
 2034              		.loc 1 1410 11 view .LVU630
 2035 0162 FFF7FEFF 		bl	USB_HC_Halt
 2036              	.LVL152:
1411:Drivers/STM32F7xx_HAL_Driver/Src/stm32f7xx_hal_hcd.c ****   }
 2037              		.loc 1 1411 5 is_stmt 1 view .LVU631
1411:Drivers/STM32F7xx_HAL_Driver/Src/stm32f7xx_hal_hcd.c ****   }
 2038              		.loc 1 1411 28 is_stmt 0 view .LVU632
 2039 0166 04EB8404 		add	r4, r4, r4, lsl #2
 2040              	.LVL153:
1411:Drivers/STM32F7xx_HAL_Driver/Src/stm32f7xx_hal_hcd.c ****   }
 2041              		.loc 1 1411 28 view .LVU633
 2042 016a 06EBC406 		add	r6, r6, r4, lsl #3
 2043              	.LVL154:
1411:Drivers/STM32F7xx_HAL_Driver/Src/stm32f7xx_hal_hcd.c ****   }
ARM GAS  C:\Users\seblo\AppData\Local\Temp\ccHEsOvX.s 			page 75


 2044              		.loc 1 1411 28 view .LVU634
 2045 016e 0523     		movs	r3, #5
 2046 0170 86F85D30 		strb	r3, [r6, #93]
 2047 0174 54E7     		b	.L115
 2048              	.LVL155:
 2049              	.L123:
1430:Drivers/STM32F7xx_HAL_Driver/Src/stm32f7xx_hal_hcd.c ****   {
 2050              		.loc 1 1430 8 is_stmt 1 view .LVU635
1430:Drivers/STM32F7xx_HAL_Driver/Src/stm32f7xx_hal_hcd.c ****   {
 2051              		.loc 1 1430 28 is_stmt 0 view .LVU636
 2052 0176 AA68     		ldr	r2, [r5, #8]
1430:Drivers/STM32F7xx_HAL_Driver/Src/stm32f7xx_hal_hcd.c ****   {
 2053              		.loc 1 1430 11 view .LVU637
 2054 0178 12F0800F 		tst	r2, #128
 2055 017c 35D1     		bne	.L139
1437:Drivers/STM32F7xx_HAL_Driver/Src/stm32f7xx_hal_hcd.c ****   {
 2056              		.loc 1 1437 8 is_stmt 1 view .LVU638
1437:Drivers/STM32F7xx_HAL_Driver/Src/stm32f7xx_hal_hcd.c ****   {
 2057              		.loc 1 1437 28 is_stmt 0 view .LVU639
 2058 017e AA68     		ldr	r2, [r5, #8]
1437:Drivers/STM32F7xx_HAL_Driver/Src/stm32f7xx_hal_hcd.c ****   {
 2059              		.loc 1 1437 11 view .LVU640
 2060 0180 12F4806F 		tst	r2, #1024
 2061 0184 42D1     		bne	.L140
1445:Drivers/STM32F7xx_HAL_Driver/Src/stm32f7xx_hal_hcd.c ****   {
 2062              		.loc 1 1445 8 is_stmt 1 view .LVU641
1445:Drivers/STM32F7xx_HAL_Driver/Src/stm32f7xx_hal_hcd.c ****   {
 2063              		.loc 1 1445 28 is_stmt 0 view .LVU642
 2064 0186 AA68     		ldr	r2, [r5, #8]
1445:Drivers/STM32F7xx_HAL_Driver/Src/stm32f7xx_hal_hcd.c ****   {
 2065              		.loc 1 1445 11 view .LVU643
 2066 0188 12F0020F 		tst	r2, #2
 2067 018c 3FF448AF 		beq	.L115
1447:Drivers/STM32F7xx_HAL_Driver/Src/stm32f7xx_hal_hcd.c **** 
 2068              		.loc 1 1447 5 is_stmt 1 view .LVU644
 2069 0190 EA68     		ldr	r2, [r5, #12]
 2070 0192 22F00202 		bic	r2, r2, #2
 2071 0196 EA60     		str	r2, [r5, #12]
 2072              	.LVL156:
1449:Drivers/STM32F7xx_HAL_Driver/Src/stm32f7xx_hal_hcd.c ****     {
 2073              		.loc 1 1449 5 view .LVU645
1449:Drivers/STM32F7xx_HAL_Driver/Src/stm32f7xx_hal_hcd.c ****     {
 2074              		.loc 1 1449 25 is_stmt 0 view .LVU646
 2075 0198 01EB8102 		add	r2, r1, r1, lsl #2
 2076 019c 00EBC202 		add	r2, r0, r2, lsl #3
 2077 01a0 92F85D20 		ldrb	r2, [r2, #93]	@ zero_extendqisi2
1449:Drivers/STM32F7xx_HAL_Driver/Src/stm32f7xx_hal_hcd.c ****     {
 2078              		.loc 1 1449 8 view .LVU647
 2079 01a4 012A     		cmp	r2, #1
 2080 01a6 45D0     		beq	.L141
1458:Drivers/STM32F7xx_HAL_Driver/Src/stm32f7xx_hal_hcd.c ****     {
 2081              		.loc 1 1458 10 is_stmt 1 view .LVU648
1458:Drivers/STM32F7xx_HAL_Driver/Src/stm32f7xx_hal_hcd.c ****     {
 2082              		.loc 1 1458 13 is_stmt 0 view .LVU649
 2083 01a8 032A     		cmp	r2, #3
 2084 01aa 59D0     		beq	.L142
1462:Drivers/STM32F7xx_HAL_Driver/Src/stm32f7xx_hal_hcd.c ****     {
ARM GAS  C:\Users\seblo\AppData\Local\Temp\ccHEsOvX.s 			page 76


 2085              		.loc 1 1462 10 is_stmt 1 view .LVU650
1462:Drivers/STM32F7xx_HAL_Driver/Src/stm32f7xx_hal_hcd.c ****     {
 2086              		.loc 1 1462 13 is_stmt 0 view .LVU651
 2087 01ac 042A     		cmp	r2, #4
 2088 01ae 6BD0     		beq	.L143
1466:Drivers/STM32F7xx_HAL_Driver/Src/stm32f7xx_hal_hcd.c ****     {
 2089              		.loc 1 1466 10 is_stmt 1 view .LVU652
1466:Drivers/STM32F7xx_HAL_Driver/Src/stm32f7xx_hal_hcd.c ****     {
 2090              		.loc 1 1466 13 is_stmt 0 view .LVU653
 2091 01b0 052A     		cmp	r2, #5
 2092 01b2 70D0     		beq	.L144
1470:Drivers/STM32F7xx_HAL_Driver/Src/stm32f7xx_hal_hcd.c ****              (hhcd->hc[ch_num].state == HC_DATATGLERR))
 2093              		.loc 1 1470 10 is_stmt 1 view .LVU654
1470:Drivers/STM32F7xx_HAL_Driver/Src/stm32f7xx_hal_hcd.c ****              (hhcd->hc[ch_num].state == HC_DATATGLERR))
 2094              		.loc 1 1470 13 is_stmt 0 view .LVU655
 2095 01b4 082A     		cmp	r2, #8
 2096 01b6 18BF     		it	ne
 2097 01b8 062A     		cmpne	r2, #6
 2098 01ba 58D1     		bne	.L128
1473:Drivers/STM32F7xx_HAL_Driver/Src/stm32f7xx_hal_hcd.c ****       if (hhcd->hc[ch_num].ErrCnt > 3U)
 2099              		.loc 1 1473 7 is_stmt 1 view .LVU656
1473:Drivers/STM32F7xx_HAL_Driver/Src/stm32f7xx_hal_hcd.c ****       if (hhcd->hc[ch_num].ErrCnt > 3U)
 2100              		.loc 1 1473 23 is_stmt 0 view .LVU657
 2101 01bc 2821     		movs	r1, #40
 2102              	.LVL157:
1473:Drivers/STM32F7xx_HAL_Driver/Src/stm32f7xx_hal_hcd.c ****       if (hhcd->hc[ch_num].ErrCnt > 3U)
 2103              		.loc 1 1473 23 view .LVU658
 2104 01be 01FB0401 		mla	r1, r1, r4, r0
 2105 01c2 8A6D     		ldr	r2, [r1, #88]
1473:Drivers/STM32F7xx_HAL_Driver/Src/stm32f7xx_hal_hcd.c ****       if (hhcd->hc[ch_num].ErrCnt > 3U)
 2106              		.loc 1 1473 30 view .LVU659
 2107 01c4 0132     		adds	r2, r2, #1
 2108 01c6 8A65     		str	r2, [r1, #88]
1474:Drivers/STM32F7xx_HAL_Driver/Src/stm32f7xx_hal_hcd.c ****       {
 2109              		.loc 1 1474 7 is_stmt 1 view .LVU660
1474:Drivers/STM32F7xx_HAL_Driver/Src/stm32f7xx_hal_hcd.c ****       {
 2110              		.loc 1 1474 10 is_stmt 0 view .LVU661
 2111 01c8 032A     		cmp	r2, #3
 2112 01ca 6AD9     		bls	.L132
1476:Drivers/STM32F7xx_HAL_Driver/Src/stm32f7xx_hal_hcd.c ****         hhcd->hc[ch_num].urb_state = URB_ERROR;
 2113              		.loc 1 1476 9 is_stmt 1 view .LVU662
1476:Drivers/STM32F7xx_HAL_Driver/Src/stm32f7xx_hal_hcd.c ****         hhcd->hc[ch_num].urb_state = URB_ERROR;
 2114              		.loc 1 1476 33 is_stmt 0 view .LVU663
 2115 01cc 0A46     		mov	r2, r1
 2116 01ce 0021     		movs	r1, #0
 2117 01d0 9165     		str	r1, [r2, #88]
1477:Drivers/STM32F7xx_HAL_Driver/Src/stm32f7xx_hal_hcd.c ****       }
 2118              		.loc 1 1477 9 is_stmt 1 view .LVU664
1477:Drivers/STM32F7xx_HAL_Driver/Src/stm32f7xx_hal_hcd.c ****       }
 2119              		.loc 1 1477 36 is_stmt 0 view .LVU665
 2120 01d2 0421     		movs	r1, #4
 2121 01d4 82F85C10 		strb	r1, [r2, #92]
 2122              	.L133:
1485:Drivers/STM32F7xx_HAL_Driver/Src/stm32f7xx_hal_hcd.c ****       tmpreg &= ~USB_OTG_HCCHAR_CHDIS;
 2123              		.loc 1 1485 7 is_stmt 1 view .LVU666
1485:Drivers/STM32F7xx_HAL_Driver/Src/stm32f7xx_hal_hcd.c ****       tmpreg &= ~USB_OTG_HCCHAR_CHDIS;
 2124              		.loc 1 1485 14 is_stmt 0 view .LVU667
ARM GAS  C:\Users\seblo\AppData\Local\Temp\ccHEsOvX.s 			page 77


 2125 01d8 D3F80025 		ldr	r2, [r3, #1280]
 2126              	.LVL158:
1486:Drivers/STM32F7xx_HAL_Driver/Src/stm32f7xx_hal_hcd.c ****       tmpreg |= USB_OTG_HCCHAR_CHENA;
 2127              		.loc 1 1486 7 is_stmt 1 view .LVU668
1486:Drivers/STM32F7xx_HAL_Driver/Src/stm32f7xx_hal_hcd.c ****       tmpreg |= USB_OTG_HCCHAR_CHENA;
 2128              		.loc 1 1486 14 is_stmt 0 view .LVU669
 2129 01dc 22F08042 		bic	r2, r2, #1073741824
 2130              	.LVL159:
1487:Drivers/STM32F7xx_HAL_Driver/Src/stm32f7xx_hal_hcd.c ****       USBx_HC(ch_num)->HCCHAR = tmpreg;
 2131              		.loc 1 1487 7 is_stmt 1 view .LVU670
1487:Drivers/STM32F7xx_HAL_Driver/Src/stm32f7xx_hal_hcd.c ****       USBx_HC(ch_num)->HCCHAR = tmpreg;
 2132              		.loc 1 1487 14 is_stmt 0 view .LVU671
 2133 01e0 42F00042 		orr	r2, r2, #-2147483648
 2134              	.LVL160:
1488:Drivers/STM32F7xx_HAL_Driver/Src/stm32f7xx_hal_hcd.c ****     }
 2135              		.loc 1 1488 7 is_stmt 1 view .LVU672
1488:Drivers/STM32F7xx_HAL_Driver/Src/stm32f7xx_hal_hcd.c ****     }
 2136              		.loc 1 1488 31 is_stmt 0 view .LVU673
 2137 01e4 C3F80025 		str	r2, [r3, #1280]
 2138 01e8 41E0     		b	.L128
 2139              	.LVL161:
 2140              	.L139:
1432:Drivers/STM32F7xx_HAL_Driver/Src/stm32f7xx_hal_hcd.c ****     (void)USB_HC_Halt(hhcd->Instance, (uint8_t)ch_num);
 2141              		.loc 1 1432 5 is_stmt 1 view .LVU674
 2142 01ea EB68     		ldr	r3, [r5, #12]
 2143 01ec 43F00203 		orr	r3, r3, #2
 2144 01f0 EB60     		str	r3, [r5, #12]
 2145              	.LVL162:
1433:Drivers/STM32F7xx_HAL_Driver/Src/stm32f7xx_hal_hcd.c ****     hhcd->hc[ch_num].state = HC_XACTERR;
 2146              		.loc 1 1433 5 view .LVU675
1433:Drivers/STM32F7xx_HAL_Driver/Src/stm32f7xx_hal_hcd.c ****     hhcd->hc[ch_num].state = HC_XACTERR;
 2147              		.loc 1 1433 11 is_stmt 0 view .LVU676
 2148 01f2 0068     		ldr	r0, [r0]
 2149              	.LVL163:
1433:Drivers/STM32F7xx_HAL_Driver/Src/stm32f7xx_hal_hcd.c ****     hhcd->hc[ch_num].state = HC_XACTERR;
 2150              		.loc 1 1433 11 view .LVU677
 2151 01f4 FFF7FEFF 		bl	USB_HC_Halt
 2152              	.LVL164:
1434:Drivers/STM32F7xx_HAL_Driver/Src/stm32f7xx_hal_hcd.c ****     __HAL_HCD_CLEAR_HC_INT(ch_num, USB_OTG_HCINT_TXERR);
 2153              		.loc 1 1434 5 is_stmt 1 view .LVU678
1434:Drivers/STM32F7xx_HAL_Driver/Src/stm32f7xx_hal_hcd.c ****     __HAL_HCD_CLEAR_HC_INT(ch_num, USB_OTG_HCINT_TXERR);
 2154              		.loc 1 1434 28 is_stmt 0 view .LVU679
 2155 01f8 04EB8404 		add	r4, r4, r4, lsl #2
 2156              	.LVL165:
1434:Drivers/STM32F7xx_HAL_Driver/Src/stm32f7xx_hal_hcd.c ****     __HAL_HCD_CLEAR_HC_INT(ch_num, USB_OTG_HCINT_TXERR);
 2157              		.loc 1 1434 28 view .LVU680
 2158 01fc 06EBC406 		add	r6, r6, r4, lsl #3
 2159              	.LVL166:
1434:Drivers/STM32F7xx_HAL_Driver/Src/stm32f7xx_hal_hcd.c ****     __HAL_HCD_CLEAR_HC_INT(ch_num, USB_OTG_HCINT_TXERR);
 2160              		.loc 1 1434 28 view .LVU681
 2161 0200 0623     		movs	r3, #6
 2162 0202 86F85D30 		strb	r3, [r6, #93]
1435:Drivers/STM32F7xx_HAL_Driver/Src/stm32f7xx_hal_hcd.c ****   }
 2163              		.loc 1 1435 5 is_stmt 1 view .LVU682
 2164 0206 8023     		movs	r3, #128
 2165 0208 AB60     		str	r3, [r5, #8]
 2166 020a 09E7     		b	.L115
ARM GAS  C:\Users\seblo\AppData\Local\Temp\ccHEsOvX.s 			page 78


 2167              	.LVL167:
 2168              	.L140:
1439:Drivers/STM32F7xx_HAL_Driver/Src/stm32f7xx_hal_hcd.c ****     (void)USB_HC_Halt(hhcd->Instance, (uint8_t)ch_num);
 2169              		.loc 1 1439 5 view .LVU683
 2170 020c EB68     		ldr	r3, [r5, #12]
 2171 020e 43F00203 		orr	r3, r3, #2
 2172 0212 EB60     		str	r3, [r5, #12]
 2173              	.LVL168:
1440:Drivers/STM32F7xx_HAL_Driver/Src/stm32f7xx_hal_hcd.c ****     __HAL_HCD_CLEAR_HC_INT(ch_num, USB_OTG_HCINT_NAK);
 2174              		.loc 1 1440 5 view .LVU684
1440:Drivers/STM32F7xx_HAL_Driver/Src/stm32f7xx_hal_hcd.c ****     __HAL_HCD_CLEAR_HC_INT(ch_num, USB_OTG_HCINT_NAK);
 2175              		.loc 1 1440 11 is_stmt 0 view .LVU685
 2176 0214 0068     		ldr	r0, [r0]
 2177              	.LVL169:
1440:Drivers/STM32F7xx_HAL_Driver/Src/stm32f7xx_hal_hcd.c ****     __HAL_HCD_CLEAR_HC_INT(ch_num, USB_OTG_HCINT_NAK);
 2178              		.loc 1 1440 11 view .LVU686
 2179 0216 FFF7FEFF 		bl	USB_HC_Halt
 2180              	.LVL170:
1441:Drivers/STM32F7xx_HAL_Driver/Src/stm32f7xx_hal_hcd.c ****     __HAL_HCD_CLEAR_HC_INT(ch_num, USB_OTG_HCINT_DTERR);
 2181              		.loc 1 1441 5 is_stmt 1 view .LVU687
 2182 021a 1023     		movs	r3, #16
 2183 021c AB60     		str	r3, [r5, #8]
1442:Drivers/STM32F7xx_HAL_Driver/Src/stm32f7xx_hal_hcd.c ****     hhcd->hc[ch_num].state = HC_DATATGLERR;
 2184              		.loc 1 1442 5 view .LVU688
 2185 021e 4FF48063 		mov	r3, #1024
 2186 0222 AB60     		str	r3, [r5, #8]
1443:Drivers/STM32F7xx_HAL_Driver/Src/stm32f7xx_hal_hcd.c ****   }
 2187              		.loc 1 1443 5 view .LVU689
1443:Drivers/STM32F7xx_HAL_Driver/Src/stm32f7xx_hal_hcd.c ****   }
 2188              		.loc 1 1443 28 is_stmt 0 view .LVU690
 2189 0224 04EB8404 		add	r4, r4, r4, lsl #2
 2190              	.LVL171:
1443:Drivers/STM32F7xx_HAL_Driver/Src/stm32f7xx_hal_hcd.c ****   }
 2191              		.loc 1 1443 28 view .LVU691
 2192 0228 06EBC406 		add	r6, r6, r4, lsl #3
 2193              	.LVL172:
1443:Drivers/STM32F7xx_HAL_Driver/Src/stm32f7xx_hal_hcd.c ****   }
 2194              		.loc 1 1443 28 view .LVU692
 2195 022c 0823     		movs	r3, #8
 2196 022e 86F85D30 		strb	r3, [r6, #93]
 2197 0232 F5E6     		b	.L115
 2198              	.LVL173:
 2199              	.L141:
1451:Drivers/STM32F7xx_HAL_Driver/Src/stm32f7xx_hal_hcd.c ****       if ((hhcd->hc[ch_num].ep_type == EP_TYPE_BULK) ||
 2200              		.loc 1 1451 7 is_stmt 1 view .LVU693
1451:Drivers/STM32F7xx_HAL_Driver/Src/stm32f7xx_hal_hcd.c ****       if ((hhcd->hc[ch_num].ep_type == EP_TYPE_BULK) ||
 2201              		.loc 1 1451 35 is_stmt 0 view .LVU694
 2202 0234 01EB8103 		add	r3, r1, r1, lsl #2
 2203 0238 00EBC303 		add	r3, r0, r3, lsl #3
 2204 023c 83F85C20 		strb	r2, [r3, #92]
1452:Drivers/STM32F7xx_HAL_Driver/Src/stm32f7xx_hal_hcd.c ****           (hhcd->hc[ch_num].ep_type == EP_TYPE_INTR))
 2205              		.loc 1 1452 7 is_stmt 1 view .LVU695
1452:Drivers/STM32F7xx_HAL_Driver/Src/stm32f7xx_hal_hcd.c ****           (hhcd->hc[ch_num].ep_type == EP_TYPE_INTR))
 2206              		.loc 1 1452 28 is_stmt 0 view .LVU696
 2207 0240 93F83F30 		ldrb	r3, [r3, #63]	@ zero_extendqisi2
1452:Drivers/STM32F7xx_HAL_Driver/Src/stm32f7xx_hal_hcd.c ****           (hhcd->hc[ch_num].ep_type == EP_TYPE_INTR))
 2208              		.loc 1 1452 54 view .LVU697
ARM GAS  C:\Users\seblo\AppData\Local\Temp\ccHEsOvX.s 			page 79


 2209 0244 023B     		subs	r3, r3, #2
 2210 0246 DBB2     		uxtb	r3, r3
1452:Drivers/STM32F7xx_HAL_Driver/Src/stm32f7xx_hal_hcd.c ****           (hhcd->hc[ch_num].ep_type == EP_TYPE_INTR))
 2211              		.loc 1 1452 10 view .LVU698
 2212 0248 9342     		cmp	r3, r2
 2213 024a 10D8     		bhi	.L128
1455:Drivers/STM32F7xx_HAL_Driver/Src/stm32f7xx_hal_hcd.c ****       }
 2214              		.loc 1 1455 9 is_stmt 1 view .LVU699
1455:Drivers/STM32F7xx_HAL_Driver/Src/stm32f7xx_hal_hcd.c ****       }
 2215              		.loc 1 1455 37 is_stmt 0 view .LVU700
 2216 024c 2823     		movs	r3, #40
 2217 024e 03FB0103 		mla	r3, r3, r1, r0
 2218 0252 93F85120 		ldrb	r2, [r3, #81]	@ zero_extendqisi2
 2219 0256 82F00102 		eor	r2, r2, #1
 2220 025a 83F85120 		strb	r2, [r3, #81]
 2221 025e 06E0     		b	.L128
 2222              	.L142:
1460:Drivers/STM32F7xx_HAL_Driver/Src/stm32f7xx_hal_hcd.c ****     }
 2223              		.loc 1 1460 7 is_stmt 1 view .LVU701
1460:Drivers/STM32F7xx_HAL_Driver/Src/stm32f7xx_hal_hcd.c ****     }
 2224              		.loc 1 1460 34 is_stmt 0 view .LVU702
 2225 0260 01EB8103 		add	r3, r1, r1, lsl #2
 2226 0264 00EBC303 		add	r3, r0, r3, lsl #3
 2227 0268 0222     		movs	r2, #2
 2228 026a 83F85C20 		strb	r2, [r3, #92]
 2229              	.LVL174:
 2230              	.L128:
1493:Drivers/STM32F7xx_HAL_Driver/Src/stm32f7xx_hal_hcd.c **** 
 2231              		.loc 1 1493 5 is_stmt 1 view .LVU703
1495:Drivers/STM32F7xx_HAL_Driver/Src/stm32f7xx_hal_hcd.c ****     HAL_HCD_HC_NotifyURBChange_Callback(hhcd, (uint8_t)ch_num, hhcd->hc[ch_num].urb_state);
 2232              		.loc 1 1495 5 view .LVU704
 2233 026e 0223     		movs	r3, #2
 2234 0270 AB60     		str	r3, [r5, #8]
1496:Drivers/STM32F7xx_HAL_Driver/Src/stm32f7xx_hal_hcd.c ****   }
 2235              		.loc 1 1496 5 view .LVU705
 2236 0272 04EB8403 		add	r3, r4, r4, lsl #2
 2237 0276 06EBC303 		add	r3, r6, r3, lsl #3
 2238 027a 93F85C20 		ldrb	r2, [r3, #92]	@ zero_extendqisi2
 2239 027e 2146     		mov	r1, r4
 2240 0280 3046     		mov	r0, r6
 2241              	.LVL175:
1496:Drivers/STM32F7xx_HAL_Driver/Src/stm32f7xx_hal_hcd.c ****   }
 2242              		.loc 1 1496 5 is_stmt 0 view .LVU706
 2243 0282 FFF7FEFF 		bl	HAL_HCD_HC_NotifyURBChange_Callback
 2244              	.LVL176:
1501:Drivers/STM32F7xx_HAL_Driver/Src/stm32f7xx_hal_hcd.c **** }
 2245              		.loc 1 1501 3 is_stmt 1 view .LVU707
1502:Drivers/STM32F7xx_HAL_Driver/Src/stm32f7xx_hal_hcd.c **** 
 2246              		.loc 1 1502 1 is_stmt 0 view .LVU708
 2247 0286 CBE6     		b	.L115
 2248              	.LVL177:
 2249              	.L143:
1464:Drivers/STM32F7xx_HAL_Driver/Src/stm32f7xx_hal_hcd.c ****     }
 2250              		.loc 1 1464 7 is_stmt 1 view .LVU709
1464:Drivers/STM32F7xx_HAL_Driver/Src/stm32f7xx_hal_hcd.c ****     }
 2251              		.loc 1 1464 35 is_stmt 0 view .LVU710
 2252 0288 2823     		movs	r3, #40
ARM GAS  C:\Users\seblo\AppData\Local\Temp\ccHEsOvX.s 			page 80


 2253 028a 03FB0103 		mla	r3, r3, r1, r0
 2254 028e 0222     		movs	r2, #2
 2255 0290 83F85C20 		strb	r2, [r3, #92]
 2256 0294 EBE7     		b	.L128
 2257              	.L144:
1468:Drivers/STM32F7xx_HAL_Driver/Src/stm32f7xx_hal_hcd.c ****     }
 2258              		.loc 1 1468 7 is_stmt 1 view .LVU711
1468:Drivers/STM32F7xx_HAL_Driver/Src/stm32f7xx_hal_hcd.c ****     }
 2259              		.loc 1 1468 35 is_stmt 0 view .LVU712
 2260 0296 2823     		movs	r3, #40
 2261 0298 03FB0103 		mla	r3, r3, r1, r0
 2262 029c 83F85C20 		strb	r2, [r3, #92]
 2263 02a0 E5E7     		b	.L128
 2264              	.LVL178:
 2265              	.L132:
1481:Drivers/STM32F7xx_HAL_Driver/Src/stm32f7xx_hal_hcd.c ****       }
 2266              		.loc 1 1481 9 is_stmt 1 view .LVU713
1481:Drivers/STM32F7xx_HAL_Driver/Src/stm32f7xx_hal_hcd.c ****       }
 2267              		.loc 1 1481 36 is_stmt 0 view .LVU714
 2268 02a2 2822     		movs	r2, #40
 2269 02a4 02FB0402 		mla	r2, r2, r4, r0
 2270 02a8 0221     		movs	r1, #2
 2271 02aa 82F85C10 		strb	r1, [r2, #92]
 2272 02ae 93E7     		b	.L133
 2273              		.cfi_endproc
 2274              	.LFE165:
 2276              		.section	.text.HAL_HCD_IRQHandler,"ax",%progbits
 2277              		.align	1
 2278              		.global	HAL_HCD_IRQHandler
 2279              		.syntax unified
 2280              		.thumb
 2281              		.thumb_func
 2282              		.fpu fpv5-sp-d16
 2284              	HAL_HCD_IRQHandler:
 2285              	.LVL179:
 2286              	.LFB148:
 495:Drivers/STM32F7xx_HAL_Driver/Src/stm32f7xx_hal_hcd.c ****   USB_OTG_GlobalTypeDef *USBx = hhcd->Instance;
 2287              		.loc 1 495 1 is_stmt 1 view -0
 2288              		.cfi_startproc
 2289              		@ args = 0, pretend = 0, frame = 0
 2290              		@ frame_needed = 0, uses_anonymous_args = 0
 495:Drivers/STM32F7xx_HAL_Driver/Src/stm32f7xx_hal_hcd.c ****   USB_OTG_GlobalTypeDef *USBx = hhcd->Instance;
 2291              		.loc 1 495 1 is_stmt 0 view .LVU716
 2292 0000 F8B5     		push	{r3, r4, r5, r6, r7, lr}
 2293              	.LCFI21:
 2294              		.cfi_def_cfa_offset 24
 2295              		.cfi_offset 3, -24
 2296              		.cfi_offset 4, -20
 2297              		.cfi_offset 5, -16
 2298              		.cfi_offset 6, -12
 2299              		.cfi_offset 7, -8
 2300              		.cfi_offset 14, -4
 2301 0002 0446     		mov	r4, r0
 496:Drivers/STM32F7xx_HAL_Driver/Src/stm32f7xx_hal_hcd.c ****   uint32_t USBx_BASE = (uint32_t)USBx;
 2302              		.loc 1 496 3 is_stmt 1 view .LVU717
 496:Drivers/STM32F7xx_HAL_Driver/Src/stm32f7xx_hal_hcd.c ****   uint32_t USBx_BASE = (uint32_t)USBx;
 2303              		.loc 1 496 26 is_stmt 0 view .LVU718
ARM GAS  C:\Users\seblo\AppData\Local\Temp\ccHEsOvX.s 			page 81


 2304 0004 0568     		ldr	r5, [r0]
 497:Drivers/STM32F7xx_HAL_Driver/Src/stm32f7xx_hal_hcd.c ****   uint32_t i, interrupt;
 2305              		.loc 1 497 3 is_stmt 1 view .LVU719
 2306              	.LVL180:
 498:Drivers/STM32F7xx_HAL_Driver/Src/stm32f7xx_hal_hcd.c **** 
 2307              		.loc 1 498 3 view .LVU720
 501:Drivers/STM32F7xx_HAL_Driver/Src/stm32f7xx_hal_hcd.c ****   {
 2308              		.loc 1 501 3 view .LVU721
 501:Drivers/STM32F7xx_HAL_Driver/Src/stm32f7xx_hal_hcd.c ****   {
 2309              		.loc 1 501 7 is_stmt 0 view .LVU722
 2310 0006 2846     		mov	r0, r5
 2311              	.LVL181:
 501:Drivers/STM32F7xx_HAL_Driver/Src/stm32f7xx_hal_hcd.c ****   {
 2312              		.loc 1 501 7 view .LVU723
 2313 0008 FFF7FEFF 		bl	USB_GetMode
 2314              	.LVL182:
 501:Drivers/STM32F7xx_HAL_Driver/Src/stm32f7xx_hal_hcd.c ****   {
 2315              		.loc 1 501 6 view .LVU724
 2316 000c 0128     		cmp	r0, #1
 2317 000e 00D0     		beq	.L160
 2318              	.L145:
 600:Drivers/STM32F7xx_HAL_Driver/Src/stm32f7xx_hal_hcd.c **** 
 2319              		.loc 1 600 1 view .LVU725
 2320 0010 F8BD     		pop	{r3, r4, r5, r6, r7, pc}
 2321              	.LVL183:
 2322              	.L160:
 504:Drivers/STM32F7xx_HAL_Driver/Src/stm32f7xx_hal_hcd.c ****     {
 2323              		.loc 1 504 5 is_stmt 1 view .LVU726
 504:Drivers/STM32F7xx_HAL_Driver/Src/stm32f7xx_hal_hcd.c ****     {
 2324              		.loc 1 504 9 is_stmt 0 view .LVU727
 2325 0012 2068     		ldr	r0, [r4]
 2326 0014 FFF7FEFF 		bl	USB_ReadInterrupts
 2327              	.LVL184:
 504:Drivers/STM32F7xx_HAL_Driver/Src/stm32f7xx_hal_hcd.c ****     {
 2328              		.loc 1 504 8 view .LVU728
 2329 0018 0028     		cmp	r0, #0
 2330 001a F9D0     		beq	.L145
 509:Drivers/STM32F7xx_HAL_Driver/Src/stm32f7xx_hal_hcd.c ****     {
 2331              		.loc 1 509 5 is_stmt 1 view .LVU729
 509:Drivers/STM32F7xx_HAL_Driver/Src/stm32f7xx_hal_hcd.c ****     {
 2332              		.loc 1 509 9 is_stmt 0 view .LVU730
 2333 001c 2068     		ldr	r0, [r4]
 2334 001e FFF7FEFF 		bl	USB_ReadInterrupts
 2335              	.LVL185:
 509:Drivers/STM32F7xx_HAL_Driver/Src/stm32f7xx_hal_hcd.c ****     {
 2336              		.loc 1 509 8 view .LVU731
 2337 0022 10F4001F 		tst	r0, #2097152
 2338 0026 03D0     		beq	.L147
 512:Drivers/STM32F7xx_HAL_Driver/Src/stm32f7xx_hal_hcd.c ****     }
 2339              		.loc 1 512 7 is_stmt 1 view .LVU732
 2340 0028 2368     		ldr	r3, [r4]
 2341 002a 4FF40012 		mov	r2, #2097152
 2342 002e 5A61     		str	r2, [r3, #20]
 2343              	.L147:
 515:Drivers/STM32F7xx_HAL_Driver/Src/stm32f7xx_hal_hcd.c ****     {
 2344              		.loc 1 515 5 view .LVU733
 515:Drivers/STM32F7xx_HAL_Driver/Src/stm32f7xx_hal_hcd.c ****     {
ARM GAS  C:\Users\seblo\AppData\Local\Temp\ccHEsOvX.s 			page 82


 2345              		.loc 1 515 9 is_stmt 0 view .LVU734
 2346 0030 2068     		ldr	r0, [r4]
 2347 0032 FFF7FEFF 		bl	USB_ReadInterrupts
 2348              	.LVL186:
 515:Drivers/STM32F7xx_HAL_Driver/Src/stm32f7xx_hal_hcd.c ****     {
 2349              		.loc 1 515 8 view .LVU735
 2350 0036 10F4801F 		tst	r0, #1048576
 2351 003a 03D0     		beq	.L148
 518:Drivers/STM32F7xx_HAL_Driver/Src/stm32f7xx_hal_hcd.c ****     }
 2352              		.loc 1 518 7 is_stmt 1 view .LVU736
 2353 003c 2368     		ldr	r3, [r4]
 2354 003e 4FF48012 		mov	r2, #1048576
 2355 0042 5A61     		str	r2, [r3, #20]
 2356              	.L148:
 521:Drivers/STM32F7xx_HAL_Driver/Src/stm32f7xx_hal_hcd.c ****     {
 2357              		.loc 1 521 5 view .LVU737
 521:Drivers/STM32F7xx_HAL_Driver/Src/stm32f7xx_hal_hcd.c ****     {
 2358              		.loc 1 521 9 is_stmt 0 view .LVU738
 2359 0044 2068     		ldr	r0, [r4]
 2360 0046 FFF7FEFF 		bl	USB_ReadInterrupts
 2361              	.LVL187:
 521:Drivers/STM32F7xx_HAL_Driver/Src/stm32f7xx_hal_hcd.c ****     {
 2362              		.loc 1 521 8 view .LVU739
 2363 004a 10F0806F 		tst	r0, #67108864
 2364 004e 03D0     		beq	.L149
 524:Drivers/STM32F7xx_HAL_Driver/Src/stm32f7xx_hal_hcd.c ****     }
 2365              		.loc 1 524 7 is_stmt 1 view .LVU740
 2366 0050 2368     		ldr	r3, [r4]
 2367 0052 4FF08062 		mov	r2, #67108864
 2368 0056 5A61     		str	r2, [r3, #20]
 2369              	.L149:
 527:Drivers/STM32F7xx_HAL_Driver/Src/stm32f7xx_hal_hcd.c ****     {
 2370              		.loc 1 527 5 view .LVU741
 527:Drivers/STM32F7xx_HAL_Driver/Src/stm32f7xx_hal_hcd.c ****     {
 2371              		.loc 1 527 9 is_stmt 0 view .LVU742
 2372 0058 2068     		ldr	r0, [r4]
 2373 005a FFF7FEFF 		bl	USB_ReadInterrupts
 2374              	.LVL188:
 527:Drivers/STM32F7xx_HAL_Driver/Src/stm32f7xx_hal_hcd.c ****     {
 2375              		.loc 1 527 8 view .LVU743
 2376 005e 10F0020F 		tst	r0, #2
 2377 0062 02D0     		beq	.L150
 530:Drivers/STM32F7xx_HAL_Driver/Src/stm32f7xx_hal_hcd.c ****     }
 2378              		.loc 1 530 7 is_stmt 1 view .LVU744
 2379 0064 2368     		ldr	r3, [r4]
 2380 0066 0222     		movs	r2, #2
 2381 0068 5A61     		str	r2, [r3, #20]
 2382              	.L150:
 534:Drivers/STM32F7xx_HAL_Driver/Src/stm32f7xx_hal_hcd.c ****     {
 2383              		.loc 1 534 5 view .LVU745
 534:Drivers/STM32F7xx_HAL_Driver/Src/stm32f7xx_hal_hcd.c ****     {
 2384              		.loc 1 534 9 is_stmt 0 view .LVU746
 2385 006a 2068     		ldr	r0, [r4]
 2386 006c FFF7FEFF 		bl	USB_ReadInterrupts
 2387              	.LVL189:
 534:Drivers/STM32F7xx_HAL_Driver/Src/stm32f7xx_hal_hcd.c ****     {
 2388              		.loc 1 534 8 view .LVU747
ARM GAS  C:\Users\seblo\AppData\Local\Temp\ccHEsOvX.s 			page 83


 2389 0070 10F0005F 		tst	r0, #536870912
 2390 0074 08D0     		beq	.L151
 536:Drivers/STM32F7xx_HAL_Driver/Src/stm32f7xx_hal_hcd.c **** 
 2391              		.loc 1 536 7 is_stmt 1 view .LVU748
 2392 0076 2368     		ldr	r3, [r4]
 2393 0078 4FF00052 		mov	r2, #536870912
 2394 007c 5A61     		str	r2, [r3, #20]
 538:Drivers/STM32F7xx_HAL_Driver/Src/stm32f7xx_hal_hcd.c ****       {
 2395              		.loc 1 538 7 view .LVU749
 538:Drivers/STM32F7xx_HAL_Driver/Src/stm32f7xx_hal_hcd.c ****       {
 2396              		.loc 1 538 12 is_stmt 0 view .LVU750
 2397 007e D5F84034 		ldr	r3, [r5, #1088]
 538:Drivers/STM32F7xx_HAL_Driver/Src/stm32f7xx_hal_hcd.c ****       {
 2398              		.loc 1 538 10 view .LVU751
 2399 0082 13F0010F 		tst	r3, #1
 2400 0086 25D0     		beq	.L161
 2401              	.L151:
 552:Drivers/STM32F7xx_HAL_Driver/Src/stm32f7xx_hal_hcd.c ****     {
 2402              		.loc 1 552 5 is_stmt 1 view .LVU752
 552:Drivers/STM32F7xx_HAL_Driver/Src/stm32f7xx_hal_hcd.c ****     {
 2403              		.loc 1 552 9 is_stmt 0 view .LVU753
 2404 0088 2068     		ldr	r0, [r4]
 2405 008a FFF7FEFF 		bl	USB_ReadInterrupts
 2406              	.LVL190:
 552:Drivers/STM32F7xx_HAL_Driver/Src/stm32f7xx_hal_hcd.c ****     {
 2407              		.loc 1 552 8 view .LVU754
 2408 008e 10F0807F 		tst	r0, #16777216
 2409 0092 27D1     		bne	.L162
 2410              	.L152:
 558:Drivers/STM32F7xx_HAL_Driver/Src/stm32f7xx_hal_hcd.c ****     {
 2411              		.loc 1 558 5 is_stmt 1 view .LVU755
 558:Drivers/STM32F7xx_HAL_Driver/Src/stm32f7xx_hal_hcd.c ****     {
 2412              		.loc 1 558 9 is_stmt 0 view .LVU756
 2413 0094 2068     		ldr	r0, [r4]
 2414 0096 FFF7FEFF 		bl	USB_ReadInterrupts
 2415              	.LVL191:
 558:Drivers/STM32F7xx_HAL_Driver/Src/stm32f7xx_hal_hcd.c ****     {
 2416              		.loc 1 558 8 view .LVU757
 2417 009a 10F0080F 		tst	r0, #8
 2418 009e 25D1     		bne	.L163
 2419              	.L153:
 570:Drivers/STM32F7xx_HAL_Driver/Src/stm32f7xx_hal_hcd.c ****     {
 2420              		.loc 1 570 5 is_stmt 1 view .LVU758
 570:Drivers/STM32F7xx_HAL_Driver/Src/stm32f7xx_hal_hcd.c ****     {
 2421              		.loc 1 570 9 is_stmt 0 view .LVU759
 2422 00a0 2068     		ldr	r0, [r4]
 2423 00a2 FFF7FEFF 		bl	USB_ReadInterrupts
 2424              	.LVL192:
 570:Drivers/STM32F7xx_HAL_Driver/Src/stm32f7xx_hal_hcd.c ****     {
 2425              		.loc 1 570 8 view .LVU760
 2426 00a6 10F0007F 		tst	r0, #33554432
 2427 00aa 26D1     		bne	.L164
 2428              	.L154:
 591:Drivers/STM32F7xx_HAL_Driver/Src/stm32f7xx_hal_hcd.c ****     {
 2429              		.loc 1 591 5 is_stmt 1 view .LVU761
 591:Drivers/STM32F7xx_HAL_Driver/Src/stm32f7xx_hal_hcd.c ****     {
 2430              		.loc 1 591 10 is_stmt 0 view .LVU762
ARM GAS  C:\Users\seblo\AppData\Local\Temp\ccHEsOvX.s 			page 84


 2431 00ac 2068     		ldr	r0, [r4]
 2432 00ae FFF7FEFF 		bl	USB_ReadInterrupts
 2433              	.LVL193:
 591:Drivers/STM32F7xx_HAL_Driver/Src/stm32f7xx_hal_hcd.c ****     {
 2434              		.loc 1 591 60 view .LVU763
 2435 00b2 10F0100F 		tst	r0, #16
 2436 00b6 ABD0     		beq	.L145
 593:Drivers/STM32F7xx_HAL_Driver/Src/stm32f7xx_hal_hcd.c **** 
 2437              		.loc 1 593 7 is_stmt 1 view .LVU764
 2438 00b8 2268     		ldr	r2, [r4]
 2439 00ba 9369     		ldr	r3, [r2, #24]
 2440 00bc 23F01003 		bic	r3, r3, #16
 2441 00c0 9361     		str	r3, [r2, #24]
 595:Drivers/STM32F7xx_HAL_Driver/Src/stm32f7xx_hal_hcd.c **** 
 2442              		.loc 1 595 7 view .LVU765
 2443 00c2 2046     		mov	r0, r4
 2444 00c4 FFF7FEFF 		bl	HCD_RXQLVL_IRQHandler
 2445              	.LVL194:
 597:Drivers/STM32F7xx_HAL_Driver/Src/stm32f7xx_hal_hcd.c ****     }
 2446              		.loc 1 597 7 view .LVU766
 2447 00c8 2268     		ldr	r2, [r4]
 2448 00ca 9369     		ldr	r3, [r2, #24]
 2449 00cc 43F01003 		orr	r3, r3, #16
 2450 00d0 9361     		str	r3, [r2, #24]
 2451 00d2 9DE7     		b	.L145
 2452              	.L161:
 544:Drivers/STM32F7xx_HAL_Driver/Src/stm32f7xx_hal_hcd.c **** #endif /* USE_HAL_HCD_REGISTER_CALLBACKS */
 2453              		.loc 1 544 9 view .LVU767
 2454 00d4 2046     		mov	r0, r4
 2455 00d6 FFF7FEFF 		bl	HAL_HCD_Disconnect_Callback
 2456              	.LVL195:
 547:Drivers/STM32F7xx_HAL_Driver/Src/stm32f7xx_hal_hcd.c ****       }
 2457              		.loc 1 547 9 view .LVU768
 547:Drivers/STM32F7xx_HAL_Driver/Src/stm32f7xx_hal_hcd.c ****       }
 2458              		.loc 1 547 15 is_stmt 0 view .LVU769
 2459 00da 0121     		movs	r1, #1
 2460 00dc 2068     		ldr	r0, [r4]
 2461 00de FFF7FEFF 		bl	USB_InitFSLSPClkSel
 2462              	.LVL196:
 2463 00e2 D1E7     		b	.L151
 2464              	.L162:
 554:Drivers/STM32F7xx_HAL_Driver/Src/stm32f7xx_hal_hcd.c ****     }
 2465              		.loc 1 554 7 is_stmt 1 view .LVU770
 2466 00e4 2046     		mov	r0, r4
 2467 00e6 FFF7FEFF 		bl	HCD_Port_IRQHandler
 2468              	.LVL197:
 2469 00ea D3E7     		b	.L152
 2470              	.L163:
 563:Drivers/STM32F7xx_HAL_Driver/Src/stm32f7xx_hal_hcd.c **** #endif /* USE_HAL_HCD_REGISTER_CALLBACKS */
 2471              		.loc 1 563 7 view .LVU771
 2472 00ec 2046     		mov	r0, r4
 2473 00ee FFF7FEFF 		bl	HAL_HCD_SOF_Callback
 2474              	.LVL198:
 566:Drivers/STM32F7xx_HAL_Driver/Src/stm32f7xx_hal_hcd.c ****     }
 2475              		.loc 1 566 7 view .LVU772
 2476 00f2 2368     		ldr	r3, [r4]
 2477 00f4 0822     		movs	r2, #8
ARM GAS  C:\Users\seblo\AppData\Local\Temp\ccHEsOvX.s 			page 85


 2478 00f6 5A61     		str	r2, [r3, #20]
 2479 00f8 D2E7     		b	.L153
 2480              	.L164:
 572:Drivers/STM32F7xx_HAL_Driver/Src/stm32f7xx_hal_hcd.c ****       for (i = 0U; i < hhcd->Init.Host_channels; i++)
 2481              		.loc 1 572 7 view .LVU773
 572:Drivers/STM32F7xx_HAL_Driver/Src/stm32f7xx_hal_hcd.c ****       for (i = 0U; i < hhcd->Init.Host_channels; i++)
 2482              		.loc 1 572 19 is_stmt 0 view .LVU774
 2483 00fa 2068     		ldr	r0, [r4]
 2484 00fc FFF7FEFF 		bl	USB_HC_ReadInterrupt
 2485              	.LVL199:
 2486 0100 0746     		mov	r7, r0
 2487              	.LVL200:
 573:Drivers/STM32F7xx_HAL_Driver/Src/stm32f7xx_hal_hcd.c ****       {
 2488              		.loc 1 573 7 is_stmt 1 view .LVU775
 573:Drivers/STM32F7xx_HAL_Driver/Src/stm32f7xx_hal_hcd.c ****       {
 2489              		.loc 1 573 14 is_stmt 0 view .LVU776
 2490 0102 0026     		movs	r6, #0
 573:Drivers/STM32F7xx_HAL_Driver/Src/stm32f7xx_hal_hcd.c ****       {
 2491              		.loc 1 573 7 view .LVU777
 2492 0104 04E0     		b	.L155
 2493              	.LVL201:
 2494              	.L157:
 583:Drivers/STM32F7xx_HAL_Driver/Src/stm32f7xx_hal_hcd.c ****           }
 2495              		.loc 1 583 13 is_stmt 1 view .LVU778
 2496 0106 F1B2     		uxtb	r1, r6
 2497 0108 2046     		mov	r0, r4
 2498 010a FFF7FEFF 		bl	HCD_HC_OUT_IRQHandler
 2499              	.LVL202:
 2500              	.L156:
 573:Drivers/STM32F7xx_HAL_Driver/Src/stm32f7xx_hal_hcd.c ****       {
 2501              		.loc 1 573 50 discriminator 2 view .LVU779
 573:Drivers/STM32F7xx_HAL_Driver/Src/stm32f7xx_hal_hcd.c ****       {
 2502              		.loc 1 573 51 is_stmt 0 discriminator 2 view .LVU780
 2503 010e 0136     		adds	r6, r6, #1
 2504              	.LVL203:
 2505              	.L155:
 573:Drivers/STM32F7xx_HAL_Driver/Src/stm32f7xx_hal_hcd.c ****       {
 2506              		.loc 1 573 20 is_stmt 1 discriminator 1 view .LVU781
 573:Drivers/STM32F7xx_HAL_Driver/Src/stm32f7xx_hal_hcd.c ****       {
 2507              		.loc 1 573 34 is_stmt 0 discriminator 1 view .LVU782
 2508 0110 A368     		ldr	r3, [r4, #8]
 573:Drivers/STM32F7xx_HAL_Driver/Src/stm32f7xx_hal_hcd.c ****       {
 2509              		.loc 1 573 7 discriminator 1 view .LVU783
 2510 0112 B342     		cmp	r3, r6
 2511 0114 12D9     		bls	.L165
 575:Drivers/STM32F7xx_HAL_Driver/Src/stm32f7xx_hal_hcd.c ****         {
 2512              		.loc 1 575 9 is_stmt 1 view .LVU784
 575:Drivers/STM32F7xx_HAL_Driver/Src/stm32f7xx_hal_hcd.c ****         {
 2513              		.loc 1 575 37 is_stmt 0 view .LVU785
 2514 0116 06F00F03 		and	r3, r6, #15
 575:Drivers/STM32F7xx_HAL_Driver/Src/stm32f7xx_hal_hcd.c ****         {
 2515              		.loc 1 575 47 view .LVU786
 2516 011a 27FA03F3 		lsr	r3, r7, r3
 575:Drivers/STM32F7xx_HAL_Driver/Src/stm32f7xx_hal_hcd.c ****         {
 2517              		.loc 1 575 12 view .LVU787
 2518 011e 13F0010F 		tst	r3, #1
 2519 0122 F4D0     		beq	.L156
ARM GAS  C:\Users\seblo\AppData\Local\Temp\ccHEsOvX.s 			page 86


 577:Drivers/STM32F7xx_HAL_Driver/Src/stm32f7xx_hal_hcd.c ****           {
 2520              		.loc 1 577 11 is_stmt 1 view .LVU788
 577:Drivers/STM32F7xx_HAL_Driver/Src/stm32f7xx_hal_hcd.c ****           {
 2521              		.loc 1 577 16 is_stmt 0 view .LVU789
 2522 0124 05EB4613 		add	r3, r5, r6, lsl #5
 577:Drivers/STM32F7xx_HAL_Driver/Src/stm32f7xx_hal_hcd.c ****           {
 2523              		.loc 1 577 26 view .LVU790
 2524 0128 D3F80035 		ldr	r3, [r3, #1280]
 577:Drivers/STM32F7xx_HAL_Driver/Src/stm32f7xx_hal_hcd.c ****           {
 2525              		.loc 1 577 14 view .LVU791
 2526 012c 13F4004F 		tst	r3, #32768
 2527 0130 E9D0     		beq	.L157
 579:Drivers/STM32F7xx_HAL_Driver/Src/stm32f7xx_hal_hcd.c ****           }
 2528              		.loc 1 579 13 is_stmt 1 view .LVU792
 2529 0132 F1B2     		uxtb	r1, r6
 2530 0134 2046     		mov	r0, r4
 2531 0136 FFF7FEFF 		bl	HCD_HC_IN_IRQHandler
 2532              	.LVL204:
 2533 013a E8E7     		b	.L156
 2534              	.L165:
 587:Drivers/STM32F7xx_HAL_Driver/Src/stm32f7xx_hal_hcd.c ****     }
 2535              		.loc 1 587 7 view .LVU793
 2536 013c 2368     		ldr	r3, [r4]
 2537 013e 4FF00072 		mov	r2, #33554432
 2538 0142 5A61     		str	r2, [r3, #20]
 2539 0144 B2E7     		b	.L154
 2540              		.cfi_endproc
 2541              	.LFE148:
 2543              		.section	.text.HAL_HCD_Start,"ax",%progbits
 2544              		.align	1
 2545              		.global	HAL_HCD_Start
 2546              		.syntax unified
 2547              		.thumb
 2548              		.thumb_func
 2549              		.fpu fpv5-sp-d16
 2551              	HAL_HCD_Start:
 2552              	.LVL205:
 2553              	.LFB155:
1005:Drivers/STM32F7xx_HAL_Driver/Src/stm32f7xx_hal_hcd.c ****   __HAL_LOCK(hhcd);
 2554              		.loc 1 1005 1 view -0
 2555              		.cfi_startproc
 2556              		@ args = 0, pretend = 0, frame = 0
 2557              		@ frame_needed = 0, uses_anonymous_args = 0
1005:Drivers/STM32F7xx_HAL_Driver/Src/stm32f7xx_hal_hcd.c ****   __HAL_LOCK(hhcd);
 2558              		.loc 1 1005 1 is_stmt 0 view .LVU795
 2559 0000 38B5     		push	{r3, r4, r5, lr}
 2560              	.LCFI22:
 2561              		.cfi_def_cfa_offset 16
 2562              		.cfi_offset 3, -16
 2563              		.cfi_offset 4, -12
 2564              		.cfi_offset 5, -8
 2565              		.cfi_offset 14, -4
1006:Drivers/STM32F7xx_HAL_Driver/Src/stm32f7xx_hal_hcd.c ****   __HAL_HCD_ENABLE(hhcd);
 2566              		.loc 1 1006 3 is_stmt 1 view .LVU796
1006:Drivers/STM32F7xx_HAL_Driver/Src/stm32f7xx_hal_hcd.c ****   __HAL_HCD_ENABLE(hhcd);
 2567              		.loc 1 1006 3 view .LVU797
 2568 0002 90F8B832 		ldrb	r3, [r0, #696]	@ zero_extendqisi2
ARM GAS  C:\Users\seblo\AppData\Local\Temp\ccHEsOvX.s 			page 87


 2569 0006 012B     		cmp	r3, #1
 2570 0008 0ED0     		beq	.L168
 2571 000a 0446     		mov	r4, r0
1006:Drivers/STM32F7xx_HAL_Driver/Src/stm32f7xx_hal_hcd.c ****   __HAL_HCD_ENABLE(hhcd);
 2572              		.loc 1 1006 3 discriminator 2 view .LVU798
 2573 000c 0125     		movs	r5, #1
 2574 000e 80F8B852 		strb	r5, [r0, #696]
1006:Drivers/STM32F7xx_HAL_Driver/Src/stm32f7xx_hal_hcd.c ****   __HAL_HCD_ENABLE(hhcd);
 2575              		.loc 1 1006 3 discriminator 2 view .LVU799
1007:Drivers/STM32F7xx_HAL_Driver/Src/stm32f7xx_hal_hcd.c ****   (void)USB_DriveVbus(hhcd->Instance, 1U);
 2576              		.loc 1 1007 3 discriminator 2 view .LVU800
 2577 0012 0068     		ldr	r0, [r0]
 2578              	.LVL206:
1007:Drivers/STM32F7xx_HAL_Driver/Src/stm32f7xx_hal_hcd.c ****   (void)USB_DriveVbus(hhcd->Instance, 1U);
 2579              		.loc 1 1007 3 is_stmt 0 discriminator 2 view .LVU801
 2580 0014 FFF7FEFF 		bl	USB_EnableGlobalInt
 2581              	.LVL207:
1008:Drivers/STM32F7xx_HAL_Driver/Src/stm32f7xx_hal_hcd.c ****   __HAL_UNLOCK(hhcd);
 2582              		.loc 1 1008 3 is_stmt 1 discriminator 2 view .LVU802
1008:Drivers/STM32F7xx_HAL_Driver/Src/stm32f7xx_hal_hcd.c ****   __HAL_UNLOCK(hhcd);
 2583              		.loc 1 1008 9 is_stmt 0 discriminator 2 view .LVU803
 2584 0018 2946     		mov	r1, r5
 2585 001a 2068     		ldr	r0, [r4]
 2586 001c FFF7FEFF 		bl	USB_DriveVbus
 2587              	.LVL208:
1009:Drivers/STM32F7xx_HAL_Driver/Src/stm32f7xx_hal_hcd.c **** 
 2588              		.loc 1 1009 3 is_stmt 1 discriminator 2 view .LVU804
1009:Drivers/STM32F7xx_HAL_Driver/Src/stm32f7xx_hal_hcd.c **** 
 2589              		.loc 1 1009 3 discriminator 2 view .LVU805
 2590 0020 0020     		movs	r0, #0
 2591 0022 84F8B802 		strb	r0, [r4, #696]
1009:Drivers/STM32F7xx_HAL_Driver/Src/stm32f7xx_hal_hcd.c **** 
 2592              		.loc 1 1009 3 discriminator 2 view .LVU806
1011:Drivers/STM32F7xx_HAL_Driver/Src/stm32f7xx_hal_hcd.c **** }
 2593              		.loc 1 1011 3 discriminator 2 view .LVU807
 2594              	.LVL209:
 2595              	.L167:
1012:Drivers/STM32F7xx_HAL_Driver/Src/stm32f7xx_hal_hcd.c **** 
 2596              		.loc 1 1012 1 is_stmt 0 view .LVU808
 2597 0026 38BD     		pop	{r3, r4, r5, pc}
 2598              	.LVL210:
 2599              	.L168:
1006:Drivers/STM32F7xx_HAL_Driver/Src/stm32f7xx_hal_hcd.c ****   __HAL_HCD_ENABLE(hhcd);
 2600              		.loc 1 1006 3 view .LVU809
 2601 0028 0220     		movs	r0, #2
 2602              	.LVL211:
1006:Drivers/STM32F7xx_HAL_Driver/Src/stm32f7xx_hal_hcd.c ****   __HAL_HCD_ENABLE(hhcd);
 2603              		.loc 1 1006 3 view .LVU810
 2604 002a FCE7     		b	.L167
 2605              		.cfi_endproc
 2606              	.LFE155:
 2608              		.section	.text.HAL_HCD_Stop,"ax",%progbits
 2609              		.align	1
 2610              		.global	HAL_HCD_Stop
 2611              		.syntax unified
 2612              		.thumb
 2613              		.thumb_func
ARM GAS  C:\Users\seblo\AppData\Local\Temp\ccHEsOvX.s 			page 88


 2614              		.fpu fpv5-sp-d16
 2616              	HAL_HCD_Stop:
 2617              	.LVL212:
 2618              	.LFB156:
1021:Drivers/STM32F7xx_HAL_Driver/Src/stm32f7xx_hal_hcd.c ****   __HAL_LOCK(hhcd);
 2619              		.loc 1 1021 1 is_stmt 1 view -0
 2620              		.cfi_startproc
 2621              		@ args = 0, pretend = 0, frame = 0
 2622              		@ frame_needed = 0, uses_anonymous_args = 0
1022:Drivers/STM32F7xx_HAL_Driver/Src/stm32f7xx_hal_hcd.c ****   (void)USB_StopHost(hhcd->Instance);
 2623              		.loc 1 1022 3 view .LVU812
1022:Drivers/STM32F7xx_HAL_Driver/Src/stm32f7xx_hal_hcd.c ****   (void)USB_StopHost(hhcd->Instance);
 2624              		.loc 1 1022 3 view .LVU813
 2625 0000 90F8B832 		ldrb	r3, [r0, #696]	@ zero_extendqisi2
 2626 0004 012B     		cmp	r3, #1
 2627 0006 0BD0     		beq	.L172
1021:Drivers/STM32F7xx_HAL_Driver/Src/stm32f7xx_hal_hcd.c ****   __HAL_LOCK(hhcd);
 2628              		.loc 1 1021 1 is_stmt 0 discriminator 2 view .LVU814
 2629 0008 10B5     		push	{r4, lr}
 2630              	.LCFI23:
 2631              		.cfi_def_cfa_offset 8
 2632              		.cfi_offset 4, -8
 2633              		.cfi_offset 14, -4
 2634 000a 0446     		mov	r4, r0
1022:Drivers/STM32F7xx_HAL_Driver/Src/stm32f7xx_hal_hcd.c ****   (void)USB_StopHost(hhcd->Instance);
 2635              		.loc 1 1022 3 is_stmt 1 discriminator 2 view .LVU815
 2636 000c 0123     		movs	r3, #1
 2637 000e 80F8B832 		strb	r3, [r0, #696]
1022:Drivers/STM32F7xx_HAL_Driver/Src/stm32f7xx_hal_hcd.c ****   (void)USB_StopHost(hhcd->Instance);
 2638              		.loc 1 1022 3 discriminator 2 view .LVU816
1023:Drivers/STM32F7xx_HAL_Driver/Src/stm32f7xx_hal_hcd.c ****   __HAL_UNLOCK(hhcd);
 2639              		.loc 1 1023 3 discriminator 2 view .LVU817
1023:Drivers/STM32F7xx_HAL_Driver/Src/stm32f7xx_hal_hcd.c ****   __HAL_UNLOCK(hhcd);
 2640              		.loc 1 1023 9 is_stmt 0 discriminator 2 view .LVU818
 2641 0012 0068     		ldr	r0, [r0]
 2642              	.LVL213:
1023:Drivers/STM32F7xx_HAL_Driver/Src/stm32f7xx_hal_hcd.c ****   __HAL_UNLOCK(hhcd);
 2643              		.loc 1 1023 9 discriminator 2 view .LVU819
 2644 0014 FFF7FEFF 		bl	USB_StopHost
 2645              	.LVL214:
1024:Drivers/STM32F7xx_HAL_Driver/Src/stm32f7xx_hal_hcd.c **** 
 2646              		.loc 1 1024 3 is_stmt 1 discriminator 2 view .LVU820
1024:Drivers/STM32F7xx_HAL_Driver/Src/stm32f7xx_hal_hcd.c **** 
 2647              		.loc 1 1024 3 discriminator 2 view .LVU821
 2648 0018 0020     		movs	r0, #0
 2649 001a 84F8B802 		strb	r0, [r4, #696]
1024:Drivers/STM32F7xx_HAL_Driver/Src/stm32f7xx_hal_hcd.c **** 
 2650              		.loc 1 1024 3 discriminator 2 view .LVU822
1026:Drivers/STM32F7xx_HAL_Driver/Src/stm32f7xx_hal_hcd.c **** }
 2651              		.loc 1 1026 3 discriminator 2 view .LVU823
1027:Drivers/STM32F7xx_HAL_Driver/Src/stm32f7xx_hal_hcd.c **** 
 2652              		.loc 1 1027 1 is_stmt 0 discriminator 2 view .LVU824
 2653 001e 10BD     		pop	{r4, pc}
 2654              	.LVL215:
 2655              	.L172:
 2656              	.LCFI24:
 2657              		.cfi_def_cfa_offset 0
ARM GAS  C:\Users\seblo\AppData\Local\Temp\ccHEsOvX.s 			page 89


 2658              		.cfi_restore 4
 2659              		.cfi_restore 14
1022:Drivers/STM32F7xx_HAL_Driver/Src/stm32f7xx_hal_hcd.c ****   (void)USB_StopHost(hhcd->Instance);
 2660              		.loc 1 1022 3 view .LVU825
 2661 0020 0220     		movs	r0, #2
 2662              	.LVL216:
1027:Drivers/STM32F7xx_HAL_Driver/Src/stm32f7xx_hal_hcd.c **** 
 2663              		.loc 1 1027 1 view .LVU826
 2664 0022 7047     		bx	lr
 2665              		.cfi_endproc
 2666              	.LFE156:
 2668              		.section	.text.HAL_HCD_ResetPort,"ax",%progbits
 2669              		.align	1
 2670              		.global	HAL_HCD_ResetPort
 2671              		.syntax unified
 2672              		.thumb
 2673              		.thumb_func
 2674              		.fpu fpv5-sp-d16
 2676              	HAL_HCD_ResetPort:
 2677              	.LVL217:
 2678              	.LFB157:
1035:Drivers/STM32F7xx_HAL_Driver/Src/stm32f7xx_hal_hcd.c ****   return (USB_ResetPort(hhcd->Instance));
 2679              		.loc 1 1035 1 is_stmt 1 view -0
 2680              		.cfi_startproc
 2681              		@ args = 0, pretend = 0, frame = 0
 2682              		@ frame_needed = 0, uses_anonymous_args = 0
1035:Drivers/STM32F7xx_HAL_Driver/Src/stm32f7xx_hal_hcd.c ****   return (USB_ResetPort(hhcd->Instance));
 2683              		.loc 1 1035 1 is_stmt 0 view .LVU828
 2684 0000 08B5     		push	{r3, lr}
 2685              	.LCFI25:
 2686              		.cfi_def_cfa_offset 8
 2687              		.cfi_offset 3, -8
 2688              		.cfi_offset 14, -4
1036:Drivers/STM32F7xx_HAL_Driver/Src/stm32f7xx_hal_hcd.c **** }
 2689              		.loc 1 1036 3 is_stmt 1 view .LVU829
1036:Drivers/STM32F7xx_HAL_Driver/Src/stm32f7xx_hal_hcd.c **** }
 2690              		.loc 1 1036 11 is_stmt 0 view .LVU830
 2691 0002 0068     		ldr	r0, [r0]
 2692              	.LVL218:
1036:Drivers/STM32F7xx_HAL_Driver/Src/stm32f7xx_hal_hcd.c **** }
 2693              		.loc 1 1036 11 view .LVU831
 2694 0004 FFF7FEFF 		bl	USB_ResetPort
 2695              	.LVL219:
1037:Drivers/STM32F7xx_HAL_Driver/Src/stm32f7xx_hal_hcd.c **** 
 2696              		.loc 1 1037 1 view .LVU832
 2697 0008 08BD     		pop	{r3, pc}
 2698              		.cfi_endproc
 2699              	.LFE157:
 2701              		.section	.text.HAL_HCD_GetState,"ax",%progbits
 2702              		.align	1
 2703              		.global	HAL_HCD_GetState
 2704              		.syntax unified
 2705              		.thumb
 2706              		.thumb_func
 2707              		.fpu fpv5-sp-d16
 2709              	HAL_HCD_GetState:
 2710              	.LVL220:
ARM GAS  C:\Users\seblo\AppData\Local\Temp\ccHEsOvX.s 			page 90


 2711              	.LFB158:
1064:Drivers/STM32F7xx_HAL_Driver/Src/stm32f7xx_hal_hcd.c ****   return hhcd->State;
 2712              		.loc 1 1064 1 is_stmt 1 view -0
 2713              		.cfi_startproc
 2714              		@ args = 0, pretend = 0, frame = 0
 2715              		@ frame_needed = 0, uses_anonymous_args = 0
 2716              		@ link register save eliminated.
1065:Drivers/STM32F7xx_HAL_Driver/Src/stm32f7xx_hal_hcd.c **** }
 2717              		.loc 1 1065 3 view .LVU834
1065:Drivers/STM32F7xx_HAL_Driver/Src/stm32f7xx_hal_hcd.c **** }
 2718              		.loc 1 1065 14 is_stmt 0 view .LVU835
 2719 0000 90F8B902 		ldrb	r0, [r0, #697]	@ zero_extendqisi2
 2720              	.LVL221:
1066:Drivers/STM32F7xx_HAL_Driver/Src/stm32f7xx_hal_hcd.c **** 
 2721              		.loc 1 1066 1 view .LVU836
 2722 0004 7047     		bx	lr
 2723              		.cfi_endproc
 2724              	.LFE158:
 2726              		.section	.text.HAL_HCD_HC_GetURBState,"ax",%progbits
 2727              		.align	1
 2728              		.global	HAL_HCD_HC_GetURBState
 2729              		.syntax unified
 2730              		.thumb
 2731              		.thumb_func
 2732              		.fpu fpv5-sp-d16
 2734              	HAL_HCD_HC_GetURBState:
 2735              	.LVL222:
 2736              	.LFB159:
1083:Drivers/STM32F7xx_HAL_Driver/Src/stm32f7xx_hal_hcd.c ****   return hhcd->hc[chnum].urb_state;
 2737              		.loc 1 1083 1 is_stmt 1 view -0
 2738              		.cfi_startproc
 2739              		@ args = 0, pretend = 0, frame = 0
 2740              		@ frame_needed = 0, uses_anonymous_args = 0
 2741              		@ link register save eliminated.
1084:Drivers/STM32F7xx_HAL_Driver/Src/stm32f7xx_hal_hcd.c **** }
 2742              		.loc 1 1084 3 view .LVU838
1084:Drivers/STM32F7xx_HAL_Driver/Src/stm32f7xx_hal_hcd.c **** }
 2743              		.loc 1 1084 25 is_stmt 0 view .LVU839
 2744 0000 01EB8101 		add	r1, r1, r1, lsl #2
 2745              	.LVL223:
1084:Drivers/STM32F7xx_HAL_Driver/Src/stm32f7xx_hal_hcd.c **** }
 2746              		.loc 1 1084 25 view .LVU840
 2747 0004 00EBC101 		add	r1, r0, r1, lsl #3
1085:Drivers/STM32F7xx_HAL_Driver/Src/stm32f7xx_hal_hcd.c **** 
 2748              		.loc 1 1085 1 view .LVU841
 2749 0008 91F85C00 		ldrb	r0, [r1, #92]	@ zero_extendqisi2
 2750              	.LVL224:
1085:Drivers/STM32F7xx_HAL_Driver/Src/stm32f7xx_hal_hcd.c **** 
 2751              		.loc 1 1085 1 view .LVU842
 2752 000c 7047     		bx	lr
 2753              		.cfi_endproc
 2754              	.LFE159:
 2756              		.section	.text.HAL_HCD_HC_GetXferCount,"ax",%progbits
 2757              		.align	1
 2758              		.global	HAL_HCD_HC_GetXferCount
 2759              		.syntax unified
 2760              		.thumb
ARM GAS  C:\Users\seblo\AppData\Local\Temp\ccHEsOvX.s 			page 91


 2761              		.thumb_func
 2762              		.fpu fpv5-sp-d16
 2764              	HAL_HCD_HC_GetXferCount:
 2765              	.LVL225:
 2766              	.LFB160:
1096:Drivers/STM32F7xx_HAL_Driver/Src/stm32f7xx_hal_hcd.c ****   return hhcd->hc[chnum].xfer_count;
 2767              		.loc 1 1096 1 is_stmt 1 view -0
 2768              		.cfi_startproc
 2769              		@ args = 0, pretend = 0, frame = 0
 2770              		@ frame_needed = 0, uses_anonymous_args = 0
 2771              		@ link register save eliminated.
1097:Drivers/STM32F7xx_HAL_Driver/Src/stm32f7xx_hal_hcd.c **** }
 2772              		.loc 1 1097 3 view .LVU844
1097:Drivers/STM32F7xx_HAL_Driver/Src/stm32f7xx_hal_hcd.c **** }
 2773              		.loc 1 1097 25 is_stmt 0 view .LVU845
 2774 0000 01EB8101 		add	r1, r1, r1, lsl #2
 2775              	.LVL226:
1097:Drivers/STM32F7xx_HAL_Driver/Src/stm32f7xx_hal_hcd.c **** }
 2776              		.loc 1 1097 25 view .LVU846
 2777 0004 00EBC101 		add	r1, r0, r1, lsl #3
1098:Drivers/STM32F7xx_HAL_Driver/Src/stm32f7xx_hal_hcd.c **** 
 2778              		.loc 1 1098 1 view .LVU847
 2779 0008 C86C     		ldr	r0, [r1, #76]
 2780              	.LVL227:
1098:Drivers/STM32F7xx_HAL_Driver/Src/stm32f7xx_hal_hcd.c **** 
 2781              		.loc 1 1098 1 view .LVU848
 2782 000a 7047     		bx	lr
 2783              		.cfi_endproc
 2784              	.LFE160:
 2786              		.section	.text.HAL_HCD_HC_GetState,"ax",%progbits
 2787              		.align	1
 2788              		.global	HAL_HCD_HC_GetState
 2789              		.syntax unified
 2790              		.thumb
 2791              		.thumb_func
 2792              		.fpu fpv5-sp-d16
 2794              	HAL_HCD_HC_GetState:
 2795              	.LVL228:
 2796              	.LFB161:
1118:Drivers/STM32F7xx_HAL_Driver/Src/stm32f7xx_hal_hcd.c ****   return hhcd->hc[chnum].state;
 2797              		.loc 1 1118 1 is_stmt 1 view -0
 2798              		.cfi_startproc
 2799              		@ args = 0, pretend = 0, frame = 0
 2800              		@ frame_needed = 0, uses_anonymous_args = 0
 2801              		@ link register save eliminated.
1119:Drivers/STM32F7xx_HAL_Driver/Src/stm32f7xx_hal_hcd.c **** }
 2802              		.loc 1 1119 3 view .LVU850
1119:Drivers/STM32F7xx_HAL_Driver/Src/stm32f7xx_hal_hcd.c **** }
 2803              		.loc 1 1119 25 is_stmt 0 view .LVU851
 2804 0000 01EB8101 		add	r1, r1, r1, lsl #2
 2805              	.LVL229:
1119:Drivers/STM32F7xx_HAL_Driver/Src/stm32f7xx_hal_hcd.c **** }
 2806              		.loc 1 1119 25 view .LVU852
 2807 0004 00EBC101 		add	r1, r0, r1, lsl #3
1120:Drivers/STM32F7xx_HAL_Driver/Src/stm32f7xx_hal_hcd.c **** 
 2808              		.loc 1 1120 1 view .LVU853
 2809 0008 91F85D00 		ldrb	r0, [r1, #93]	@ zero_extendqisi2
ARM GAS  C:\Users\seblo\AppData\Local\Temp\ccHEsOvX.s 			page 92


 2810              	.LVL230:
1120:Drivers/STM32F7xx_HAL_Driver/Src/stm32f7xx_hal_hcd.c **** 
 2811              		.loc 1 1120 1 view .LVU854
 2812 000c 7047     		bx	lr
 2813              		.cfi_endproc
 2814              	.LFE161:
 2816              		.section	.text.HAL_HCD_GetCurrentFrame,"ax",%progbits
 2817              		.align	1
 2818              		.global	HAL_HCD_GetCurrentFrame
 2819              		.syntax unified
 2820              		.thumb
 2821              		.thumb_func
 2822              		.fpu fpv5-sp-d16
 2824              	HAL_HCD_GetCurrentFrame:
 2825              	.LVL231:
 2826              	.LFB162:
1128:Drivers/STM32F7xx_HAL_Driver/Src/stm32f7xx_hal_hcd.c ****   return (USB_GetCurrentFrame(hhcd->Instance));
 2827              		.loc 1 1128 1 is_stmt 1 view -0
 2828              		.cfi_startproc
 2829              		@ args = 0, pretend = 0, frame = 0
 2830              		@ frame_needed = 0, uses_anonymous_args = 0
1128:Drivers/STM32F7xx_HAL_Driver/Src/stm32f7xx_hal_hcd.c ****   return (USB_GetCurrentFrame(hhcd->Instance));
 2831              		.loc 1 1128 1 is_stmt 0 view .LVU856
 2832 0000 08B5     		push	{r3, lr}
 2833              	.LCFI26:
 2834              		.cfi_def_cfa_offset 8
 2835              		.cfi_offset 3, -8
 2836              		.cfi_offset 14, -4
1129:Drivers/STM32F7xx_HAL_Driver/Src/stm32f7xx_hal_hcd.c **** }
 2837              		.loc 1 1129 3 is_stmt 1 view .LVU857
1129:Drivers/STM32F7xx_HAL_Driver/Src/stm32f7xx_hal_hcd.c **** }
 2838              		.loc 1 1129 11 is_stmt 0 view .LVU858
 2839 0002 0068     		ldr	r0, [r0]
 2840              	.LVL232:
1129:Drivers/STM32F7xx_HAL_Driver/Src/stm32f7xx_hal_hcd.c **** }
 2841              		.loc 1 1129 11 view .LVU859
 2842 0004 FFF7FEFF 		bl	USB_GetCurrentFrame
 2843              	.LVL233:
1130:Drivers/STM32F7xx_HAL_Driver/Src/stm32f7xx_hal_hcd.c **** 
 2844              		.loc 1 1130 1 view .LVU860
 2845 0008 08BD     		pop	{r3, pc}
 2846              		.cfi_endproc
 2847              	.LFE162:
 2849              		.section	.text.HAL_HCD_GetCurrentSpeed,"ax",%progbits
 2850              		.align	1
 2851              		.global	HAL_HCD_GetCurrentSpeed
 2852              		.syntax unified
 2853              		.thumb
 2854              		.thumb_func
 2855              		.fpu fpv5-sp-d16
 2857              	HAL_HCD_GetCurrentSpeed:
 2858              	.LVL234:
 2859              	.LFB163:
1138:Drivers/STM32F7xx_HAL_Driver/Src/stm32f7xx_hal_hcd.c ****   return (USB_GetHostSpeed(hhcd->Instance));
 2860              		.loc 1 1138 1 is_stmt 1 view -0
 2861              		.cfi_startproc
 2862              		@ args = 0, pretend = 0, frame = 0
ARM GAS  C:\Users\seblo\AppData\Local\Temp\ccHEsOvX.s 			page 93


 2863              		@ frame_needed = 0, uses_anonymous_args = 0
1138:Drivers/STM32F7xx_HAL_Driver/Src/stm32f7xx_hal_hcd.c ****   return (USB_GetHostSpeed(hhcd->Instance));
 2864              		.loc 1 1138 1 is_stmt 0 view .LVU862
 2865 0000 08B5     		push	{r3, lr}
 2866              	.LCFI27:
 2867              		.cfi_def_cfa_offset 8
 2868              		.cfi_offset 3, -8
 2869              		.cfi_offset 14, -4
1139:Drivers/STM32F7xx_HAL_Driver/Src/stm32f7xx_hal_hcd.c **** }
 2870              		.loc 1 1139 3 is_stmt 1 view .LVU863
1139:Drivers/STM32F7xx_HAL_Driver/Src/stm32f7xx_hal_hcd.c **** }
 2871              		.loc 1 1139 11 is_stmt 0 view .LVU864
 2872 0002 0068     		ldr	r0, [r0]
 2873              	.LVL235:
1139:Drivers/STM32F7xx_HAL_Driver/Src/stm32f7xx_hal_hcd.c **** }
 2874              		.loc 1 1139 11 view .LVU865
 2875 0004 FFF7FEFF 		bl	USB_GetHostSpeed
 2876              	.LVL236:
1140:Drivers/STM32F7xx_HAL_Driver/Src/stm32f7xx_hal_hcd.c **** 
 2877              		.loc 1 1140 1 view .LVU866
 2878 0008 08BD     		pop	{r3, pc}
 2879              		.cfi_endproc
 2880              	.LFE163:
 2882              		.text
 2883              	.Letext0:
 2884              		.file 2 "c:\\program files (x86)\\gnu arm embedded toolchain\\10 2020-q4-major\\arm-none-eabi\\inc
 2885              		.file 3 "c:\\program files (x86)\\gnu arm embedded toolchain\\10 2020-q4-major\\arm-none-eabi\\inc
 2886              		.file 4 "Drivers/CMSIS/Device/ST/STM32F7xx/Include/stm32f746xx.h"
 2887              		.file 5 "Drivers/STM32F7xx_HAL_Driver/Inc/stm32f7xx_hal_def.h"
 2888              		.file 6 "Drivers/STM32F7xx_HAL_Driver/Inc/stm32f7xx_ll_usb.h"
 2889              		.file 7 "Drivers/STM32F7xx_HAL_Driver/Inc/stm32f7xx_hal_hcd.h"
ARM GAS  C:\Users\seblo\AppData\Local\Temp\ccHEsOvX.s 			page 94


DEFINED SYMBOLS
                            *ABS*:00000000 stm32f7xx_hal_hcd.c
C:\Users\seblo\AppData\Local\Temp\ccHEsOvX.s:18     .text.HCD_RXQLVL_IRQHandler:00000000 $t
C:\Users\seblo\AppData\Local\Temp\ccHEsOvX.s:25     .text.HCD_RXQLVL_IRQHandler:00000000 HCD_RXQLVL_IRQHandler
C:\Users\seblo\AppData\Local\Temp\ccHEsOvX.s:155    .text.HCD_RXQLVL_IRQHandler:00000080 $d
C:\Users\seblo\AppData\Local\Temp\ccHEsOvX.s:160    .text.HAL_HCD_HC_Init:00000000 $t
C:\Users\seblo\AppData\Local\Temp\ccHEsOvX.s:167    .text.HAL_HCD_HC_Init:00000000 HAL_HCD_HC_Init
C:\Users\seblo\AppData\Local\Temp\ccHEsOvX.s:283    .text.HAL_HCD_HC_Halt:00000000 $t
C:\Users\seblo\AppData\Local\Temp\ccHEsOvX.s:290    .text.HAL_HCD_HC_Halt:00000000 HAL_HCD_HC_Halt
C:\Users\seblo\AppData\Local\Temp\ccHEsOvX.s:344    .text.HAL_HCD_MspInit:00000000 $t
C:\Users\seblo\AppData\Local\Temp\ccHEsOvX.s:351    .text.HAL_HCD_MspInit:00000000 HAL_HCD_MspInit
C:\Users\seblo\AppData\Local\Temp\ccHEsOvX.s:366    .text.HAL_HCD_Init:00000000 $t
C:\Users\seblo\AppData\Local\Temp\ccHEsOvX.s:373    .text.HAL_HCD_Init:00000000 HAL_HCD_Init
C:\Users\seblo\AppData\Local\Temp\ccHEsOvX.s:513    .text.HAL_HCD_MspDeInit:00000000 $t
C:\Users\seblo\AppData\Local\Temp\ccHEsOvX.s:520    .text.HAL_HCD_MspDeInit:00000000 HAL_HCD_MspDeInit
C:\Users\seblo\AppData\Local\Temp\ccHEsOvX.s:535    .text.HAL_HCD_DeInit:00000000 $t
C:\Users\seblo\AppData\Local\Temp\ccHEsOvX.s:542    .text.HAL_HCD_DeInit:00000000 HAL_HCD_DeInit
C:\Users\seblo\AppData\Local\Temp\ccHEsOvX.s:592    .text.HAL_HCD_HC_SubmitRequest:00000000 $t
C:\Users\seblo\AppData\Local\Temp\ccHEsOvX.s:599    .text.HAL_HCD_HC_SubmitRequest:00000000 HAL_HCD_HC_SubmitRequest
C:\Users\seblo\AppData\Local\Temp\ccHEsOvX.s:643    .text.HAL_HCD_HC_SubmitRequest:0000003e $d
C:\Users\seblo\AppData\Local\Temp\ccHEsOvX.s:647    .text.HAL_HCD_HC_SubmitRequest:00000042 $t
C:\Users\seblo\AppData\Local\Temp\ccHEsOvX.s:879    .text.HAL_HCD_SOF_Callback:00000000 $t
C:\Users\seblo\AppData\Local\Temp\ccHEsOvX.s:886    .text.HAL_HCD_SOF_Callback:00000000 HAL_HCD_SOF_Callback
C:\Users\seblo\AppData\Local\Temp\ccHEsOvX.s:901    .text.HAL_HCD_Connect_Callback:00000000 $t
C:\Users\seblo\AppData\Local\Temp\ccHEsOvX.s:908    .text.HAL_HCD_Connect_Callback:00000000 HAL_HCD_Connect_Callback
C:\Users\seblo\AppData\Local\Temp\ccHEsOvX.s:923    .text.HAL_HCD_Disconnect_Callback:00000000 $t
C:\Users\seblo\AppData\Local\Temp\ccHEsOvX.s:930    .text.HAL_HCD_Disconnect_Callback:00000000 HAL_HCD_Disconnect_Callback
C:\Users\seblo\AppData\Local\Temp\ccHEsOvX.s:945    .text.HAL_HCD_PortEnabled_Callback:00000000 $t
C:\Users\seblo\AppData\Local\Temp\ccHEsOvX.s:952    .text.HAL_HCD_PortEnabled_Callback:00000000 HAL_HCD_PortEnabled_Callback
C:\Users\seblo\AppData\Local\Temp\ccHEsOvX.s:967    .text.HAL_HCD_PortDisabled_Callback:00000000 $t
C:\Users\seblo\AppData\Local\Temp\ccHEsOvX.s:974    .text.HAL_HCD_PortDisabled_Callback:00000000 HAL_HCD_PortDisabled_Callback
C:\Users\seblo\AppData\Local\Temp\ccHEsOvX.s:989    .text.HCD_Port_IRQHandler:00000000 $t
C:\Users\seblo\AppData\Local\Temp\ccHEsOvX.s:995    .text.HCD_Port_IRQHandler:00000000 HCD_Port_IRQHandler
C:\Users\seblo\AppData\Local\Temp\ccHEsOvX.s:1160   .text.HAL_HCD_HC_NotifyURBChange_Callback:00000000 $t
C:\Users\seblo\AppData\Local\Temp\ccHEsOvX.s:1167   .text.HAL_HCD_HC_NotifyURBChange_Callback:00000000 HAL_HCD_HC_NotifyURBChange_Callback
C:\Users\seblo\AppData\Local\Temp\ccHEsOvX.s:1184   .text.HCD_HC_IN_IRQHandler:00000000 $t
C:\Users\seblo\AppData\Local\Temp\ccHEsOvX.s:1190   .text.HCD_HC_IN_IRQHandler:00000000 HCD_HC_IN_IRQHandler
C:\Users\seblo\AppData\Local\Temp\ccHEsOvX.s:1753   .text.HCD_HC_OUT_IRQHandler:00000000 $t
C:\Users\seblo\AppData\Local\Temp\ccHEsOvX.s:1759   .text.HCD_HC_OUT_IRQHandler:00000000 HCD_HC_OUT_IRQHandler
C:\Users\seblo\AppData\Local\Temp\ccHEsOvX.s:2277   .text.HAL_HCD_IRQHandler:00000000 $t
C:\Users\seblo\AppData\Local\Temp\ccHEsOvX.s:2284   .text.HAL_HCD_IRQHandler:00000000 HAL_HCD_IRQHandler
C:\Users\seblo\AppData\Local\Temp\ccHEsOvX.s:2544   .text.HAL_HCD_Start:00000000 $t
C:\Users\seblo\AppData\Local\Temp\ccHEsOvX.s:2551   .text.HAL_HCD_Start:00000000 HAL_HCD_Start
C:\Users\seblo\AppData\Local\Temp\ccHEsOvX.s:2609   .text.HAL_HCD_Stop:00000000 $t
C:\Users\seblo\AppData\Local\Temp\ccHEsOvX.s:2616   .text.HAL_HCD_Stop:00000000 HAL_HCD_Stop
C:\Users\seblo\AppData\Local\Temp\ccHEsOvX.s:2669   .text.HAL_HCD_ResetPort:00000000 $t
C:\Users\seblo\AppData\Local\Temp\ccHEsOvX.s:2676   .text.HAL_HCD_ResetPort:00000000 HAL_HCD_ResetPort
C:\Users\seblo\AppData\Local\Temp\ccHEsOvX.s:2702   .text.HAL_HCD_GetState:00000000 $t
C:\Users\seblo\AppData\Local\Temp\ccHEsOvX.s:2709   .text.HAL_HCD_GetState:00000000 HAL_HCD_GetState
C:\Users\seblo\AppData\Local\Temp\ccHEsOvX.s:2727   .text.HAL_HCD_HC_GetURBState:00000000 $t
C:\Users\seblo\AppData\Local\Temp\ccHEsOvX.s:2734   .text.HAL_HCD_HC_GetURBState:00000000 HAL_HCD_HC_GetURBState
C:\Users\seblo\AppData\Local\Temp\ccHEsOvX.s:2757   .text.HAL_HCD_HC_GetXferCount:00000000 $t
C:\Users\seblo\AppData\Local\Temp\ccHEsOvX.s:2764   .text.HAL_HCD_HC_GetXferCount:00000000 HAL_HCD_HC_GetXferCount
C:\Users\seblo\AppData\Local\Temp\ccHEsOvX.s:2787   .text.HAL_HCD_HC_GetState:00000000 $t
C:\Users\seblo\AppData\Local\Temp\ccHEsOvX.s:2794   .text.HAL_HCD_HC_GetState:00000000 HAL_HCD_HC_GetState
C:\Users\seblo\AppData\Local\Temp\ccHEsOvX.s:2817   .text.HAL_HCD_GetCurrentFrame:00000000 $t
C:\Users\seblo\AppData\Local\Temp\ccHEsOvX.s:2824   .text.HAL_HCD_GetCurrentFrame:00000000 HAL_HCD_GetCurrentFrame
ARM GAS  C:\Users\seblo\AppData\Local\Temp\ccHEsOvX.s 			page 95


C:\Users\seblo\AppData\Local\Temp\ccHEsOvX.s:2850   .text.HAL_HCD_GetCurrentSpeed:00000000 $t
C:\Users\seblo\AppData\Local\Temp\ccHEsOvX.s:2857   .text.HAL_HCD_GetCurrentSpeed:00000000 HAL_HCD_GetCurrentSpeed

UNDEFINED SYMBOLS
USB_ReadPacket
USB_HC_Init
USB_HC_Halt
USB_DisableGlobalInt
USB_CoreInit
USB_SetCurrentMode
USB_HostInit
USB_HC_StartXfer
USB_InitFSLSPClkSel
USB_GetMode
USB_ReadInterrupts
USB_HC_ReadInterrupt
USB_EnableGlobalInt
USB_DriveVbus
USB_StopHost
USB_ResetPort
USB_GetCurrentFrame
USB_GetHostSpeed
